LX51 LINKER/LOCATER V4.41                                                               04/19/2017  14:43:06  PAGE 1


LX51 LINKER/LOCATER V4.41, INVOKED BY:
C:\KEIL\C51\BIN\LX51.EXE OUT/MAIN.OBJ, OUT/SYSTEM.OBJ, OUT/YC_SYS.OBJ, OUT/YC_PERIPHERAL.OBJ, OUT/SPIFLASH.OBJ, OUT/BT_I
>> PC.OBJ, OUT/YC_UTILITIES.OBJ, OUT/CS_SCALE_PROC.OBJ, OUT/CS_COMMTO1186.OBJ, OUT/CS_SCALEDISPLAY.OBJ, OUT/CS_SCALEKEY.
>> OBJ, OUT/RETATION_VARIABLE.OBJ, OUT/LXPROTOCOL.OBJ, OUT/CRC32.OBJ TO OUT\FW CLASSES (XDATA (X:0X4C80-X:0X4EFF), CODE 
>> (C:0-C:0XFFFF), DATA (D:0X10-0X7F), IDATA (I:0X80-0XCF)) SEGMENTS (?STACK (D:0XD0)) NOOVERLAY PAGELENGTH (60000) CODE
>> 


CPU MODE:     8051 MODE
MEMORY MODEL: LARGE


INPUT MODULES INCLUDED:
  OUT/MAIN.OBJ (MAIN)
         COMMENT TYPE 0: C51 V9.01
  OUT/SYSTEM.OBJ (SYSTEM)
         COMMENT TYPE 0: C51 V9.01
  OUT/YC_SYS.OBJ (YC_SYS)
         COMMENT TYPE 0: C51 V9.01
  OUT/YC_PERIPHERAL.OBJ (YC_PERIPHERAL)
         COMMENT TYPE 0: C51 V9.01
  OUT/SPIFLASH.OBJ (SPIFLASH)
         COMMENT TYPE 0: C51 V9.01
  OUT/BT_IPC.OBJ (BT_IPC)
         COMMENT TYPE 0: C51 V9.01
  OUT/YC_UTILITIES.OBJ (YC_UTILITIES)
         COMMENT TYPE 0: C51 V9.01
  OUT/CS_SCALE_PROC.OBJ (CS_SCALE_PROC)
         COMMENT TYPE 0: C51 V9.01
  OUT/CS_COMMTO1186.OBJ (CS_COMMTO1186)
         COMMENT TYPE 0: C51 V9.01
  OUT/CS_SCALEDISPLAY.OBJ (CS_SCALEDISPLAY)
         COMMENT TYPE 0: C51 V9.01
  OUT/CS_SCALEKEY.OBJ (CS_SCALEKEY)
         COMMENT TYPE 0: C51 V9.01
  OUT/RETATION_VARIABLE.OBJ (RETATION_VARIABLE)
         COMMENT TYPE 0: C51 V9.01
  OUT/LXPROTOCOL.OBJ (LXPROTOCOL)
         COMMENT TYPE 0: C51 V9.01
  OUT/CRC32.OBJ (CRC32)
         COMMENT TYPE 0: C51 V9.01
  C:\KEIL\C51\LIB\C51L.LIB (?C_STARTUP)
         COMMENT TYPE 1: A51 / ASM51 Assembler
  C:\KEIL\C51\LIB\C51L.LIB (?C?COPY)
         COMMENT TYPE 1: A51 / ASM51 Assembler
  C:\KEIL\C51\LIB\C51L.LIB (?C?CLDPTR)
         COMMENT TYPE 1: A51 / ASM51 Assembler
  C:\KEIL\C51\LIB\C51L.LIB (?C?CLDOPTR)
         COMMENT TYPE 1: A51 / ASM51 Assembler
  C:\KEIL\C51\LIB\C51L.LIB (?C?CSTPTR)
         COMMENT TYPE 1: A51 / ASM51 Assembler
  C:\KEIL\C51\LIB\C51L.LIB (?C?CSTOPTR)
         COMMENT TYPE 1: A51 / ASM51 Assembler
  C:\KEIL\C51\LIB\C51L.LIB (?C?UIDIV)
         COMMENT TYPE 1: A51 / ASM51 Assembler
  C:\KEIL\C51\LIB\C51L.LIB (?C?ILDIX)
         COMMENT TYPE 1: A51 / ASM51 Assembler
  C:\KEIL\C51\LIB\C51L.LIB (?C?LMUL)
         COMMENT TYPE 1: A51 / ASM51 Assembler
  C:\KEIL\C51\LIB\C51L.LIB (?C?ULDIV)
         COMMENT TYPE 1: A51 / ASM51 Assembler
  C:\KEIL\C51\LIB\C51L.LIB (?C?ULCMP)
         COMMENT TYPE 1: A51 / ASM51 Assembler
  C:\KEIL\C51\LIB\C51L.LIB (?C?ULSHR)
         COMMENT TYPE 1: A51 / ASM51 Assembler
  C:\KEIL\C51\LIB\C51L.LIB (?C?LSHL)
         COMMENT TYPE 1: A51 / ASM51 Assembler
  C:\KEIL\C51\LIB\C51L.LIB (?C?LSTXDATA)
         COMMENT TYPE 1: A51 / ASM51 Assembler
  C:\KEIL\C51\LIB\C51L.LIB (?C?LSTKXDATA)
         COMMENT TYPE 1: A51 / ASM51 Assembler
  C:\KEIL\C51\LIB\C51L.LIB (?C?CCASE)
         COMMENT TYPE 1: A51 / ASM51 Assembler
  C:\KEIL\C51\LIB\C51L.LIB (?C?ICASE)
         COMMENT TYPE 1: A51 / ASM51 Assembler
  C:\KEIL\C51\LIB\C51L.LIB (?C?ICALL)
         COMMENT TYPE 1: A51 / ASM51 Assembler
  C:\KEIL\C51\LIB\C51L.LIB (?C?LIMUL)
         COMMENT TYPE 1: A51 / ASM51 Assembler
  C:\KEIL\C51\LIB\C51L.LIB (?C_INIT)
         COMMENT TYPE 1: A51 / ASM51 Assembler


ACTIVE MEMORY CLASSES OF MODULE:  OUT\FW (MAIN)

BASE        START       END         USED      MEMORY CLASS
==========================================================
X:000000H   X:004C80H   X:004EFFH   00025AH   XDATA
C:000000H   C:000000H   C:00FFFFH   003F02H   CODE
I:000000H   I:000010H   I:00007FH   00001EH   DATA
I:000000H   I:000080H   I:0000CFH   000001H   IDATA
I:000020H.0 I:000020H.0 I:00002FH.7 000000H.2 BIT
C:000000H   C:000000H   C:00FFFFH   00000AH   CONST


MEMORY MAP OF MODULE:  OUT\FW (MAIN)


START     STOP      LENGTH    ALIGN  RELOC    MEMORY CLASS   SEGMENT NAME
=========================================================================

* * * * * * * * * * *   D A T A   M E M O R Y   * * * * * * * * * * * * *
000000H   000007H   000008H   ---    AT..     DATA           "REG BANK 0"
000008H   00000FH   000008H   ---    ---      **GAP**
000010H   000016H   000007H   BYTE   UNIT     DATA           ?DT?_DMEMCPY?YC_UTILITIES
000017H   00001CH   000006H   BYTE   UNIT     DATA           ?DT?_XMEMCPY?YC_UTILITIES
00001DH   00001EH   000002H   BYTE   UNIT     DATA           ?DT?_XMEMSET?YC_UTILITIES
00001FH   00001FH   000001H   BYTE   UNIT     DATA           ?DT?YC_UTILTIMERPROCESS?YC_SYS
000020H.0 000020H.0 000000H.1 BIT    UNIT     BIT            ?BI?CS_SCALE_POWERONPROC?CS_SCALE_PROC
000020H.1 000020H.1 000000H.1 BIT    UNIT     BIT            ?BI?CS_SCALE_PROC
000020H.2 000020H   000000H.6 ---    ---      **GAP**
000021H   000026H   000006H   BYTE   UNIT     DATA           ?DT?_CMEMCPY?YC_UTILITIES
000027H   0000CFH   0000A9H   ---    ---      **GAP**
0000D0H   0000D0H   000001H   BYTE   UNIT     IDATA          ?STACK

* * * * * * * * * * *   C O D E   M E M O R Y   * * * * * * * * * * * * *
000000H   000002H   000003H   ---    OFFS..   CODE           ?CO??C_STARTUP?0
000003H   0003F4H   0003F2H   BYTE   UNIT     CODE           ?C?LIB_CODE
0003F5H   000480H   00008CH   BYTE   UNIT     CODE           ?C_C51STARTUP
000481H   0004B7H   000037H   BYTE   UNIT     CODE           ?C_INITSEG
0004B8H   0004C1H   00000AH   BYTE   UNIT     CONST          ?CO?CS_COMMTO1186
0004C2H   0004E4H   000023H   BYTE   UNIT     CODE           ?PR?MAIN?MAIN
0004E5H   00052CH   000048H   BYTE   UNIT     CODE           ?PR?CS_SCALE_1186COM?CS_COMMTO1186
00052DH   000591H   000065H   BYTE   UNIT     CODE           ?PR?CS_1186COM_SETLCD_PROC?CS_COMMTO1186
000592H   0005A1H   000010H   BYTE   UNIT     CODE           ?PR?YC_UARTCLEARBUFFER?YC_PERIPHERAL
0005A2H   0005E1H   000040H   BYTE   UNIT     CODE           ?PR?SYSSTATUSPROCESS?SYSTEM
0005E2H   00065AH   000079H   BYTE   UNIT     CODE           ?PR?CS_1186COM_READTIME_PROC?CS_COMMTO1186
00065BH   00066CH   000012H   BYTE   UNIT     CODE           ?PR?YC_UARTWAITSENDDATA?YC_PERIPHERAL
00066DH   000700H   000094H   BYTE   UNIT     CODE           ?PR?CS_1186COM_SETSLEEPMODE_PROC?CS_COMMTO1186
000701H   00071AH   00001AH   BYTE   UNIT     CODE           ?PR?CS_1186COM_RESET_PROC?CS_COMMTO1186
00071BH   0007A7H   00008DH   BYTE   UNIT     CODE           ?PR?CS_1186COM_SETOPENWEIGHT_PROC?CS_COMMTO1186
0007A8H   0008F2H   00014BH   BYTE   UNIT     CODE           ?PR?_YC_UARTRECIVEDATAEXPECTED?YC_PERIPHERAL
0008F3H   000936H   000044H   BYTE   UNIT     CODE           ?PR?SOFTTIMER_10MSCALLBACK?SYSTEM
000937H   000A37H   000101H   BYTE   UNIT     CODE           ?PR?CS_KEYSCAN?CS_SCALEKEY
000A38H   000F14H   0004DDH   BYTE   UNIT     CODE           ?PR?_CS_SCALE_CALIPROC?CS_SCALE_PROC
000F15H   000F52H   00003EH   BYTE   UNIT     CODE           ?PR?_CS_SOFTTIMER?CS_SCALE_PROC
000F53H   000F72H   000020H   BYTE   UNIT     CODE           ?PR?CS_SCALE_CHANGEUNIT?CS_SCALE_PROC
000F73H   000FA7H   000035H   BYTE   UNIT     CODE           ?PR?CS_SCALEDISPLAY_STEADYFLASH?CS_SCALEDISPLAY
000FA8H   000FC2H   00001BH   BYTE   UNIT     CODE           ?PR?CS_SCALEDISPLAY_LCDSHOWNODIGIT?CS_SCALEDISPLAY
000FC3H   000FEBH   000029H   BYTE   UNIT     CODE           ?PR?CS_SCALEDISPLAY_LCDRESTORE?CS_SCALEDISPLAY
000FECH   001083H   000098H   BYTE   UNIT     CODE           ?PR?SYSTEMINIT?SYSTEM
001084H   0010B8H   000035H   BYTE   UNIT     CODE           ?PR?_YC_GPIOGETINPUTSTATUS?YC_PERIPHERAL
0010B9H   00117BH   0000C3H   BYTE   UNIT     CODE           ?PR?YC_UTILTIMERINIT?YC_SYS
00117CH   0012BAH   00013FH   BYTE   UNIT     CODE           ?PR?_YC_UTILTIMERSTARTMS?YC_SYS
0012BBH   0012F0H   000036H   BYTE   UNIT     CODE           ?PR?CS_SCALE_POWERON?CS_SCALE_PROC
0012F1H   001539H   000249H   BYTE   UNIT     CODE           ?PR?_CS_SCALE_ZEROPROC?CS_SCALE_PROC
00153AH   0015F9H   0000C0H   BYTE   UNIT     CODE           ?PR?CS_SCALEDISPLAY?CS_SCALEDISPLAY
0015FAH   0017E3H   0001EAH   BYTE   UNIT     CODE           ?PR?_CS_SCALEDISPLAY_FRESHBUF?CS_SCALEDISPLAY
0017E4H   0017F3H   000010H   BYTE   UNIT     CODE           ?PR?_CS_SCALEDISPLAY_LOOKUPTABLE?CS_SCALEDISPLAY
0017F4H   00181EH   00002BH   BYTE   UNIT     CODE           ?PR?_GENERATECHECKSUM?SYSTEM
00181FH   0018A3H   000085H   BYTE   UNIT     CODE           ?PR?BTCONTROLPROCESS?SYSTEM
0018A4H   0019E5H   000142H   BYTE   UNIT     CODE           ?PR?_LXRECVDATAFROMAPP?LXPROTOCOL
0019E6H   0019EEH   000009H   BYTE   UNIT     CODE           ?PR?_CHANGELXOPTSTATUS?LXPROTOCOL
0019EFH   001AA9H   0000BBH   BYTE   UNIT     CODE           ?PR?_BIGLITTLEENDIANSWAP?LXPROTOCOL
001AAAH   001DA4H   0002FBH   BYTE   UNIT     CODE           ?PR?LXOPTPROCESS?LXPROTOCOL
001DA5H   001DE7H   000043H   BYTE   UNIT     CODE           ?PR?_LXSETTINGDEVICERESPONE?LXPROTOCOL
001DE8H   001DFFH   000018H   BYTE   UNIT     CODE           ?PR?_YC_DELAY10MS?YC_UTILITIES
001E00H   001F20H   000121H   BYTE   UNIT     CODE           ?PR?_BT_CMDFIFOIN?BT_IPC
001F21H   001F54H   000034H   BYTE   UNIT     CODE           ?PR?_DMEMCPY?YC_UTILITIES
001F55H   001F86H   000032H   BYTE   UNIT     CODE           ?PR?_LXSENDRECVDATAACK?LXPROTOCOL
001F87H   001F98H   000012H   BYTE   UNIT     CODE           ?PR?_CS_SCALE_JUDGELOWBAT?CS_SCALE_PROC
001F99H   001FB6H   00001EH   BYTE   UNIT     CODE           ?PR?_XMEMSET?YC_UTILITIES
001FB7H   001FD4H   00001EH   BYTE   UNIT     CODE           ?PR?DELUSERDATA?LXPROTOCOL
001FD5H   00201BH   000047H   BYTE   UNIT     CODE           ?PR?_SPIFLASHOPERATOR?LXPROTOCOL
00201CH   002091H   000076H   BYTE   UNIT     CODE           ?PR?_SPIFLASHERASESECTOR?SPIFLASH
002092H   0020A3H   000012H   BYTE   UNIT     CODE           ?PR?SPIFLASHWAITBUSY?SPIFLASH
0020A4H   002164H   0000C1H   BYTE   UNIT     CODE           ?PR?_SPIFLASHWRITE?SPIFLASH
002165H   002190H   00002CH   BYTE   UNIT     CODE           ?PR?SPIFLASHWRITEENABLE?SPIFLASH
002191H   0021A8H   000018H   BYTE   UNIT     CODE           ?PR?_YC_DELAY1MS?YC_UTILITIES
0021A9H   0021F2H   00004AH   BYTE   UNIT     CODE           ?PR?SPIFLASHREADSR?SPIFLASH
0021F3H   00224BH   000059H   BYTE   UNIT     CODE           ?PR?_YC_UTILTIMERSTOP?YC_SYS
00224CH   00238EH   000143H   BYTE   UNIT     CODE           ?PR?YC_UTILTIMERPROCESS?YC_SYS
00238FH   00248CH   0000FEH   BYTE   UNIT     CODE           ?PR?_YC_UARTSENDDATA?YC_PERIPHERAL
00248DH   0024C3H   000037H   BYTE   UNIT     CODE           ?PR?_XMEMCPY?YC_UTILITIES
0024C4H   0027CEH   00030BH   BYTE   UNIT     CODE           ?PR?_CS_COMMTO1186_SENDCMD?CS_COMMTO1186
0027CFH   002869H   00009BH   BYTE   UNIT     CODE           ?PR?_SPIFLASHREAD?SPIFLASH
00286AH   00296CH   000103H   BYTE   UNIT     CODE           ?PR?_BT_EVENTFIFOOUT?BT_IPC
00296DH   00299AH   00002EH   BYTE   UNIT     CODE           ?PR?BT_GETEVTFIFODEPTH?BT_IPC
00299BH   0029C8H   00002EH   BYTE   UNIT     CODE           ?PR?BT_GETCMDFIFODEPTH?BT_IPC
0029C9H   0029D1H   000009H   BYTE   UNIT     CODE           ?PR?BT_CMDFIFOEMPTY?BT_IPC
0029D2H   002A06H   000035H   BYTE   UNIT     CODE           ?PR?_BT_CMDFIFOFULL?BT_IPC
002A07H   002A0DH   000007H   BYTE   UNIT     CODE           ?PR?YC_ICE_BREAK?YC_UTILITIES
002A0EH   002A44H   000037H   BYTE   UNIT     CODE           ?PR?_CMEMCPY?YC_UTILITIES
002A45H   002A9AH   000056H   BYTE   UNIT     CODE           ?PR?_YC_MEMCHECKEMPTY?YC_UTILITIES
002A9BH   002AC0H   000026H   BYTE   UNIT     CODE           ?PR?_YC_DELAY1S?YC_UTILITIES
002AC1H   002B26H   000066H   BYTE   UNIT     CODE           ?PR?CS_SCALE_PROC?CS_SCALE_PROC
002B27H   002BBAH   000094H   BYTE   UNIT     CODE           ?PR?_CS_SCALE_STANDBYPROC?CS_SCALE_PROC
002BBBH   002CD9H   00011FH   BYTE   UNIT     CODE           ?PR?_CS_SCALE_TIMEOUTPROC?CS_SCALE_PROC
002CDAH   002CE4H   00000BH   BYTE   UNIT     CODE           ?PR?_CS_SCALE_1186COMSEND?CS_COMMTO1186
002CE5H   002DC7H   0000E3H   BYTE   UNIT     CODE           ?PR?CS_SCALE_POWERONPROC?CS_SCALE_PROC
002DC8H   002DCDH   000006H   BYTE   UNIT     CODE           ?PR?CS_IF1186COMSUCESS?CS_COMMTO1186
002DCEH   002E74H   0000A7H   BYTE   UNIT     CODE           ?PR?_CS_SCALE_STEADYPROC?CS_SCALE_PROC
002E75H   002EDCH   000068H   BYTE   UNIT     CODE           ?PR?CS_SCALE_RETURNLOCK?CS_SCALE_PROC
002EDDH   002F06H   00002AH   BYTE   UNIT     CODE           ?PR?CS_SCALE_WEIGHTPROC?CS_SCALE_PROC
002F07H   003072H   00016CH   BYTE   UNIT     CODE           ?PR?_CS_SCALE_JUDGESTEADY?CS_SCALE_PROC
003073H   0030D3H   000061H   BYTE   UNIT     CODE           ?PR?_CS_SCALE_GETDELTAAD?CS_SCALE_PROC
0030D4H   003483H   0003B0H   BYTE   UNIT     CODE           ?PR?_CS_SCALE_ADCFILTER?CS_SCALE_PROC
003484H   0035D4H   000151H   BYTE   UNIT     CODE           ?PR?_CS_SCALE_GETWEIGHT?CS_SCALE_PROC
0035D5H   003642H   00006EH   BYTE   UNIT     CODE           ?PR?_CS_SCALE_LOCKPROC?CS_SCALE_PROC
003643H   00368DH   00004BH   BYTE   UNIT     CODE           ?PR?_CS_SCALE_JUDGEOVERLOAD?CS_SCALE_PROC
00368EH   0036C3H   000036H   BYTE   UNIT     CODE           ?PR?_CS_MEMORYWEIGHTCLEAR_TIMER?CS_SCALE_PROC
0036C4H   003777H   0000B4H   BYTE   UNIT     CODE           ?PR?CS_1186COM_READMACADRESS_PROC?CS_COMMTO1186
003778H   00384FH   0000D8H   BYTE   UNIT     CODE           ?PR?CS_1186COM_READADC_PROC?CS_COMMTO1186
003850H   003900H   0000B1H   BYTE   UNIT     CODE           ?PR?CS_1186COM_READADZERO_PROC?CS_COMMTO1186
003901H   00395AH   00005AH   BYTE   UNIT     CODE           ?PR?_CS_COMMTO1186_XOR?CS_COMMTO1186
00395BH   0039ABH   000051H   BYTE   UNIT     CODE           ?PR?CS_SCALEDISPLAY_DEBUG?CS_SCALEDISPLAY
0039ACH   003A16H   00006BH   BYTE   UNIT     CODE           ?PR?_CS_SCALEDISPLAY_HEXTOBCD?CS_SCALEDISPLAY
003A17H   003AADH   000097H   BYTE   UNIT     CODE           ?PR?CS_SCALEDISPLAY_LCDBUF_RSHIFT4?CS_SCALEDISPLAY
003AAEH   003ABBH   00000EH   BYTE   UNIT     CODE           ?PR?CS_SCALEDISPLAY_LCDSHOWNULL?CS_SCALEDISPLAY
003ABCH   003ACAH   00000FH   BYTE   UNIT     CODE           ?PR?CS_SCALEDISPLAY_LCDSHOWALL?CS_SCALEDISPLAY
003ACBH   003AF3H   000029H   BYTE   UNIT     CODE           ?PR?CS_SCALEDISPLAY_LCDBACKUP?CS_SCALEDISPLAY
003AF4H   003D4DH   00025AH   BYTE   UNIT     CODE           ?PR?SENDHISTORYDATA?LXPROTOCOL
003D4EH   003DA7H   00005AH   BYTE   UNIT     CODE           ?PR?QUEUEPOP?LXPROTOCOL
003DA8H   003E05H   00005EH   BYTE   UNIT     CODE           ?PR?_QUEUEPUSH?LXPROTOCOL
003E06H   003F01H   0000FCH   BYTE   UNIT     CODE           ?PR?_CAL_CRC32_MULTIPLE?CRC32
003F02H   003F0BH   00000AH   BYTE   UNIT     CODE           ?PR?QUEUEINIT?LXPROTOCOL

* * * * * * * * * * *  X D A T A   M E M O R Y  * * * * * * * * * * * * *
004A00H   004A01H   000002H   BYTE   OFFS..   XDATA          ?XD?RETATION_VARIABLE?10
004A02H   004A03H   000002H   BYTE   OFFS..   XDATA          ?XD?RETATION_VARIABLE?11
004A04H   004A05H   000002H   BYTE   OFFS..   XDATA          ?XD?RETATION_VARIABLE?5
004A06H   004A07H   000002H   BYTE   OFFS..   XDATA          ?XD?RETATION_VARIABLE?6
004A08H   004BFFH   0001F8H   ---    ---      **GAP**
004C00H   004C05H   000006H   BYTE   OFFS..   XDATA          ?XD?RETATION_VARIABLE?3
004C06H   004C0FH   00000AH   BYTE   OFFS..   XDATA          ?XD?RETATION_VARIABLE?1
004C10H   004C4EH   00003FH   BYTE   OFFS..   XDATA          ?XD?RETATION_VARIABLE?8
004C4FH   004C58H   00000AH   ---    ---      **GAP**
004C59H   004C59H   000001H   BYTE   OFFS..   XDATA          ?XD?RETATION_VARIABLE?7
004C5AH   004C5AH   000001H   BYTE   OFFS..   XDATA          ?XD?RETATION_VARIABLE?9
004C5BH   004C5BH   000001H   BYTE   OFFS..   XDATA          ?XD?RETATION_VARIABLE?13
004C5CH   004C5CH   000001H   BYTE   OFFS..   XDATA          ?XD?RETATION_VARIABLE?4
004C5DH   004C5DH   000001H   BYTE   OFFS..   XDATA          ?XD?RETATION_VARIABLE?12
004C5EH   004C61H   000004H   BYTE   OFFS..   XDATA          ?XD?RETATION_VARIABLE?0
004C62H   004C62H   000001H   BYTE   OFFS..   XDATA          ?XD?RETATION_VARIABLE?14
004C63H   004C7BH   000019H   BYTE   OFFS..   XDATA          ?XD?RETATION_VARIABLE?2
004C7CH   004C7FH   000004H   ---    ---      **GAP**
004C80H   004CDAH   00005BH   BYTE   UNIT     XDATA          ?XD?CS_SCALE_PROC
004CDBH   004D17H   00003DH   BYTE   UNIT     XDATA          ?XD?YC_SYS
004D18H   004D44H   00002DH   BYTE   UNIT     XDATA          ?XD?CS_SCALEDISPLAY
004D45H   004D68H   000024H   BYTE   UNIT     XDATA          ?XD?CS_COMMTO1186
004D69H   004D81H   000019H   BYTE   UNIT     XDATA          ?XD?BTCONTROLPROCESS?SYSTEM
004D82H   004D90H   00000FH   BYTE   UNIT     XDATA          ?XD?_CS_COMMTO1186_SENDCMD?CS_COMMTO1186
004D91H   004D9FH   00000FH   BYTE   UNIT     XDATA          ?XD?_CAL_CRC32_MULTIPLE?CRC32
004DA0H   004DADH   00000EH   BYTE   UNIT     XDATA          ?XD?_CS_SCALE_GETWEIGHT?CS_SCALE_PROC
004DAEH   004DB7H   00000AH   BYTE   UNIT     XDATA          ?XD?_YC_UARTSENDDATA?YC_PERIPHERAL
004DB8H   004DC1H   00000AH   BYTE   UNIT     XDATA          ?XD?_BIGLITTLEENDIANSWAP?LXPROTOCOL
004DC2H   004DCBH   00000AH   BYTE   UNIT     XDATA          ?XD?SENDHISTORYDATA?LXPROTOCOL
004DCCH   004DD4H   000009H   BYTE   UNIT     XDATA          ?XD?_YC_UARTRECIVEDATAEXPECTED?YC_PERIPHERAL
004DD5H   004DDCH   000008H   BYTE   UNIT     XDATA          ?XD?_YC_UTILTIMERSTARTMS?YC_SYS
004DDDH   004DE4H   000008H   BYTE   UNIT     XDATA          ?XD?_SPIFLASHWRITE?SPIFLASH
004DE5H   004DECH   000008H   BYTE   UNIT     XDATA          ?XD?_SPIFLASHREAD?SPIFLASH
004DEDH   004DF4H   000008H   BYTE   UNIT     XDATA          ?XD?_CS_SCALE_ZEROPROC?CS_SCALE_PROC
004DF5H   004DFCH   000008H   BYTE   UNIT     XDATA          ?XD?_CS_SCALE_CALIPROC?CS_SCALE_PROC
004DFDH   004E04H   000008H   BYTE   UNIT     XDATA          ?XD?CS_SCALEKEY
004E05H   004E0BH   000007H   BYTE   UNIT     XDATA          ?XD?_BT_CMDFIFOIN?BT_IPC
004E0CH   004E12H   000007H   BYTE   UNIT     XDATA          ?XD?_CS_SCALE_ADCFILTER?CS_SCALE_PROC
004E13H   004E18H   000006H   BYTE   UNIT     XDATA          ?XD?_CS_SCALE_STEADYPROC?CS_SCALE_PROC
004E19H   004E1EH   000006H   BYTE   UNIT     XDATA          ?XD?_CS_SCALEDISPLAY_HEXTOBCD?CS_SCALEDISPLAY
004E1FH   004E24H   000006H   BYTE   UNIT     XDATA          ?XD?_LXRECVDATAFROMAPP?LXPROTOCOL
004E25H   004E29H   000005H   BYTE   UNIT     XDATA          ?XD?_BT_EVENTFIFOOUT?BT_IPC
004E2AH   004E2EH   000005H   BYTE   UNIT     XDATA          ?XD?CS_SCALEDISPLAY_DEBUG?CS_SCALEDISPLAY
004E2FH   004E32H   000004H   BYTE   UNIT     XDATA          ?XD?_SPIFLASHERASESECTOR?SPIFLASH
004E33H   004E36H   000004H   BYTE   UNIT     XDATA          ?XD?_YC_MEMCHECKEMPTY?YC_UTILITIES
004E37H   004E3AH   000004H   BYTE   UNIT     XDATA          ?XD?_CS_SCALE_JUDGESTEADY?CS_SCALE_PROC
004E3BH   004E3EH   000004H   BYTE   UNIT     XDATA          ?XD?CRC32
004E3FH   004E41H   000003H   BYTE   UNIT     XDATA          ?XD?SYSTEM
004E42H   004E44H   000003H   BYTE   UNIT     XDATA          ?XD?_GENERATECHECKSUM?SYSTEM
004E45H   004E47H   000003H   BYTE   UNIT     XDATA          ?XD?_BT_CMDFIFOFULL?BT_IPC
004E48H   004E4AH   000003H   BYTE   UNIT     XDATA          ?XD?_CS_SCALE_GETDELTAAD?CS_SCALE_PROC
004E4BH   004E4DH   000003H   BYTE   UNIT     XDATA          ?XD?CS_1186COM_READMACADRESS_PROC?CS_COMMTO1186
004E4EH   004E50H   000003H   BYTE   UNIT     XDATA          ?XD?_CS_COMMTO1186_XOR?CS_COMMTO1186
004E51H   004E53H   000003H   BYTE   UNIT     XDATA          ?XD?QUEUEPOP?LXPROTOCOL
004E54H   004E56H   000003H   BYTE   UNIT     XDATA          ?XD?_QUEUEPUSH?LXPROTOCOL
004E57H   004E58H   000002H   BYTE   UNIT     XDATA          ?XD?CS_SCALE_RETURNLOCK?CS_SCALE_PROC
004E59H   004E59H   000001H   BYTE   UNIT     XDATA          ?XD?YC_UTILTIMERINIT?YC_SYS
004E5AH   004E5AH   000001H   BYTE   UNIT     XDATA          ?XD?SPIFLASHREADSR?SPIFLASH
004E5BH   004E5BH   000001H   BYTE   UNIT     XDATA          ?XD?_CS_SCALEDISPLAY_FRESHBUF?CS_SCALEDISPLAY
004E5CH   004E5CH   000001H   BYTE   UNIT     XDATA          ?XD?RETATION_VARIABLE
004E5DH   004E5DH   000001H   BYTE   UNIT     XDATA          ?XD?LXOPTPROCESS?LXPROTOCOL
004E5EH   004E5EH   000001H   BYTE   UNIT     XDATA          ?XD?LXPROTOCOL
004E5FH   004E5FH   000001H   BYTE   UNIT     XDATA          ?XD?_SPIFLASHOPERATOR?LXPROTOCOL



PUBLIC SYMBOLS OF MODULE:  OUT\FW (MAIN)


      VALUE       CLASS    TYPE      PUBLIC SYMBOL NAME
      =================================================
      02004D91H   XDATA    BYTE      ?_cal_crc32_multiple?BYTE
      00000021H   DATA     BYTE      ?_cmemcpy?BYTE
      00000010H   DATA     BYTE      ?_dmemcpy?BYTE
      02004DE5H   XDATA    BYTE      ?_SPIFlashRead?BYTE
      02004DDDH   XDATA    BYTE      ?_SPIFlashWrite?BYTE
      00000017H   DATA     BYTE      ?_xmemcpy?BYTE
      02004DD5H   XDATA    BYTE      ?_YC_UtilTimerStartMs?BYTE
      0100036FH   CODE     ---       ?C?CCASE
      01000112H   CODE     ---       ?C?CLDOPTR
      010000F9H   CODE     ---       ?C?CLDPTR
      00000000H   NUMBER   ---       ?C?CODESEG
      010000D3H   CODE     ---       ?C?COPY
      01000151H   CODE     ---       ?C?CSTOPTR
      0100013FH   CODE     ---       ?C?CSTPTR
      010003C2H   CODE     ---       ?C?ICALL
      010003C6H   CODE     ---       ?C?ICALL2
      01000395H   CODE     ---       ?C?ICASE
      010001C8H   CODE     ---       ?C?ILDIX
      010003C8H   CODE     ---       ?C?LIMUL
      010001DEH   CODE     ---       ?C?LMUL
      0100031FH   CODE     ---       ?C?LSHL
      0100033EH   CODE     ---       ?C?LSTKXDATA
      01000332H   CODE     ---       ?C?LSTXDATA
      01000173H   CODE     ---       ?C?UIDIV
      010002FBH   CODE     ---       ?C?ULCMP
      01000269H   CODE     ---       ?C?ULDIV
      0100030CH   CODE     ---       ?C?ULSHR
      00000000H   NUMBER   ---       ?C?XDATASEG
      0100043CH   CODE     ---       ?C_START
      01000000H   CODE     ---       ?C_STARTUP
      00000020H.0 BIT      BIT       ?CS_Scale_PowerOnProc?BIT
      010029D2H   CODE     ---       _BT_CmdFifoFull
      01001E00H   CODE     ---       _BT_CmdFifoIn
      0100286AH   CODE     ---       _BT_EventFifoOut
      01003E06H   CODE     ---       _cal_crc32_multiple
      010019E6H   CODE     ---       _changeLxOptStatus
      01002A0EH   CODE     ---       _cmemcpy
      010024C4H   CODE     ---       _CS_CommTo1186_SendCmd
      01003901H   CODE     ---       _CS_CommTo1186_Xor
      0100368EH   CODE     ---       _CS_MemoryWeightClear_Timer
      01002CDAH   CODE     ---       _CS_Scale_1186ComSend
      010030D4H   CODE     ---       _CS_Scale_AdcFilter
      01000A38H   CODE     ---       _CS_Scale_CaliProc
      01003073H   CODE     ---       _CS_Scale_GetDeltaAD
      01003484H   CODE     ---       _CS_Scale_GetWeight
      01001F87H   CODE     ---       _CS_Scale_JudgeLowBat
      01003643H   CODE     ---       _CS_Scale_JudgeOverLoad
      01002F07H   CODE     ---       _CS_Scale_JudgeSteady
      010035D5H   CODE     ---       _CS_Scale_LockProc
      01002B27H   CODE     ---       _CS_Scale_StandbyProc
      01002DCEH   CODE     ---       _CS_Scale_SteadyProc
      01002BBBH   CODE     ---       _CS_Scale_TimeOutProc
      010012F1H   CODE     ---       _CS_Scale_ZeroProc
      010015FAH   CODE     ---       _CS_ScaleDisplay_FreshBuf
      010039ACH   CODE     ---       _CS_ScaleDisplay_HexToBcd
      010017E4H   CODE     ---       _CS_ScaleDisplay_LookUpTable
      01000F15H   CODE     ---       _CS_SoftTimer
      01001F21H   CODE     ---       _dmemcpy
      010017F4H   CODE     ---       _generateChecksum
      010018A4H   CODE     ---       _lxRecvDataFromApp
      01003DA8H   CODE     ---       _QueuePush
      0100201CH   CODE     ---       _SPIFlashEraseSector
      01001FD5H   CODE     ---       _SpiFlashOperator
      010027CFH   CODE     ---       _SPIFlashRead
      010020A4H   CODE     ---       _SPIFlashWrite
      0100248DH   CODE     ---       _xmemcpy
      01001F99H   CODE     ---       _xmemset
      01001DE8H   CODE     ---       _YC_Delay10ms
      01002191H   CODE     ---       _YC_Delay1ms
      01002A9BH   CODE     ---       _YC_Delay1S
      01001084H   CODE     ---       _YC_GPIOGetInputStatus
      01002A45H   CODE     ---       _YC_MemCheckEmpty
      010007A8H   CODE     ---       _YC_UARTReciveDataExpected
      0100238FH   CODE     ---       _YC_UARTSendData
      0100117CH   CODE     ---       _YC_UtilTimerStartMs
      010021F3H   CODE     ---       _YC_UtilTimerStop
      00000020H.1 BIT      BIT       B_Debug_Test
      02004CD7H   XDATA    BYTE      B_Weight_AdOk
      02004C5BH   XDATA    BYTE      bleConnStatus
      010029C9H   CODE     ---       BT_CmdFifoEmpty
      02004A00H   XDATA    WORD      BT_CmdRptr
      02004A02H   XDATA    WORD      BT_CmdWptr
      02004A04H   XDATA    WORD      BT_EventRptr
      02004A06H   XDATA    WORD      BT_EventWptr
      0100299BH   CODE     ---       BT_GetCmdFifoDepth
      0100296DH   CODE     ---       BT_GetEvtFifoDepth
      02004C63H   XDATA    ---       btCmdBuf
      0100181FH   CODE     ---       BTControlProcess
      01003778H   CODE     ---       CS_1186Com_ReadAdc_Proc
      01003850H   CODE     ---       CS_1186Com_ReadAdZero_Proc
      010036C4H   CODE     ---       CS_1186Com_ReadMacAdress_Proc
      010005E2H   CODE     ---       CS_1186Com_ReadTime_Proc
      01000701H   CODE     ---       CS_1186Com_Reset_Proc
      0100052DH   CODE     ---       CS_1186Com_SetLcd_Proc
      0100071BH   CODE     ---       CS_1186Com_SetOpenWeight_Proc
      0100066DH   CODE     ---       CS_1186Com_SetSleepMode_Proc
      01002DC8H   CODE     ---       CS_If1186ComSucess
      01000937H   CODE     ---       CS_KeyScan
      02004D28H   XDATA    ---       CS_Lcd_Send_Data
      02004D1DH   XDATA    ---       CS_Lcd_Send_Data_BAK
      02004D23H   XDATA    ---       CS_lcd_showbuf
      02004D2EH   XDATA    ---       CS_Lcd_Table
      010004E5H   CODE     ---       CS_Scale_1186Com
      01000F53H   CODE     ---       CS_Scale_ChangeUnit
      010012BBH   CODE     ---       CS_Scale_PowerOn
      01002CE5H   CODE     ---       CS_Scale_PowerOnProc
      01002AC1H   CODE     ---       CS_Scale_Proc
      01002E75H   CODE     ---       CS_Scale_ReturnLock
      01002EDDH   CODE     ---       CS_Scale_WeightProc
      0100153AH   CODE     ---       CS_ScaleDisplay
      0100395BH   CODE     ---       CS_ScaleDisplay_Debug
      01003ACBH   CODE     ---       CS_ScaleDisplay_LcdBackup
      01003A17H   CODE     ---       CS_ScaleDisplay_LcdBuf_rShift4
      01000FC3H   CODE     ---       CS_ScaleDisplay_LcdRestore
      01003ABCH   CODE     ---       CS_ScaleDisplay_LcdShowAll
      01000FA8H   CODE     ---       CS_ScaleDisplay_LcdShowNoDigit
      01003AAEH   CODE     ---       CS_ScaleDisplay_LcdShowNull
      01000F73H   CODE     ---       CS_ScaleDisplay_SteadyFlash
      02004C06H   XDATA    ---       deviceInfo
      02004C5DH   XDATA    BYTE      handleIndicationConfirm
      02004C10H   XDATA    ---       historyUserData
      01001AAAH   CODE     ---       lxOptProcess
      02004C5CH   XDATA    BYTE      lxOptStatus
      010004C2H   CODE     ---       main
      02004C59H   XDATA    BYTE      notifyValueUUIDA621
      02004C5AH   XDATA    BYTE      notifyValueUUIDA625
      01003F02H   CODE     ---       QueueInit
      02004CD3H   XDATA    ---       R_1186_RTC
      02004CDAH   XDATA    BYTE      R_1186sys_state
      02004CD8H   XDATA    WORD      R_AD_Original
      02004CC7H   XDATA    WORD      R_Debug_temp
      02004CC2H   XDATA    BYTE      R_Display_Err
      02004CC5H   XDATA    BYTE      R_Scale_state
      02004CC6H   XDATA    BYTE      R_Selet_Unit
      02004C62H   XDATA    BYTE      R_Test
      02004CC9H   XDATA    ---       R_UnitWeight
      02004D55H   XDATA    ---       R_Weight_Com_Coo
      02004CC0H   XDATA    WORD      R_Weight_Lock
      02004CC3H   XDATA    WORD      R_Weight_Mem
      02004C00H   XDATA    ---       sensor_data
      010008F3H   CODE     ---       SoftTimer_10mSCallback
      02004E41H   XDATA    BYTE      SoftTimer_10msTimerID
      02004E40H   XDATA    BYTE      SoftTimer_1STimerID
      010021A9H   CODE     ---       SPIFlashReadSR
      01002097H   CODE     ---       SPIFlashWaitBusy
      01002165H   CODE     ---       SPIFlashWriteEnable
      02004E5CH   XDATA    BYTE      sys_state
      010005A2H   CODE     ---       SysStatusProcess
      01000FECH   CODE     ---       systemInit
      02004D45H   XDATA    ---       uartRcvBuf
      02004D68H   XDATA    BYTE      uartTimeoutCnt
      02004D58H   XDATA    ---       uartTxBuf
      02004C5EH   XDATA    LONG      UTCTime
      01002A07H   CODE     ---       YC_Ice_break
      01000592H   CODE     ---       YC_UARTClearBuffer
      0100065BH   CODE     ---       YC_UARTWaitSendData
      02004CDBH   XDATA    ---       YC_UtilTimer
      010010B9H   CODE     ---       YC_UtilTimerInit
      0100224CH   CODE     ---       YC_UtilTimerProcess



SYMBOL TABLE OF MODULE:  OUT\FW (MAIN)

      VALUE       REP       CLASS    TYPE      SYMBOL NAME
      ====================================================
      ---         MODULE    ---      ---       MAIN
      010004C2H   PUBLIC    CODE     ---       main

      010004C2H   BLOCK     CODE     ---       LVL=0
      010004C2H   LINE      ---      ---       #20
      010004C2H   LINE      ---      ---       #21
      010004C2H   LINE      ---      ---       #22
      010004C8H   LINE      ---      ---       #23
      010004CBH   LINE      ---      ---       #24
      010004CBH   LINE      ---      ---       #25
      010004CEH   LINE      ---      ---       #26
      010004D1H   LINE      ---      ---       #28
      010004D3H   LINE      ---      ---       #29
      010004DAH   LINE      ---      ---       #30
      010004DDH   LINE      ---      ---       #31
      010004DFH   LINE      ---      ---       #32
      010004E2H   LINE      ---      ---       #33
      010004E2H   LINE      ---      ---       #34
      ---         BLOCKEND  ---      ---       LVL=0

      ---         MODULE    ---      ---       SYSTEM
      02004E41H   PUBLIC    XDATA    BYTE      SoftTimer_10msTimerID
      02004E40H   PUBLIC    XDATA    BYTE      SoftTimer_1STimerID
      010005A2H   PUBLIC    CODE     ---       SysStatusProcess
      0100181FH   PUBLIC    CODE     ---       BTControlProcess
      010017F4H   PUBLIC    CODE     ---       _generateChecksum
      01000FECH   PUBLIC    CODE     ---       systemInit
      010008F3H   PUBLIC    CODE     ---       SoftTimer_10mSCallback

      010008F3H   BLOCK     CODE     ---       LVL=0
      010008F3H   LINE      ---      ---       #44
      010008F3H   LINE      ---      ---       #45
      010008F3H   BLOCK     CODE     NEAR LAB  LVL=1
      010008F3H   LINE      ---      ---       #47
      0100090AH   LINE      ---      ---       #49
      01000913H   LINE      ---      ---       #50
      01000916H   LINE      ---      ---       #51
      01000916H   LINE      ---      ---       #54
      0100091FH   LINE      ---      ---       #55
      01000924H   LINE      ---      ---       #57
      01000924H   LINE      ---      ---       #58
      01000929H   LINE      ---      ---       #59
      0100092EH   LINE      ---      ---       #60
      01000933H   LINE      ---      ---       #61
      01000933H   LINE      ---      ---       #63
      02004E3FH   SYMBOL    XDATA    VOID      count
      ---         BLOCKEND  CODE     ---       LVL=1
      ---         BLOCKEND  CODE     ---       LVL=0

      01000FECH   BLOCK     CODE     ---       LVL=0
      01000FECH   LINE      ---      ---       #69
      01000FECH   LINE      ---      ---       #70
      01000FECH   LINE      ---      ---       #71
      01000FF1H   LINE      ---      ---       #72
      01000FF9H   LINE      ---      ---       #73
      01000FF9H   LINE      ---      ---       #74
      01000FFFH   LINE      ---      ---       #75
      01001004H   LINE      ---      ---       #77
      01001007H   LINE      ---      ---       #79
      0100100CH   LINE      ---      ---       #80
      01001011H   LINE      ---      ---       #81
      01001019H   LINE      ---      ---       #82
      01001019H   LINE      ---      ---       #83
      01001024H   LINE      ---      ---       #84
      01001024H   LINE      ---      ---       #85
      0100102CH   LINE      ---      ---       #87
      0100102EH   LINE      ---      ---       #89
      01001044H   LINE      ---      ---       #90
      01001046H   LINE      ---      ---       #92
      01001048H   LINE      ---      ---       #93
      01001048H   LINE      ---      ---       #94
      01001054H   LINE      ---      ---       #95
      01001054H   LINE      ---      ---       #96
      0100105AH   LINE      ---      ---       #97
      0100105EH   LINE      ---      ---       #98
      01001060H   LINE      ---      ---       #100
      01001076H   LINE      ---      ---       #106
      01001078H   LINE      ---      ---       #107
      01001078H   LINE      ---      ---       #108
      0100107EH   LINE      ---      ---       #109
      0100107EH   LINE      ---      ---       #110
      0100107EH   LINE      ---      ---       #111
      01001083H   LINE      ---      ---       #112
      ---         BLOCKEND  ---      ---       LVL=0

      010017F4H   BLOCK     CODE     ---       LVL=0
      010017F4H   LINE      ---      ---       #114
      010017FFH   LINE      ---      ---       #115
      010017FFH   BLOCK     CODE     NEAR LAB  LVL=1
      010017FFH   LINE      ---      ---       #117
      01001801H   LINE      ---      ---       #118
      01001807H   LINE      ---      ---       #119
      0100181CH   LINE      ---      ---       #120
      0100181EH   LINE      ---      ---       #121
      0100181EH   LINE      ---      ---       #122
      00000007H   SYMBOL    DATA     VOID      result
      ---         BLOCKEND  CODE     ---       LVL=1
      ---         BLOCKEND  CODE     ---       LVL=0

      0100181FH   BLOCK     CODE     ---       LVL=0
      0100181FH   LINE      ---      ---       #124
      0100181FH   LINE      ---      ---       #125
      0100181FH   BLOCK     CODE     NEAR LAB  LVL=1
      0100181FH   LINE      ---      ---       #128
      01001828H   LINE      ---      ---       #129
      0100182EH   LINE      ---      ---       #130
      0100182EH   LINE      ---      ---       #132
      01001842H   LINE      ---      ---       #133
      01001842H   LINE      ---      ---       #134
      01001842H   LINE      ---      ---       #135
      01001842H   LINE      ---      ---       #136
      01001847H   LINE      ---      ---       #137
      0100184BH   LINE      ---      ---       #138
      0100184FH   LINE      ---      ---       #139
      01001850H   LINE      ---      ---       #140
      01001850H   LINE      ---      ---       #141
      01001855H   LINE      ---      ---       #142
      0100185AH   LINE      ---      ---       #143
      0100185BH   LINE      ---      ---       #144
      0100185BH   LINE      ---      ---       #145
      01001863H   LINE      ---      ---       #146
      01001863H   LINE      ---      ---       #147
      01001863H   LINE      ---      ---       #148
      0100186BH   LINE      ---      ---       #149
      0100186BH   LINE      ---      ---       #150
      01001873H   LINE      ---      ---       #151
      01001875H   LINE      ---      ---       #152
      01001879H   LINE      ---      ---       #153
      01001879H   LINE      ---      ---       #154
      01001881H   LINE      ---      ---       #155
      01001881H   LINE      ---      ---       #157
      01001896H   LINE      ---      ---       #160
      01001896H   LINE      ---      ---       #161
      0100189CH   LINE      ---      ---       #162
      0100189CH   LINE      ---      ---       #163
      0100189DH   LINE      ---      ---       #164
      0100189DH   LINE      ---      ---       #165
      0100189DH   LINE      ---      ---       #166
      0100189DH   LINE      ---      ---       #167
      010018A3H   LINE      ---      ---       #168
      010018A3H   LINE      ---      ---       #169
      010018A3H   LINE      ---      ---       #170
      010018A3H   LINE      ---      ---       #171
      02004D69H   SYMBOL    XDATA    VOID      event
      ---         BLOCKEND  CODE     ---       LVL=1
      ---         BLOCKEND  CODE     ---       LVL=0

      010005A2H   BLOCK     CODE     ---       LVL=0
      010005A2H   LINE      ---      ---       #174
      010005A2H   LINE      ---      ---       #175
      010005A2H   LINE      ---      ---       #176
      010005A9H   LINE      ---      ---       #177
      010005AFH   LINE      ---      ---       #178
      010005AFH   LINE      ---      ---       #179
      010005B1H   LINE      ---      ---       #180
      010005B3H   LINE      ---      ---       #181
      010005B9H   LINE      ---      ---       #183
      010005BDH   LINE      ---      ---       #184
      010005C1H   LINE      ---      ---       #185
      010005CAH   LINE      ---      ---       #188
      010005CAH   LINE      ---      ---       #189
      010005CAH   LINE      ---      ---       #190
      010005D1H   LINE      ---      ---       #191
      010005D3H   LINE      ---      ---       #192
      010005D5H   LINE      ---      ---       #193
      010005DBH   LINE      ---      ---       #194
      010005DCH   LINE      ---      ---       #195
      010005DCH   LINE      ---      ---       #196
      010005E1H   LINE      ---      ---       #197
      010005E1H   LINE      ---      ---       #198
      ---         BLOCKEND  ---      ---       LVL=0

      ---         MODULE    ---      ---       YC_SYS
      02004CDBH   PUBLIC    XDATA    ---       YC_UtilTimer
      0100224CH   PUBLIC    CODE     ---       YC_UtilTimerProcess
      010021F3H   PUBLIC    CODE     ---       _YC_UtilTimerStop
      02004DD5H   PUBLIC    XDATA    BYTE      ?_YC_UtilTimerStartMs?BYTE
      0100117CH   PUBLIC    CODE     ---       _YC_UtilTimerStartMs
      010010B9H   PUBLIC    CODE     ---       YC_UtilTimerInit

      010010B9H   BLOCK     CODE     ---       LVL=0
      010010B9H   LINE      ---      ---       #8
      010010B9H   LINE      ---      ---       #9
      010010B9H   BLOCK     CODE     NEAR LAB  LVL=1
      010010B9H   LINE      ---      ---       #12
      010010BEH   LINE      ---      ---       #13
      0100113BH   LINE      ---      ---       #14
      0100114AH   LINE      ---      ---       #15
      0100115EH   LINE      ---      ---       #16
      01001173H   LINE      ---      ---       #17
      0100117BH   LINE      ---      ---       #19
      02004E59H   SYMBOL    XDATA    VOID      i
      ---         BLOCKEND  CODE     ---       LVL=1
      ---         BLOCKEND  CODE     ---       LVL=0

      0100117CH   BLOCK     CODE     ---       LVL=0
      0100117CH   LINE      ---      ---       #44
      01001184H   LINE      ---      ---       #45
      01001184H   BLOCK     CODE     NEAR LAB  LVL=1
      01001184H   LINE      ---      ---       #46
      01001189H   LINE      ---      ---       #49
      01001190H   LINE      ---      ---       #50
      01001192H   LINE      ---      ---       #51
      01001192H   LINE      ---      ---       #52
      0100119CH   LINE      ---      ---       #53
      010011ADH   LINE      ---      ---       #54
      010011B8H   LINE      ---      ---       #55
      010011BFH   LINE      ---      ---       #56
      010011C1H   LINE      ---      ---       #57
      010011C1H   LINE      ---      ---       #58
      010011C7H   LINE      ---      ---       #59
      010011C9H   LINE      ---      ---       #60
      010011E3H   LINE      ---      ---       #61
      010011F9H   LINE      ---      ---       #62
      010012B9H   LINE      ---      ---       #63
      010012BAH   LINE      ---      ---       #64
      02004DDCH   SYMBOL    XDATA    VOID      i
      ---         BLOCKEND  CODE     ---       LVL=1
      ---         BLOCKEND  CODE     ---       LVL=0

      010021F3H   BLOCK     CODE     ---       LVL=0
      010021F3H   LINE      ---      ---       #66
      010021F5H   LINE      ---      ---       #68
      0100220CH   LINE      ---      ---       #69
      0100220EH   LINE      ---      ---       #70
      01002221H   LINE      ---      ---       #71
      01002235H   LINE      ---      ---       #72
      0100224AH   LINE      ---      ---       #73
      0100224BH   LINE      ---      ---       #74
      ---         BLOCKEND  ---      ---       LVL=0

      0100224CH   BLOCK     CODE     ---       LVL=0
      0100224CH   LINE      ---      ---       #76
      0100224CH   BLOCK     CODE     NEAR LAB  LVL=1
      0100224CH   LINE      ---      ---       #97
      010022C9H   LINE      ---      ---       #98
      010022CCH   LINE      ---      ---       #99
      010022E1H   LINE      ---      ---       #100
      0100234DH   LINE      ---      ---       #101
      0100234DH   LINE      ---      ---       #102
      01002365H   LINE      ---      ---       #103
      01002383H   LINE      ---      ---       #104
      01002383H   LINE      ---      ---       #105
      01002383H   LINE      ---      ---       #106
      0100238EH   LINE      ---      ---       #109
      0000001FH   SYMBOL    DATA     VOID      i
      ---         BLOCKEND  CODE     ---       LVL=1
      ---         BLOCKEND  CODE     ---       LVL=0

      ---         MODULE    ---      ---       YC_PERIPHERAL
      01000592H   PUBLIC    CODE     ---       YC_UARTClearBuffer
      010007A8H   PUBLIC    CODE     ---       _YC_UARTReciveDataExpected
      0100065BH   PUBLIC    CODE     ---       YC_UARTWaitSendData
      0100238FH   PUBLIC    CODE     ---       _YC_UARTSendData
      01001084H   PUBLIC    CODE     ---       _YC_GPIOGetInputStatus

      01001084H   BLOCK     CODE     ---       LVL=0
      01001084H   LINE      ---      ---       #140
      01001084H   LINE      ---      ---       #141
      01001084H   BLOCK     CODE     NEAR LAB  LVL=1
      01001084H   LINE      ---      ---       #144
      01001088H   LINE      ---      ---       #145
      0100108FH   LINE      ---      ---       #147
      010010B8H   LINE      ---      ---       #148
      00000006H   SYMBOL    DATA     VOID      queue
      00000007H   SYMBOL    DATA     VOID      group
      ---         BLOCKEND  CODE     ---       LVL=1
      ---         BLOCKEND  CODE     ---       LVL=0

      0100238FH   BLOCK     CODE     ---       LVL=0
      0100238FH   LINE      ---      ---       #351
      010023A0H   LINE      ---      ---       #352
      010023A0H   BLOCK     CODE     NEAR LAB  LVL=1
      010023A0H   LINE      ---      ---       #354
      010023BCH   LINE      ---      ---       #356
      010023DAH   LINE      ---      ---       #357
      010023DAH   LINE      ---      ---       #358
      010023FEH   LINE      ---      ---       #360
      01002424H   LINE      ---      ---       #361
      01002424H   LINE      ---      ---       #362
      01002431H   LINE      ---      ---       #363
      01002442H   LINE      ---      ---       #365
      0100245EH   LINE      ---      ---       #366
      0100245EH   LINE      ---      ---       #367
      0100246EH   LINE      ---      ---       #369
      0100248CH   LINE      ---      ---       #371
      02004DB3H   SYMBOL    XDATA    VOID      i
      02004DB5H   SYMBOL    XDATA    VOID      twptr
      ---         BLOCKEND  CODE     ---       LVL=1
      ---         BLOCKEND  CODE     ---       LVL=0

      0100065BH   BLOCK     CODE     ---       LVL=0
      0100065BH   LINE      ---      ---       #373
      0100065BH   LINE      ---      ---       #374
      0100065BH   LINE      ---      ---       #375
      0100066CH   LINE      ---      ---       #376
      ---         BLOCKEND  ---      ---       LVL=0

      010007A8H   BLOCK     CODE     ---       LVL=0
      010007A8H   LINE      ---      ---       #378
      010007B9H   LINE      ---      ---       #379
      010007B9H   BLOCK     CODE     NEAR LAB  LVL=1
      010007B9H   LINE      ---      ---       #380
      010007BEH   LINE      ---      ---       #381
      010007D4H   LINE      ---      ---       #383
      010007EFH   LINE      ---      ---       #384
      010007EFH   LINE      ---      ---       #385
      010007F3H   LINE      ---      ---       #386
      010007F3H   LINE      ---      ---       #388
      01000811H   LINE      ---      ---       #389
      01000811H   LINE      ---      ---       #390
      0100083DH   LINE      ---      ---       #392
      0100085FH   LINE      ---      ---       #393
      0100085FH   LINE      ---      ---       #394
      01000875H   LINE      ---      ---       #395
      01000875H   LINE      ---      ---       #397
      01000893H   LINE      ---      ---       #398
      01000893H   LINE      ---      ---       #399
      010008ADH   LINE      ---      ---       #400
      010008BCH   LINE      ---      ---       #401
      010008BCH   LINE      ---      ---       #402
      010008CDH   LINE      ---      ---       #404
      010008EAH   LINE      ---      ---       #406
      010008F2H   LINE      ---      ---       #407
      02004DD1H   SYMBOL    XDATA    VOID      i
      02004DD3H   SYMBOL    XDATA    VOID      rrptr
      ---         BLOCKEND  CODE     ---       LVL=1
      ---         BLOCKEND  CODE     ---       LVL=0

      01000592H   BLOCK     CODE     ---       LVL=0
      01000592H   LINE      ---      ---       #409
      01000592H   LINE      ---      ---       #410
      01000592H   LINE      ---      ---       #411
      010005A1H   LINE      ---      ---       #413
      ---         BLOCKEND  ---      ---       LVL=0

      ---         MODULE    ---      ---       SPIFLASH
      02004DE5H   PUBLIC    XDATA    BYTE      ?_SPIFlashRead?BYTE
      010027CFH   PUBLIC    CODE     ---       _SPIFlashRead
      02004DDDH   PUBLIC    XDATA    BYTE      ?_SPIFlashWrite?BYTE
      010020A4H   PUBLIC    CODE     ---       _SPIFlashWrite
      0100201CH   PUBLIC    CODE     ---       _SPIFlashEraseSector
      01002097H   PUBLIC    CODE     ---       SPIFlashWaitBusy
      01002165H   PUBLIC    CODE     ---       SPIFlashWriteEnable
      010021A9H   PUBLIC    CODE     ---       SPIFlashReadSR

      010021A9H   BLOCK     CODE     ---       LVL=0
      010021A9H   LINE      ---      ---       #21
      010021A9H   LINE      ---      ---       #22
      010021A9H   BLOCK     CODE     NEAR LAB  LVL=1
      010021A9H   LINE      ---      ---       #24
      010021AFH   LINE      ---      ---       #25
      010021B8H   LINE      ---      ---       #26
      010021C0H   LINE      ---      ---       #27
      010021C6H   LINE      ---      ---       #28
      010021D0H   LINE      ---      ---       #29
      010021E0H   LINE      ---      ---       #30
      010021E6H   LINE      ---      ---       #31
      010021EDH   LINE      ---      ---       #33
      010021F2H   LINE      ---      ---       #34
      02004E5AH   SYMBOL    XDATA    VOID      status
      ---         BLOCKEND  CODE     ---       LVL=1
      ---         BLOCKEND  CODE     ---       LVL=0

      01002165H   BLOCK     CODE     ---       LVL=0
      01002165H   LINE      ---      ---       #35
      01002165H   LINE      ---      ---       #36
      01002165H   LINE      ---      ---       #37
      0100216CH   LINE      ---      ---       #38
      01002174H   LINE      ---      ---       #39
      0100217AH   LINE      ---      ---       #40
      01002184H   LINE      ---      ---       #41
      01002189H   LINE      ---      ---       #42
      01002190H   LINE      ---      ---       #43
      ---         BLOCKEND  ---      ---       LVL=0

      01002092H   BLOCK     CODE     ---       LVL=0
      01002097H   LINE      ---      ---       #44
      01002097H   LINE      ---      ---       #45
      01002097H   LINE      ---      ---       #46
      0100209DH   LINE      ---      ---       #47
      010020A1H   LINE      ---      ---       #48
      010020A3H   LINE      ---      ---       #49
      ---         BLOCKEND  ---      ---       LVL=0

      0100201CH   BLOCK     CODE     ---       LVL=0
      0100201CH   LINE      ---      ---       #50
      01002021H   LINE      ---      ---       #54
      01002027H   LINE      ---      ---       #55
      0100203FH   LINE      ---      ---       #56
      01002057H   LINE      ---      ---       #57
      0100206BH   LINE      ---      ---       #58
      01002074H   LINE      ---      ---       #59
      0100207CH   LINE      ---      ---       #60
      01002083H   LINE      ---      ---       #61
      01002089H   LINE      ---      ---       #62
      01002090H   LINE      ---      ---       #63
      ---         BLOCKEND  ---      ---       LVL=0

      010020A4H   BLOCK     CODE     ---       LVL=0
      010020A4H   LINE      ---      ---       #65
      010020B0H   BLOCK     CODE     NEAR LAB  LVL=1
      010020B2H   LINE      ---      ---       #70
      010020BEH   LINE      ---      ---       #71
      010020DEH   LINE      ---      ---       #72
      010020E1H   LINE      ---      ---       #73
      010020E7H   LINE      ---      ---       #74
      010020FFH   LINE      ---      ---       #75
      01002117H   LINE      ---      ---       #76
      0100212BH   LINE      ---      ---       #77
      01002147H   LINE      ---      ---       #78
      0100214FH   LINE      ---      ---       #79
      01002156H   LINE      ---      ---       #80
      0100215CH   LINE      ---      ---       #81
      01002163H   LINE      ---      ---       #82
      00000007H   SYMBOL    DATA     VOID      i
      ---         BLOCKEND  CODE     ---       LVL=1
      ---         BLOCKEND  CODE     ---       LVL=0

      010027CFH   BLOCK     CODE     ---       LVL=0
      010027CFH   LINE      ---      ---       #84
      010027D5H   LINE      ---      ---       #85
      010027D5H   LINE      ---      ---       #86
      010027E4H   LINE      ---      ---       #87
      010027EDH   LINE      ---      ---       #88
      010027F3H   LINE      ---      ---       #89
      0100280BH   LINE      ---      ---       #90
      01002823H   LINE      ---      ---       #91
      01002837H   LINE      ---      ---       #92
      01002841H   LINE      ---      ---       #93
      0100284EH   LINE      ---      ---       #94
      01002855H   LINE      ---      ---       #95
      0100285BH   LINE      ---      ---       #97
      01002862H   LINE      ---      ---       #98
      01002869H   LINE      ---      ---       #100
      ---         BLOCKEND  ---      ---       LVL=0

      ---         MODULE    ---      ---       BT_IPC
      010029D2H   PUBLIC    CODE     ---       _BT_CmdFifoFull
      010029C9H   PUBLIC    CODE     ---       BT_CmdFifoEmpty
      0100296DH   PUBLIC    CODE     ---       BT_GetEvtFifoDepth
      0100299BH   PUBLIC    CODE     ---       BT_GetCmdFifoDepth
      0100286AH   PUBLIC    CODE     ---       _BT_EventFifoOut
      01001E00H   PUBLIC    CODE     ---       _BT_CmdFifoIn

      01001E00H   BLOCK     CODE     ---       LVL=0
      01001E00H   LINE      ---      ---       #7
      01001E0BH   LINE      ---      ---       #8
      01001E0BH   BLOCK     CODE     NEAR LAB  LVL=1
      01001E0BH   LINE      ---      ---       #10
      01001E10H   LINE      ---      ---       #11
      01001E12H   LINE      ---      ---       #12
      01001E2FH   LINE      ---      ---       #13
      01001E3AH   LINE      ---      ---       #14
      01001E3AH   LINE      ---      ---       #15
      01001E4FH   LINE      ---      ---       #16
      01001E61H   LINE      ---      ---       #17
      01001E6DH   LINE      ---      ---       #18
      01001E6DH   LINE      ---      ---       #19
      01001E76H   LINE      ---      ---       #20
      01001E76H   LINE      ---      ---       #21
      01001E87H   LINE      ---      ---       #22
      01001E93H   LINE      ---      ---       #23
      01001E93H   LINE      ---      ---       #24
      01001E9CH   LINE      ---      ---       #25
      01001E9CH   LINE      ---      ---       #26
      01001EC1H   LINE      ---      ---       #27
      01001EC1H   LINE      ---      ---       #28
      01001EE3H   LINE      ---      ---       #29
      01001EEFH   LINE      ---      ---       #30
      01001EEFH   LINE      ---      ---       #31
      01001EF8H   LINE      ---      ---       #32
      01001EF8H   LINE      ---      ---       #33
      01001F08H   LINE      ---      ---       #34
      01001F1DH   LINE      ---      ---       #35
      01001F1FH   LINE      ---      ---       #36
      01001F1FH   LINE      ---      ---       #38
      01001F1FH   LINE      ---      ---       #39
      01001F20H   LINE      ---      ---       #40
      01001F20H   LINE      ---      ---       #41
      02004E08H   SYMBOL    XDATA    VOID      new_wprt
      00000006H   SYMBOL    DATA     VOID      new_cmd_len
      02004E0AH   SYMBOL    XDATA    VOID      i
      ---         BLOCKEND  CODE     ---       LVL=1
      ---         BLOCKEND  CODE     ---       LVL=0

      0100286AH   BLOCK     CODE     ---       LVL=0
      0100286AH   LINE      ---      ---       #43
      01002875H   LINE      ---      ---       #44
      01002875H   BLOCK     CODE     NEAR LAB  LVL=1
      01002875H   LINE      ---      ---       #47
      0100287FH   LINE      ---      ---       #48
      0100287FH   LINE      ---      ---       #49
      01002894H   LINE      ---      ---       #50
      010028A5H   LINE      ---      ---       #51
      010028ABH   LINE      ---      ---       #52
      010028CAH   LINE      ---      ---       #53
      010028D6H   LINE      ---      ---       #54
      010028D6H   LINE      ---      ---       #55
      010028E0H   LINE      ---      ---       #56
      010028E0H   LINE      ---      ---       #57
      010028FAH   LINE      ---      ---       #58
      010028FAH   LINE      ---      ---       #59
      0100291CH   LINE      ---      ---       #60
      01002928H   LINE      ---      ---       #61
      01002928H   LINE      ---      ---       #62
      01002932H   LINE      ---      ---       #63
      01002932H   LINE      ---      ---       #64
      01002939H   LINE      ---      ---       #65
      01002939H   LINE      ---      ---       #66
      01002939H   LINE      ---      ---       #67
      01002948H   LINE      ---      ---       #68
      01002948H   LINE      ---      ---       #69
      0100295DH   LINE      ---      ---       #70
      0100295EH   LINE      ---      ---       #72
      0100295EH   LINE      ---      ---       #73
      02004E28H   SYMBOL    XDATA    VOID      new_rprt
      00000006H   SYMBOL    DATA     VOID      i
      00000007H   SYMBOL    DATA     VOID      event_prefix
      ---         BLOCKEND  CODE     ---       LVL=1
      ---         BLOCKEND  CODE     ---       LVL=0

      0100299BH   BLOCK     CODE     ---       LVL=0
      0100299BH   LINE      ---      ---       #78
      0100299BH   LINE      ---      ---       #79
      0100299BH   BLOCK     CODE     NEAR LAB  LVL=1
      0100299BH   LINE      ---      ---       #81
      010029A8H   LINE      ---      ---       #82
      010029B5H   LINE      ---      ---       #83
      010029C8H   LINE      ---      ---       #84
      010029C8H   LINE      ---      ---       #85
      00000004H   SYMBOL    DATA     VOID      wptr
      00000006H   SYMBOL    DATA     VOID      rptr
      00000006H   SYMBOL    DATA     VOID      len
      ---         BLOCKEND  CODE     ---       LVL=1
      ---         BLOCKEND  CODE     ---       LVL=0

      0100296DH   BLOCK     CODE     ---       LVL=0
      0100296DH   LINE      ---      ---       #87
      0100296DH   LINE      ---      ---       #88
      0100296DH   BLOCK     CODE     NEAR LAB  LVL=1
      0100296DH   LINE      ---      ---       #90
      0100297AH   LINE      ---      ---       #91
      01002987H   LINE      ---      ---       #92
      0100299AH   LINE      ---      ---       #93
      0100299AH   LINE      ---      ---       #94
      00000004H   SYMBOL    DATA     VOID      wptr
      00000006H   SYMBOL    DATA     VOID      rptr
      00000006H   SYMBOL    DATA     VOID      len
      ---         BLOCKEND  CODE     ---       LVL=1
      ---         BLOCKEND  CODE     ---       LVL=0

      010029C9H   BLOCK     CODE     ---       LVL=0
      010029C9H   LINE      ---      ---       #96
      010029C9H   LINE      ---      ---       #97
      010029C9H   LINE      ---      ---       #98
      010029CEH   LINE      ---      ---       #99
      010029CEH   LINE      ---      ---       #100
      010029D0H   LINE      ---      ---       #101
      010029D0H   LINE      ---      ---       #102
      010029D1H   LINE      ---      ---       #103
      ---         BLOCKEND  ---      ---       LVL=0

      010029D2H   BLOCK     CODE     ---       LVL=0
      010029D2H   LINE      ---      ---       #105
      010029DDH   LINE      ---      ---       #106
      010029DDH   LINE      ---      ---       #107
      01002A03H   LINE      ---      ---       #108
      01002A05H   LINE      ---      ---       #109
      01002A06H   LINE      ---      ---       #110
      ---         BLOCKEND  ---      ---       LVL=0

      ---         MODULE    ---      ---       YC_UTILITIES
      01002A9BH   PUBLIC    CODE     ---       _YC_Delay1S
      01001DE8H   PUBLIC    CODE     ---       _YC_Delay10ms
      01002191H   PUBLIC    CODE     ---       _YC_Delay1ms
      01002A45H   PUBLIC    CODE     ---       _YC_MemCheckEmpty
      00000021H   PUBLIC    DATA     BYTE      ?_cmemcpy?BYTE
      01002A0EH   PUBLIC    CODE     ---       _cmemcpy
      00000010H   PUBLIC    DATA     BYTE      ?_dmemcpy?BYTE
      01001F21H   PUBLIC    CODE     ---       _dmemcpy
      00000017H   PUBLIC    DATA     BYTE      ?_xmemcpy?BYTE
      0100248DH   PUBLIC    CODE     ---       _xmemcpy
      01001F99H   PUBLIC    CODE     ---       _xmemset
      01002A07H   PUBLIC    CODE     ---       YC_Ice_break

      01002A07H   BLOCK     CODE     ---       LVL=0
      01002A07H   LINE      ---      ---       #4
      01002A07H   LINE      ---      ---       #5
      01002A07H   LINE      ---      ---       #6
      01002A0DH   LINE      ---      ---       #8
      ---         BLOCKEND  ---      ---       LVL=0

      01001F99H   BLOCK     CODE     ---       LVL=0
      01001F99H   LINE      ---      ---       #10
      01001F9DH   LINE      ---      ---       #12
      01001FA3H   LINE      ---      ---       #13
      01001FB6H   LINE      ---      ---       #15
      ---         BLOCKEND  ---      ---       LVL=0

      0100248DH   BLOCK     CODE     ---       LVL=0
      0100248DH   LINE      ---      ---       #16
      01002497H   LINE      ---      ---       #18
      0100249EH   LINE      ---      ---       #19
      010024C3H   LINE      ---      ---       #21
      ---         BLOCKEND  ---      ---       LVL=0

      01001F21H   BLOCK     CODE     ---       LVL=0
      01001F21H   LINE      ---      ---       #22
      01001F27H   LINE      ---      ---       #24
      01001F2EH   LINE      ---      ---       #25
      01001F54H   LINE      ---      ---       #27
      ---         BLOCKEND  ---      ---       LVL=0

      01002A0EH   BLOCK     CODE     ---       LVL=0
      01002A0EH   LINE      ---      ---       #28
      01002A18H   LINE      ---      ---       #30
      01002A1FH   LINE      ---      ---       #31
      01002A44H   LINE      ---      ---       #33
      ---         BLOCKEND  ---      ---       LVL=0

      01002A45H   BLOCK     CODE     ---       LVL=0
      01002A45H   LINE      ---      ---       #34
      01002A53H   LINE      ---      ---       #35
      01002A53H   BLOCK     CODE     NEAR LAB  LVL=1
      01002A53H   LINE      ---      ---       #37
      01002A65H   LINE      ---      ---       #38
      01002A65H   LINE      ---      ---       #39
      01002A7AH   LINE      ---      ---       #40
      01002A7AH   LINE      ---      ---       #41
      01002A7AH   LINE      ---      ---       #42
      01002A7AH   LINE      ---      ---       #43
      01002A90H   LINE      ---      ---       #44
      01002A90H   LINE      ---      ---       #45
      01002A92H   LINE      ---      ---       #46
      01002A92H   LINE      ---      ---       #47
      01002A99H   LINE      ---      ---       #48
      01002A9AH   LINE      ---      ---       #49
      00000006H   SYMBOL    DATA     VOID      i
      ---         BLOCKEND  CODE     ---       LVL=1
      ---         BLOCKEND  CODE     ---       LVL=0

      01002191H   BLOCK     CODE     ---       LVL=0
      01002191H   LINE      ---      ---       #51
      01002191H   LINE      ---      ---       #52
      01002191H   BLOCK     CODE     NEAR LAB  LVL=1
      01002191H   LINE      ---      ---       #54
      01002197H   LINE      ---      ---       #55
      01002197H   LINE      ---      ---       #56
      010021A5H   LINE      ---      ---       #57
      010021A8H   LINE      ---      ---       #58
      00000004H   SYMBOL    DATA     VOID      j
      ---         BLOCKEND  CODE     ---       LVL=1
      ---         BLOCKEND  CODE     ---       LVL=0

      01001DE8H   BLOCK     CODE     ---       LVL=0
      01001DE8H   LINE      ---      ---       #60
      01001DE8H   LINE      ---      ---       #61
      01001DE8H   BLOCK     CODE     NEAR LAB  LVL=1
      01001DE8H   LINE      ---      ---       #63
      01001DEEH   LINE      ---      ---       #64
      01001DEEH   LINE      ---      ---       #65
      01001DFCH   LINE      ---      ---       #66
      01001DFFH   LINE      ---      ---       #67
      00000004H   SYMBOL    DATA     VOID      j
      ---         BLOCKEND  CODE     ---       LVL=1
      ---         BLOCKEND  CODE     ---       LVL=0

      01002A9BH   BLOCK     CODE     ---       LVL=0
      01002A9BH   LINE      ---      ---       #69
      01002A9BH   LINE      ---      ---       #70
      01002A9BH   BLOCK     CODE     NEAR LAB  LVL=1
      01002A9BH   LINE      ---      ---       #72
      01002AA1H   LINE      ---      ---       #73
      01002AA1H   LINE      ---      ---       #74
      01002AA4H   LINE      ---      ---       #75
      01002AA4H   LINE      ---      ---       #76
      01002AB2H   LINE      ---      ---       #77
      01002ABDH   LINE      ---      ---       #78
      01002AC0H   LINE      ---      ---       #79
      00000004H   SYMBOL    DATA     VOID      j
      00000002H   SYMBOL    DATA     VOID      k
      ---         BLOCKEND  CODE     ---       LVL=1
      ---         BLOCKEND  CODE     ---       LVL=0

      ---         MODULE    ---      ---       CS_SCALE_PROC
      02004CDAH   PUBLIC    XDATA    BYTE      R_1186sys_state
      02004CD8H   PUBLIC    XDATA    WORD      R_AD_Original
      02004CD7H   PUBLIC    XDATA    BYTE      B_Weight_AdOk
      02004CD3H   PUBLIC    XDATA    ---       R_1186_RTC
      02004CC9H   PUBLIC    XDATA    ---       R_UnitWeight
      02004CC7H   PUBLIC    XDATA    WORD      R_Debug_temp
      02004CC6H   PUBLIC    XDATA    BYTE      R_Selet_Unit
      02004CC5H   PUBLIC    XDATA    BYTE      R_Scale_state
      02004CC3H   PUBLIC    XDATA    WORD      R_Weight_Mem
      02004CC2H   PUBLIC    XDATA    BYTE      R_Display_Err
      00000020H.1 PUBLIC    BIT      BIT       B_Debug_Test
      02004CC0H   PUBLIC    XDATA    WORD      R_Weight_Lock
      01002BBBH   PUBLIC    CODE     ---       _CS_Scale_TimeOutProc
      01000F15H   PUBLIC    CODE     ---       _CS_SoftTimer
      00000020H.0 PUBLIC    BIT      BIT       ?CS_Scale_PowerOnProc?BIT
      01002CE5H   PUBLIC    CODE     ---       CS_Scale_PowerOnProc
      01002B27H   PUBLIC    CODE     ---       _CS_Scale_StandbyProc
      01000A38H   PUBLIC    CODE     ---       _CS_Scale_CaliProc
      0100368EH   PUBLIC    CODE     ---       _CS_MemoryWeightClear_Timer
      01002E75H   PUBLIC    CODE     ---       CS_Scale_ReturnLock
      01002DCEH   PUBLIC    CODE     ---       _CS_Scale_SteadyProc
      01002F07H   PUBLIC    CODE     ---       _CS_Scale_JudgeSteady
      01003643H   PUBLIC    CODE     ---       _CS_Scale_JudgeOverLoad
      01001F87H   PUBLIC    CODE     ---       _CS_Scale_JudgeLowBat
      010035D5H   PUBLIC    CODE     ---       _CS_Scale_LockProc
      010012F1H   PUBLIC    CODE     ---       _CS_Scale_ZeroProc
      01000F53H   PUBLIC    CODE     ---       CS_Scale_ChangeUnit
      01003484H   PUBLIC    CODE     ---       _CS_Scale_GetWeight
      010030D4H   PUBLIC    CODE     ---       _CS_Scale_AdcFilter
      01003073H   PUBLIC    CODE     ---       _CS_Scale_GetDeltaAD
      01002EDDH   PUBLIC    CODE     ---       CS_Scale_WeightProc
      010012BBH   PUBLIC    CODE     ---       CS_Scale_PowerOn
      01002AC1H   PUBLIC    CODE     ---       CS_Scale_Proc

      01002AC1H   BLOCK     CODE     ---       LVL=0
      01002AC1H   LINE      ---      ---       #121
      01002AC1H   LINE      ---      ---       #122
      01002AC1H   LINE      ---      ---       #123
      01002AC7H   LINE      ---      ---       #124
      01002AC7H   LINE      ---      ---       #125
      01002ACBH   LINE      ---      ---       #126
      01002ACBH   LINE      ---      ---       #127
      01002AD2H   LINE      ---      ---       #128
      01002AD2H   LINE      ---      ---       #129
      01002AD6H   LINE      ---      ---       #130
      01002AD6H   LINE      ---      ---       #132
      01002ADEH   LINE      ---      ---       #133
      01002ADEH   LINE      ---      ---       #134
      01002ADFH   LINE      ---      ---       #136
      01002AEAH   LINE      ---      ---       #137
      01002AEAH   LINE      ---      ---       #138
      01002AF1H   LINE      ---      ---       #139
      01002AF1H   LINE      ---      ---       #141
      01002AF1H   LINE      ---      ---       #143
      01002AF8H   LINE      ---      ---       #144
      01002AF8H   LINE      ---      ---       #145
      01002AFAH   LINE      ---      ---       #146
      01002AFDH   LINE      ---      ---       #147
      01002AFDH   LINE      ---      ---       #148
      01002B04H   LINE      ---      ---       #149
      01002B04H   LINE      ---      ---       #150
      01002B07H   LINE      ---      ---       #151
      01002B0FH   LINE      ---      ---       #152
      01002B0FH   LINE      ---      ---       #153
      01002B13H   LINE      ---      ---       #154
      01002B16H   LINE      ---      ---       #155
      01002B16H   LINE      ---      ---       #156
      01002B16H   LINE      ---      ---       #157
      01002B1DH   LINE      ---      ---       #158
      01002B1DH   LINE      ---      ---       #159
      01002B22H   LINE      ---      ---       #160
      01002B22H   LINE      ---      ---       #162
      01002B26H   LINE      ---      ---       #163
      01002B26H   LINE      ---      ---       #164
      01002B26H   LINE      ---      ---       #165
      ---         BLOCKEND  ---      ---       LVL=0

      010012BBH   BLOCK     CODE     ---       LVL=0
      010012BBH   LINE      ---      ---       #173
      010012BBH   LINE      ---      ---       #174
      010012BBH   LINE      ---      ---       #176
      010012C1H   LINE      ---      ---       #177
      010012C1H   LINE      ---      ---       #178
      010012C5H   LINE      ---      ---       #179
      010012C9H   LINE      ---      ---       #180
      010012CDH   LINE      ---      ---       #182
      010012D3H   LINE      ---      ---       #184
      010012D8H   LINE      ---      ---       #185
      010012DAH   LINE      ---      ---       #187
      010012DFH   LINE      ---      ---       #188
      010012E6H   LINE      ---      ---       #190
      010012EBH   LINE      ---      ---       #191
      010012F0H   LINE      ---      ---       #192
      010012F0H   LINE      ---      ---       #193
      ---         BLOCKEND  ---      ---       LVL=0

      01002EDDH   BLOCK     CODE     ---       LVL=0
      01002EDDH   LINE      ---      ---       #202
      01002EDDH   LINE      ---      ---       #203
      01002EDDH   BLOCK     CODE     NEAR LAB  LVL=1
      01002EDDH   LINE      ---      ---       #206
      01002EE2H   LINE      ---      ---       #207
      01002EEBH   LINE      ---      ---       #208
      01002EEEH   LINE      ---      ---       #209
      01002EF6H   LINE      ---      ---       #210
      01002EFBH   LINE      ---      ---       #211
      01002F00H   LINE      ---      ---       #212
      01002F05H   LINE      ---      ---       #213
      00000006H   SYMBOL    DATA     VOID      R_AD_BUF
      ---         BLOCKEND  CODE     ---       LVL=1
      ---         BLOCKEND  CODE     ---       LVL=0

      01003073H   BLOCK     CODE     ---       LVL=0
      01003073H   LINE      ---      ---       #219
      01003078H   LINE      ---      ---       #220
      01003078H   BLOCK     CODE     NEAR LAB  LVL=1
      01003078H   LINE      ---      ---       #224
      01003080H   LINE      ---      ---       #225
      0100308EH   LINE      ---      ---       #226
      0100308EH   LINE      ---      ---       #227
      0100309AH   LINE      ---      ---       #228
      010030A0H   LINE      ---      ---       #230
      010030A2H   LINE      ---      ---       #232
      010030A2H   LINE      ---      ---       #233
      010030B7H   LINE      ---      ---       #234
      010030BCH   LINE      ---      ---       #235
      010030BCH   LINE      ---      ---       #238
      010030C3H   LINE      ---      ---       #239
      010030C3H   LINE      ---      ---       #240
      010030CBH   LINE      ---      ---       #241
      010030CBH   LINE      ---      ---       #242
      010030D3H   LINE      ---      ---       #243
      02004C80H   SYMBOL    XDATA    VOID      B_Weight_Pos
      02004E49H   SYMBOL    XDATA    VOID      ad_temp
      00000006H   SYMBOL    DATA     VOID      R_AD_Zero
      ---         BLOCKEND  CODE     ---       LVL=1
      ---         BLOCKEND  CODE     ---       LVL=0

      010030D4H   BLOCK     CODE     ---       LVL=0
      010030D4H   LINE      ---      ---       #248
      010030E1H   LINE      ---      ---       #249
      010030E1H   BLOCK     CODE     NEAR LAB  LVL=1
      010030E1H   LINE      ---      ---       #262
      010030E4H   LINE      ---      ---       #263
      010030E4H   LINE      ---      ---       #264
      010030EDH   LINE      ---      ---       #265
      010030EDH   LINE      ---      ---       #268
      01003103H   LINE      ---      ---       #269
      0100311AH   LINE      ---      ---       #271
      01003138H   LINE      ---      ---       #273
      01003147H   LINE      ---      ---       #275
      01003168H   LINE      ---      ---       #276
      01003168H   LINE      ---      ---       #277
      0100316FH   LINE      ---      ---       #278
      01003175H   LINE      ---      ---       #279
      01003179H   LINE      ---      ---       #280
      0100317DH   LINE      ---      ---       #281
      01003181H   LINE      ---      ---       #282
      01003185H   LINE      ---      ---       #283
      01003189H   LINE      ---      ---       #284
      0100318DH   LINE      ---      ---       #285
      01003191H   LINE      ---      ---       #286
      01003193H   LINE      ---      ---       #288
      01003193H   LINE      ---      ---       #289
      010031A2H   LINE      ---      ---       #290
      010031AEH   LINE      ---      ---       #292
      010031BEH   LINE      ---      ---       #293
      010031CDH   LINE      ---      ---       #294
      010031D6H   LINE      ---      ---       #295
      010031E5H   LINE      ---      ---       #296
      010031F4H   LINE      ---      ---       #297
      01003203H   LINE      ---      ---       #298
      01003213H   LINE      ---      ---       #299
      01003222H   LINE      ---      ---       #300
      0100322BH   LINE      ---      ---       #301
      0100323AH   LINE      ---      ---       #302
      01003249H   LINE      ---      ---       #303
      01003258H   LINE      ---      ---       #304
      01003268H   LINE      ---      ---       #305
      01003277H   LINE      ---      ---       #306
      01003280H   LINE      ---      ---       #307
      0100328FH   LINE      ---      ---       #308
      0100329EH   LINE      ---      ---       #309
      0100329EH   LINE      ---      ---       #310
      010032ADH   LINE      ---      ---       #311
      010032BCH   LINE      ---      ---       #312
      010032CBH   LINE      ---      ---       #313
      010032DAH   LINE      ---      ---       #314
      010032E9H   LINE      ---      ---       #315
      010032F8H   LINE      ---      ---       #316
      01003307H   LINE      ---      ---       #317
      01003316H   LINE      ---      ---       #318
      01003316H   LINE      ---      ---       #320
      01003327H   LINE      ---      ---       #321
      01003352H   LINE      ---      ---       #322
      0100337DH   LINE      ---      ---       #323
      010033A8H   LINE      ---      ---       #324
      010033D3H   LINE      ---      ---       #325
      010033FEH   LINE      ---      ---       #326
      01003429H   LINE      ---      ---       #327
      01003454H   LINE      ---      ---       #329
      01003473H   LINE      ---      ---       #330
      0100347BH   LINE      ---      ---       #331
      0100347BH   LINE      ---      ---       #332
      01003483H   LINE      ---      ---       #333
      02004E0FH   SYMBOL    XDATA    VOID      ad_temp
      02004C81H   SYMBOL    XDATA    VOID      R_AD_FilTimes
      02004C83H   SYMBOL    XDATA    VOID      R_AD_BUF_OLD
      02004C85H   SYMBOL    XDATA    VOID      R_AD_F1
      02004C87H   SYMBOL    XDATA    VOID      R_AD_F2
      02004C89H   SYMBOL    XDATA    VOID      R_AD_F3
      02004C8BH   SYMBOL    XDATA    VOID      R_AD_F4
      02004C8DH   SYMBOL    XDATA    VOID      R_AD_F5
      02004C8FH   SYMBOL    XDATA    VOID      R_AD_F6
      02004C91H   SYMBOL    XDATA    VOID      R_AD_F7
      02004C93H   SYMBOL    XDATA    VOID      R_AD_F8
      ---         BLOCKEND  CODE     ---       LVL=1
      ---         BLOCKEND  CODE     ---       LVL=0

      01003484H   BLOCK     CODE     ---       LVL=0
      01003484H   LINE      ---      ---       #338
      0100348CH   LINE      ---      ---       #339
      0100348CH   BLOCK     CODE     NEAR LAB  LVL=1
      0100348CH   LINE      ---      ---       #344
      01003499H   LINE      ---      ---       #345
      010034A6H   LINE      ---      ---       #346
      010034B3H   LINE      ---      ---       #348
      010034C9H   LINE      ---      ---       #349
      010034C9H   LINE      ---      ---       #350
      010034D4H   LINE      ---      ---       #351
      010034FCH   LINE      ---      ---       #353
      010034FCH   LINE      ---      ---       #354
      01003518H   LINE      ---      ---       #356
      01003525H   LINE      ---      ---       #357
      01003525H   LINE      ---      ---       #358
      0100353AH   LINE      ---      ---       #359
      01003568H   LINE      ---      ---       #361
      01003568H   LINE      ---      ---       #363
      01003592H   LINE      ---      ---       #364
      010035A7H   LINE      ---      ---       #365
      010035D4H   LINE      ---      ---       #368
      02004DA2H   SYMBOL    XDATA    VOID      ad_temp
      02004DA6H   SYMBOL    XDATA    VOID      ad_cal
      02004DA8H   SYMBOL    XDATA    VOID      CaliDot1
      02004DAAH   SYMBOL    XDATA    VOID      CaliDot2
      02004DACH   SYMBOL    XDATA    VOID      CaliDot3
      ---         BLOCKEND  CODE     ---       LVL=1
      ---         BLOCKEND  CODE     ---       LVL=0

      01000F53H   BLOCK     CODE     ---       LVL=0
      01000F53H   LINE      ---      ---       #371
      01000F53H   LINE      ---      ---       #372
      01000F53H   LINE      ---      ---       #373
      01000F5EH   LINE      ---      ---       #374
      01000F5EH   LINE      ---      ---       #383
      01000F5EH   LINE      ---      ---       #384
      01000F64H   LINE      ---      ---       #385
      01000F65H   LINE      ---      ---       #386
      01000F65H   LINE      ---      ---       #387
      01000F6BH   LINE      ---      ---       #388
      01000F6CH   LINE      ---      ---       #389
      01000F6CH   LINE      ---      ---       #390
      01000F72H   LINE      ---      ---       #391
      01000F72H   LINE      ---      ---       #392
      01000F72H   LINE      ---      ---       #393
      ---         BLOCKEND  ---      ---       LVL=0

      010012F1H   BLOCK     CODE     ---       LVL=0
      010012F1H   LINE      ---      ---       #397
      010012F6H   LINE      ---      ---       #398
      010012F6H   BLOCK     CODE     NEAR LAB  LVL=1
      010012F6H   LINE      ---      ---       #415
      010012F9H   LINE      ---      ---       #416
      010012F9H   LINE      ---      ---       #417
      010012FEH   LINE      ---      ---       #418
      01001301H   LINE      ---      ---       #419
      01001301H   LINE      ---      ---       #420
      01001309H   LINE      ---      ---       #421
      01001309H   LINE      ---      ---       #422
      01001311H   LINE      ---      ---       #423
      01001315H   LINE      ---      ---       #424
      01001315H   LINE      ---      ---       #425
      01001319H   LINE      ---      ---       #426
      01001319H   LINE      ---      ---       #427
      01001323H   LINE      ---      ---       #428
      01001327H   LINE      ---      ---       #429
      01001327H   LINE      ---      ---       #430
      0100132FH   LINE      ---      ---       #431
      0100132FH   LINE      ---      ---       #432
      01001334H   LINE      ---      ---       #433
      01001337H   LINE      ---      ---       #434
      01001337H   LINE      ---      ---       #436
      0100133CH   LINE      ---      ---       #437
      0100133CH   LINE      ---      ---       #440
      01001345H   LINE      ---      ---       #441
      01001345H   LINE      ---      ---       #442
      01001348H   LINE      ---      ---       #444
      0100135AH   LINE      ---      ---       #445
      01001369H   LINE      ---      ---       #446
      0100136EH   LINE      ---      ---       #448
      01001377H   LINE      ---      ---       #449
      01001377H   LINE      ---      ---       #450
      01001387H   LINE      ---      ---       #451
      0100138FH   LINE      ---      ---       #452
      01001395H   LINE      ---      ---       #453
      01001395H   LINE      ---      ---       #454
      01001397H   LINE      ---      ---       #456
      01001397H   LINE      ---      ---       #457
      010013A1H   LINE      ---      ---       #458
      010013ABH   LINE      ---      ---       #459
      010013B1H   LINE      ---      ---       #460
      010013B1H   LINE      ---      ---       #462
      010013B1H   LINE      ---      ---       #464
      010013BBH   LINE      ---      ---       #465
      010013BBH   LINE      ---      ---       #466
      010013BFH   LINE      ---      ---       #468
      010013C9H   LINE      ---      ---       #469
      010013D6H   LINE      ---      ---       #471
      010013ECH   LINE      ---      ---       #472
      010013F2H   LINE      ---      ---       #474
      01001403H   LINE      ---      ---       #475
      01001403H   LINE      ---      ---       #476
      0100140FH   LINE      ---      ---       #477
      0100140FH   LINE      ---      ---       #479
      01001414H   LINE      ---      ---       #482
      0100141CH   LINE      ---      ---       #483
      0100141CH   LINE      ---      ---       #484
      01001432H   LINE      ---      ---       #485
      01001432H   LINE      ---      ---       #486
      0100143FH   LINE      ---      ---       #487
      0100144EH   LINE      ---      ---       #488
      0100145DH   LINE      ---      ---       #489
      0100145FH   LINE      ---      ---       #491
      0100146EH   LINE      ---      ---       #492
      01001470H   LINE      ---      ---       #495
      01001470H   LINE      ---      ---       #496
      01001476H   LINE      ---      ---       #497
      01001476H   LINE      ---      ---       #498
      0100148CH   LINE      ---      ---       #499
      0100149AH   LINE      ---      ---       #501
      010014B5H   LINE      ---      ---       #506
      010014C4H   LINE      ---      ---       #507
      010014D3H   LINE      ---      ---       #508
      010014D3H   LINE      ---      ---       #510
      010014D9H   LINE      ---      ---       #511
      010014DFH   LINE      ---      ---       #512
      010014E4H   LINE      ---      ---       #513
      010014E4H   LINE      ---      ---       #514
      010014EAH   LINE      ---      ---       #517
      010014EAH   LINE      ---      ---       #518
      010014EAH   LINE      ---      ---       #520
      010014EAH   LINE      ---      ---       #521
      010014EAH   LINE      ---      ---       #522
      010014EEH   LINE      ---      ---       #523
      010014EEH   LINE      ---      ---       #525
      010014F5H   LINE      ---      ---       #526
      010014FEH   LINE      ---      ---       #527
      01001502H   LINE      ---      ---       #528
      0100150AH   LINE      ---      ---       #529
      01001512H   LINE      ---      ---       #530
      0100151BH   LINE      ---      ---       #531
      0100151FH   LINE      ---      ---       #532
      01001527H   LINE      ---      ---       #533
      0100152EH   LINE      ---      ---       #534
      01001536H   LINE      ---      ---       #536
      01001539H   LINE      ---      ---       #537
      02004C95H   SYMBOL    XDATA    VOID      R_Weight_GetZeroTimeOut
      02004C96H   SYMBOL    XDATA    VOID      R_AD_PowerOnZero
      02004C98H   SYMBOL    XDATA    VOID      R_AD_Zero
      02004C9AH   SYMBOL    XDATA    VOID      B_Weight_Zero
      02004C9BH   SYMBOL    XDATA    VOID      B_Weight_ZeroOk
      02004C9CH   SYMBOL    XDATA    VOID      B_LockDownCheck
      02004C9DH   SYMBOL    XDATA    VOID      B_WeightZeroErr
      00000006H   SYMBOL    DATA     VOID      R_AdFilTimes
      02004DEEH   SYMBOL    XDATA    VOID      R_AD_BUF
      02004DF0H   SYMBOL    XDATA    VOID      weight_temp
      02004DF2H   SYMBOL    XDATA    VOID      R_Open_Weight
      02004DF4H   SYMBOL    XDATA    VOID      B_Weight_Pos
      ---         BLOCKEND  CODE     ---       LVL=1
      ---         BLOCKEND  CODE     ---       LVL=0

      010035D5H   BLOCK     CODE     ---       LVL=0
      010035D5H   LINE      ---      ---       #548
      010035D5H   LINE      ---      ---       #549
      010035D5H   BLOCK     CODE     NEAR LAB  LVL=1
      010035D5H   LINE      ---      ---       #552
      010035D9H   LINE      ---      ---       #553
      010035D9H   LINE      ---      ---       #554
      010035DFH   LINE      ---      ---       #555
      010035E2H   LINE      ---      ---       #556
      010035E2H   LINE      ---      ---       #558
      010035E6H   LINE      ---      ---       #559
      010035E6H   LINE      ---      ---       #560
      010035ECH   LINE      ---      ---       #561
      010035ECH   LINE      ---      ---       #562
      010035F0H   LINE      ---      ---       #563
      010035F0H   LINE      ---      ---       #564
      010035F5H   LINE      ---      ---       #565
      010035F7H   LINE      ---      ---       #566
      010035F7H   LINE      ---      ---       #568
      01003605H   LINE      ---      ---       #569
      01003605H   LINE      ---      ---       #570
      0100360CH   LINE      ---      ---       #572
      0100360FH   LINE      ---      ---       #573
      0100361EH   LINE      ---      ---       #574
      01003620H   LINE      ---      ---       #576
      01003620H   LINE      ---      ---       #577
      01003628H   LINE      ---      ---       #578
      01003639H   LINE      ---      ---       #580
      01003640H   LINE      ---      ---       #581
      01003640H   LINE      ---      ---       #583
      01003642H   LINE      ---      ---       #584
      02004C9EH   SYMBOL    XDATA    VOID      B_Weight_Downing_Lock
      ---         BLOCKEND  CODE     ---       LVL=1
      ---         BLOCKEND  CODE     ---       LVL=0

      01001F87H   BLOCK     CODE     ---       LVL=0
      01001F87H   LINE      ---      ---       #627
      01001F87H   LINE      ---      ---       #628
      01001F87H   BLOCK     CODE     NEAR LAB  LVL=1
      01001F87H   LINE      ---      ---       #631
      01001F87H   LINE      ---      ---       #632
      01001F87H   LINE      ---      ---       #633
      01001F87H   LINE      ---      ---       #634
      01001F87H   LINE      ---      ---       #635
      01001F87H   LINE      ---      ---       #637
      01001F8CH   LINE      ---      ---       #639
      01001F90H   LINE      ---      ---       #640
      01001F96H   LINE      ---      ---       #642
      01001F98H   LINE      ---      ---       #643
      02004C9FH   SYMBOL    XDATA    VOID      B_Weight_LowBat
      ---         BLOCKEND  CODE     ---       LVL=1
      ---         BLOCKEND  CODE     ---       LVL=0

      01003643H   BLOCK     CODE     ---       LVL=0
      01003643H   LINE      ---      ---       #646
      01003643H   LINE      ---      ---       #647
      01003643H   BLOCK     CODE     NEAR LAB  LVL=1
      01003643H   LINE      ---      ---       #651
      01003647H   LINE      ---      ---       #652
      01003647H   LINE      ---      ---       #653
      0100364CH   LINE      ---      ---       #654
      0100364EH   LINE      ---      ---       #655
      01003650H   LINE      ---      ---       #656
      01003650H   LINE      ---      ---       #658
      0100365FH   LINE      ---      ---       #659
      01003665H   LINE      ---      ---       #660
      0100366EH   LINE      ---      ---       #661
      0100366EH   LINE      ---      ---       #662
      01003671H   LINE      ---      ---       #663
      01003674H   LINE      ---      ---       #664
      0100367AH   LINE      ---      ---       #665
      0100367CH   LINE      ---      ---       #667
      01003681H   LINE      ---      ---       #669
      01003685H   LINE      ---      ---       #670
      0100368BH   LINE      ---      ---       #672
      0100368DH   LINE      ---      ---       #673
      02004CA0H   SYMBOL    XDATA    VOID      R_Weight_OverLoadTimes
      02004CA1H   SYMBOL    XDATA    VOID      B_Weight_OverLoad
      ---         BLOCKEND  CODE     ---       LVL=1
      ---         BLOCKEND  CODE     ---       LVL=0

      01002F07H   BLOCK     CODE     ---       LVL=0
      01002F07H   LINE      ---      ---       #678
      01002F07H   LINE      ---      ---       #679
      01002F07H   BLOCK     CODE     NEAR LAB  LVL=1
      01002F07H   LINE      ---      ---       #688
      01002F0BH   LINE      ---      ---       #689
      01002F0BH   LINE      ---      ---       #690
      01002F10H   LINE      ---      ---       #691
      01002F12H   LINE      ---      ---       #692
      01002F14H   LINE      ---      ---       #693
      01002F16H   LINE      ---      ---       #694
      01002F16H   LINE      ---      ---       #696
      01002F1AH   LINE      ---      ---       #697
      01002F20H   LINE      ---      ---       #699
      01002F24H   LINE      ---      ---       #700
      01002F2AH   LINE      ---      ---       #702
      01002F35H   LINE      ---      ---       #703
      01002F35H   LINE      ---      ---       #705
      01002F4BH   LINE      ---      ---       #706
      01002F59H   LINE      ---      ---       #708
      01002F74H   LINE      ---      ---       #710
      01002F83H   LINE      ---      ---       #711
      01002F83H   LINE      ---      ---       #712
      01002F8CH   LINE      ---      ---       #713
      01002F8FH   LINE      ---      ---       #714
      01002F91H   LINE      ---      ---       #716
      01002F96H   LINE      ---      ---       #719
      01002FA6H   LINE      ---      ---       #721
      01002FABH   LINE      ---      ---       #722
      01002FADH   LINE      ---      ---       #724
      01002FB6H   LINE      ---      ---       #725
      01002FB6H   LINE      ---      ---       #726
      01002FC1H   LINE      ---      ---       #727
      01002FC5H   LINE      ---      ---       #728
      01002FC8H   LINE      ---      ---       #730
      01002FC8H   LINE      ---      ---       #731
      01002FD4H   LINE      ---      ---       #732
      01002FD4H   LINE      ---      ---       #733
      01002FDAH   LINE      ---      ---       #735
      01002FF0H   LINE      ---      ---       #736
      01002FFEH   LINE      ---      ---       #738
      01003019H   LINE      ---      ---       #741
      01003028H   LINE      ---      ---       #742
      01003028H   LINE      ---      ---       #743
      01003036H   LINE      ---      ---       #744
      01003045H   LINE      ---      ---       #745
      01003045H   LINE      ---      ---       #747
      01003055H   LINE      ---      ---       #748
      0100305DH   LINE      ---      ---       #750
      01003061H   LINE      ---      ---       #751
      01003066H   LINE      ---      ---       #752
      0100306BH   LINE      ---      ---       #753
      01003070H   LINE      ---      ---       #754
      01003070H   LINE      ---      ---       #755
      01003070H   LINE      ---      ---       #756
      01003070H   LINE      ---      ---       #757
      01003072H   LINE      ---      ---       #758
      02004E37H   SYMBOL    XDATA    VOID      weight_temp
      02004E39H   SYMBOL    XDATA    VOID      R_Weight_Temp
      02004CA2H   SYMBOL    XDATA    VOID      R_Weight_kg_old
      02004CA4H   SYMBOL    XDATA    VOID      R_Weight_SameTimes
      02004CA5H   SYMBOL    XDATA    VOID      B_Weight_SmallSteady
      02004CA6H   SYMBOL    XDATA    VOID      B_Weight_HeavySteady
      ---         BLOCKEND  CODE     ---       LVL=1
      ---         BLOCKEND  CODE     ---       LVL=0

      01002DCEH   BLOCK     CODE     ---       LVL=0
      01002DCEH   LINE      ---      ---       #767
      01002DCEH   LINE      ---      ---       #768
      01002DCEH   BLOCK     CODE     NEAR LAB  LVL=1
      01002DCEH   LINE      ---      ---       #775
      01002DD1H   LINE      ---      ---       #776
      01002DD1H   LINE      ---      ---       #777
      01002DD6H   LINE      ---      ---       #779
      01002DD6H   LINE      ---      ---       #782
      01002DDDH   LINE      ---      ---       #783
      01002DDDH   LINE      ---      ---       #785
      01002DE1H   LINE      ---      ---       #787
      01002DE9H   LINE      ---      ---       #788
      01002DEEH   LINE      ---      ---       #789
      01002DEFH   LINE      ---      ---       #791
      01002DEFH   LINE      ---      ---       #800
      01002DF5H   LINE      ---      ---       #801
      01002DF5H   LINE      ---      ---       #803
      01002DF9H   LINE      ---      ---       #804
      01002DF9H   LINE      ---      ---       #805
      01002DFBH   LINE      ---      ---       #806
      01002DFFH   LINE      ---      ---       #807
      01002DFFH   LINE      ---      ---       #809
      01002E06H   LINE      ---      ---       #810
      01002E06H   LINE      ---      ---       #813
      01002E0AH   LINE      ---      ---       #815
      01002E12H   LINE      ---      ---       #816
      01002E1AH   LINE      ---      ---       #817
      01002E22H   LINE      ---      ---       #818
      01002E2AH   LINE      ---      ---       #819
      01002E3FH   LINE      ---      ---       #820
      01002E48H   LINE      ---      ---       #821
      01002E4EH   LINE      ---      ---       #823
      01002E52H   LINE      ---      ---       #827
      01002E52H   LINE      ---      ---       #829
      01002E52H   LINE      ---      ---       #831
      01002E52H   LINE      ---      ---       #832
      01002E57H   LINE      ---      ---       #833
      01002E60H   LINE      ---      ---       #834
      01002E63H   LINE      ---      ---       #835
      01002E65H   LINE      ---      ---       #837
      01002E74H   LINE      ---      ---       #838
      01002E74H   LINE      ---      ---       #839
      01002E74H   LINE      ---      ---       #858
      00000006H   SYMBOL    DATA     VOID      R_AD_BUF
      02004CA7H   SYMBOL    XDATA    VOID      B_Debug_Send
      02004CA8H   SYMBOL    XDATA    VOID      ReadUTC
      02004E13H   SYMBOL    XDATA    VOID      SendData
      ---         BLOCKEND  CODE     ---       LVL=1
      ---         BLOCKEND  CODE     ---       LVL=0

      01002E75H   BLOCK     CODE     ---       LVL=0
      01002E75H   LINE      ---      ---       #862
      01002E75H   LINE      ---      ---       #863
      01002E75H   BLOCK     CODE     NEAR LAB  LVL=1
      01002E75H   LINE      ---      ---       #866
      01002E8BH   LINE      ---      ---       #867
      01002E8BH   LINE      ---      ---       #868
      01002E98H   LINE      ---      ---       #869
      01002EA0H   LINE      ---      ---       #870
      01002EA0H   LINE      ---      ---       #871
      01002EA6H   LINE      ---      ---       #872
      01002EAAH   LINE      ---      ---       #873
      01002EAAH   LINE      ---      ---       #874
      01002EAAH   LINE      ---      ---       #876
      01002EAAH   LINE      ---      ---       #877
      01002EC6H   LINE      ---      ---       #878
      01002ECEH   LINE      ---      ---       #879
      01002ECEH   LINE      ---      ---       #881
      01002ED4H   LINE      ---      ---       #882
      01002ED8H   LINE      ---      ---       #883
      01002EDCH   LINE      ---      ---       #885
      01002EDCH   LINE      ---      ---       #886
      01002EDCH   LINE      ---      ---       #888
      02004E57H   SYMBOL    XDATA    VOID      weight_temp
      ---         BLOCKEND  CODE     ---       LVL=1
      ---         BLOCKEND  CODE     ---       LVL=0

      0100368EH   BLOCK     CODE     ---       LVL=0
      0100368EH   LINE      ---      ---       #894
      0100368EH   LINE      ---      ---       #895
      0100368EH   BLOCK     CODE     NEAR LAB  LVL=1
      0100368EH   LINE      ---      ---       #899
      01003692H   LINE      ---      ---       #900
      01003692H   LINE      ---      ---       #901
      01003697H   LINE      ---      ---       #902
      01003699H   LINE      ---      ---       #903
      01003699H   LINE      ---      ---       #905
      0100369DH   LINE      ---      ---       #906
      0100369DH   LINE      ---      ---       #907
      010036A6H   LINE      ---      ---       #908
      010036A9H   LINE      ---      ---       #909
      010036A9H   LINE      ---      ---       #911
      010036AFH   LINE      ---      ---       #912
      010036AFH   LINE      ---      ---       #913
      010036B8H   LINE      ---      ---       #914
      010036B8H   LINE      ---      ---       #915
      010036BCH   LINE      ---      ---       #916
      010036C3H   LINE      ---      ---       #917
      010036C3H   LINE      ---      ---       #918
      010036C3H   LINE      ---      ---       #919
      02004CA9H   SYMBOL    XDATA    VOID      timecount
      02004CAAH   SYMBOL    XDATA    VOID      B_Timeout
      ---         BLOCKEND  CODE     ---       LVL=1
      ---         BLOCKEND  CODE     ---       LVL=0

      01000A38H   BLOCK     CODE     ---       LVL=0
      01000A38H   LINE      ---      ---       #935
      01000A3AH   LINE      ---      ---       #936
      01000A3AH   BLOCK     CODE     NEAR LAB  LVL=1
      01000A3AH   LINE      ---      ---       #948
      01000A3EH   LINE      ---      ---       #949
      01000A3EH   LINE      ---      ---       #950
      01000A43H   LINE      ---      ---       #951
      01000A46H   LINE      ---      ---       #952
      01000A46H   LINE      ---      ---       #953
      01000A4DH   LINE      ---      ---       #954
      01000A4DH   LINE      ---      ---       #983
      01000A5AH   LINE      ---      ---       #984
      01000A6CH   LINE      ---      ---       #985
      01000A79H   LINE      ---      ---       #986
      01000A8BH   LINE      ---      ---       #987
      01000A98H   LINE      ---      ---       #988
      01000AAAH   LINE      ---      ---       #992
      01000AC3H   LINE      ---      ---       #993
      01000ADCH   LINE      ---      ---       #994
      01000AF5H   LINE      ---      ---       #995
      01000AF5H   LINE      ---      ---       #996
      01000AFFH   LINE      ---      ---       #997
      01000B07H   LINE      ---      ---       #998
      01000B0FH   LINE      ---      ---       #999
      01000B0FH   LINE      ---      ---       #1002
      01000B26H   LINE      ---      ---       #1003
      01000B2AH   LINE      ---      ---       #1004
      01000B2AH   LINE      ---      ---       #1005
      01000B2EH   LINE      ---      ---       #1006
      01000B2EH   LINE      ---      ---       #1007
      01000B45H   LINE      ---      ---       #1008
      01000B49H   LINE      ---      ---       #1009
      01000B49H   LINE      ---      ---       #1011
      01000B4DH   LINE      ---      ---       #1012
      01000B56H   LINE      ---      ---       #1013
      01000B5AH   LINE      ---      ---       #1014
      01000B63H   LINE      ---      ---       #1015
      01000B67H   LINE      ---      ---       #1016
      01000B70H   LINE      ---      ---       #1017
      01000B74H   LINE      ---      ---       #1018
      01000B7DH   LINE      ---      ---       #1020
      01000B8FH   LINE      ---      ---       #1021
      01000B9EH   LINE      ---      ---       #1022
      01000BABH   LINE      ---      ---       #1028
      01000BB1H   LINE      ---      ---       #1029
      01000BB1H   LINE      ---      ---       #1031
      01000BC1H   LINE      ---      ---       #1032
      01000BD0H   LINE      ---      ---       #1033
      01000BD0H   LINE      ---      ---       #1034
      01000BD5H   LINE      ---      ---       #1035
      01000BE2H   LINE      ---      ---       #1036
      01000BE6H   LINE      ---      ---       #1037
      01000BECH   LINE      ---      ---       #1038
      01000BECH   LINE      ---      ---       #1039
      01000BF9H   LINE      ---      ---       #1040
      01000BF9H   LINE      ---      ---       #1042
      01000C00H   LINE      ---      ---       #1043
      01000C00H   LINE      ---      ---       #1044
      01000C0AH   LINE      ---      ---       #1045
      01000C10H   LINE      ---      ---       #1046
      01000C18H   LINE      ---      ---       #1047
      01000C18H   LINE      ---      ---       #1049
      01000C22H   LINE      ---      ---       #1050
      01000C22H   LINE      ---      ---       #1051
      01000C30H   LINE      ---      ---       #1052
      01000C44H   LINE      ---      ---       #1054
      01000C66H   LINE      ---      ---       #1055
      01000C66H   LINE      ---      ---       #1056
      01000C75H   LINE      ---      ---       #1057
      01000C75H   LINE      ---      ---       #1058
      01000C82H   LINE      ---      ---       #1059
      01000C8FH   LINE      ---      ---       #1060
      01000C8FH   LINE      ---      ---       #1061
      01000C96H   LINE      ---      ---       #1062
      01000C98H   LINE      ---      ---       #1064
      01000C98H   LINE      ---      ---       #1065
      01000CB5H   LINE      ---      ---       #1066
      01000CB5H   LINE      ---      ---       #1067
      01000CB9H   LINE      ---      ---       #1068
      01000CC6H   LINE      ---      ---       #1069
      01000CCCH   LINE      ---      ---       #1070
      01000CCCH   LINE      ---      ---       #1071
      01000CCCH   LINE      ---      ---       #1072
      01000CD9H   LINE      ---      ---       #1074
      01000CD9H   LINE      ---      ---       #1076
      01000CE0H   LINE      ---      ---       #1077
      01000CE0H   LINE      ---      ---       #1078
      01000CEAH   LINE      ---      ---       #1079
      01000CF0H   LINE      ---      ---       #1080
      01000CF8H   LINE      ---      ---       #1081
      01000CF8H   LINE      ---      ---       #1083
      01000D02H   LINE      ---      ---       #1084
      01000D02H   LINE      ---      ---       #1085
      01000D10H   LINE      ---      ---       #1086
      01000D24H   LINE      ---      ---       #1088
      01000D47H   LINE      ---      ---       #1089
      01000D47H   LINE      ---      ---       #1090
      01000D4EH   LINE      ---      ---       #1091
      01000D50H   LINE      ---      ---       #1093
      01000D50H   LINE      ---      ---       #1094
      01000D64H   LINE      ---      ---       #1096
      01000D7AH   LINE      ---      ---       #1097
      01000D7AH   LINE      ---      ---       #1098
      01000D87H   LINE      ---      ---       #1099
      01000D8BH   LINE      ---      ---       #1100
      01000D91H   LINE      ---      ---       #1101
      01000D91H   LINE      ---      ---       #1102
      01000D91H   LINE      ---      ---       #1103
      01000D9EH   LINE      ---      ---       #1104
      01000D9EH   LINE      ---      ---       #1106
      01000DA5H   LINE      ---      ---       #1107
      01000DA5H   LINE      ---      ---       #1108
      01000DAFH   LINE      ---      ---       #1109
      01000DB5H   LINE      ---      ---       #1110
      01000DBDH   LINE      ---      ---       #1111
      01000DBDH   LINE      ---      ---       #1113
      01000DC7H   LINE      ---      ---       #1114
      01000DC7H   LINE      ---      ---       #1115
      01000DD5H   LINE      ---      ---       #1116
      01000DE9H   LINE      ---      ---       #1118
      01000E0CH   LINE      ---      ---       #1119
      01000E0CH   LINE      ---      ---       #1120
      01000E13H   LINE      ---      ---       #1121
      01000E15H   LINE      ---      ---       #1123
      01000E15H   LINE      ---      ---       #1124
      01000E26H   LINE      ---      ---       #1126
      01000E34H   LINE      ---      ---       #1127
      01000E34H   LINE      ---      ---       #1128
      01000E39H   LINE      ---      ---       #1130
      01000E3BH   LINE      ---      ---       #1132
      01000E3BH   LINE      ---      ---       #1133
      01000E4FH   LINE      ---      ---       #1135
      01000E65H   LINE      ---      ---       #1136
      01000E65H   LINE      ---      ---       #1137
      01000E69H   LINE      ---      ---       #1138
      01000E6FH   LINE      ---      ---       #1139
      01000E6FH   LINE      ---      ---       #1140
      01000E6FH   LINE      ---      ---       #1141
      01000E6FH   LINE      ---      ---       #1142
      01000E7CH   LINE      ---      ---       #1143
      01000E7CH   LINE      ---      ---       #1145
      01000E83H   LINE      ---      ---       #1146
      01000E83H   LINE      ---      ---       #1147
      01000E8DH   LINE      ---      ---       #1148
      01000E93H   LINE      ---      ---       #1149
      01000E9BH   LINE      ---      ---       #1150
      01000E9BH   LINE      ---      ---       #1152
      01000EA3H   LINE      ---      ---       #1153
      01000EA3H   LINE      ---      ---       #1155
      01000EB1H   LINE      ---      ---       #1156
      01000EBEH   LINE      ---      ---       #1157
      01000EC4H   LINE      ---      ---       #1158
      01000EDDH   LINE      ---      ---       #1166
      01000EE2H   LINE      ---      ---       #1167
      01000EECH   LINE      ---      ---       #1168
      01000EF9H   LINE      ---      ---       #1169
      01000EFCH   LINE      ---      ---       #1170
      01000F09H   LINE      ---      ---       #1171
      01000F0CH   LINE      ---      ---       #1172
      01000F11H   LINE      ---      ---       #1176
      01000F11H   LINE      ---      ---       #1177
      01000F14H   LINE      ---      ---       #1179
      02004CABH   SYMBOL    XDATA    VOID      R_AD_CaliDot1
      02004CADH   SYMBOL    XDATA    VOID      R_AD_CaliDot2
      02004CAFH   SYMBOL    XDATA    VOID      R_AD_CaliDot3
      02004CB1H   SYMBOL    XDATA    VOID      R_CaliState
      02004CB2H   SYMBOL    XDATA    VOID      R_OpenWeight_Ad
      02004DF5H   SYMBOL    XDATA    VOID      R_AdFilTimes
      02004DF7H   SYMBOL    XDATA    VOID      weight_temp
      02004DF9H   SYMBOL    XDATA    VOID      R_AD_BUF
      02004DFBH   SYMBOL    XDATA    VOID      R_AD_PowerOnZero
      ---         BLOCKEND  CODE     ---       LVL=1
      ---         BLOCKEND  CODE     ---       LVL=0

      01002B27H   BLOCK     CODE     ---       LVL=0
      01002B27H   LINE      ---      ---       #1191
      01002B27H   LINE      ---      ---       #1192
      01002B27H   BLOCK     CODE     NEAR LAB  LVL=1
      01002B27H   LINE      ---      ---       #1196
      01002B2BH   LINE      ---      ---       #1197
      01002B2BH   LINE      ---      ---       #1198
      01002B30H   LINE      ---      ---       #1199
      01002B35H   LINE      ---      ---       #1201
      01002B35H   LINE      ---      ---       #1203
      01002B39H   LINE      ---      ---       #1204
      01002B39H   LINE      ---      ---       #1205
      01002B3FH   LINE      ---      ---       #1206
      01002B45H   LINE      ---      ---       #1208
      01002B45H   LINE      ---      ---       #1210
      01002B4FH   LINE      ---      ---       #1211
      01002B4FH   LINE      ---      ---       #1212
      01002B4FH   LINE      ---      ---       #1213
      01002B55H   LINE      ---      ---       #1214
      01002B55H   LINE      ---      ---       #1215
      01002B57H   LINE      ---      ---       #1217
      01002B5BH   LINE      ---      ---       #1219
      01002B5BH   LINE      ---      ---       #1220
      01002B62H   LINE      ---      ---       #1221
      01002B62H   LINE      ---      ---       #1222
      01002B66H   LINE      ---      ---       #1223
      01002B69H   LINE      ---      ---       #1225
      01002B6DH   LINE      ---      ---       #1226
      01002B71H   LINE      ---      ---       #1227
      01002B7AH   LINE      ---      ---       #1235
      01002B80H   LINE      ---      ---       #1237
      01002B80H   LINE      ---      ---       #1238
      01002B81H   LINE      ---      ---       #1239
      01002B81H   LINE      ---      ---       #1240
      01002B87H   LINE      ---      ---       #1241
      01002B87H   LINE      ---      ---       #1242
      01002B89H   LINE      ---      ---       #1243
      01002B8DH   LINE      ---      ---       #1244
      01002B8DH   LINE      ---      ---       #1245
      01002B92H   LINE      ---      ---       #1246
      01002B92H   LINE      ---      ---       #1247
      01002B97H   LINE      ---      ---       #1248
      01002B99H   LINE      ---      ---       #1249
      01002B9FH   LINE      ---      ---       #1259
      01002BA3H   LINE      ---      ---       #1260
      01002BA7H   LINE      ---      ---       #1261
      01002BACH   LINE      ---      ---       #1263
      01002BB1H   LINE      ---      ---       #1265
      01002BB5H   LINE      ---      ---       #1267
      01002BB5H   LINE      ---      ---       #1268
      01002BB5H   LINE      ---      ---       #1269
      01002BB5H   LINE      ---      ---       #1270
      01002BBAH   LINE      ---      ---       #1271
      01002BBAH   LINE      ---      ---       #1272
      01002BBAH   LINE      ---      ---       #1276
      02004CB4H   SYMBOL    XDATA    VOID      comm_doing
      02004CB5H   SYMBOL    XDATA    VOID      StandbyState
      ---         BLOCKEND  CODE     ---       LVL=1
      ---         BLOCKEND  CODE     ---       LVL=0

      01002CE5H   BLOCK     CODE     ---       LVL=0
      01002CE5H   LINE      ---      ---       #1290
      01002CE5H   LINE      ---      ---       #1291
      01002CE5H   BLOCK     CODE     NEAR LAB  LVL=1
      01002CE5H   LINE      ---      ---       #1296
      01002CE8H   LINE      ---      ---       #1297
      01002CE8H   LINE      ---      ---       #1298
      01002CEDH   LINE      ---      ---       #1299
      01002CF2H   LINE      ---      ---       #1301
      01002CF2H   LINE      ---      ---       #1304
      01002CF8H   LINE      ---      ---       #1305
      01002CF8H   LINE      ---      ---       #1306
      01002CFEH   LINE      ---      ---       #1307
      01002CFEH   LINE      ---      ---       #1308
      01002D00H   LINE      ---      ---       #1309
      01002D04H   LINE      ---      ---       #1310
      01002D06H   LINE      ---      ---       #1312
      01002D06H   LINE      ---      ---       #1313
      01002D0BH   LINE      ---      ---       #1314
      01002D0EH   LINE      ---      ---       #1315
      01002D0EH   LINE      ---      ---       #1316
      01002D0EH   LINE      ---      ---       #1318
      01002D15H   LINE      ---      ---       #1319
      01002D15H   LINE      ---      ---       #1320
      01002D1BH   LINE      ---      ---       #1321
      01002D1BH   LINE      ---      ---       #1322
      01002D1DH   LINE      ---      ---       #1323
      01002D21H   LINE      ---      ---       #1325
      01002D21H   LINE      ---      ---       #1326
      01002D26H   LINE      ---      ---       #1327
      01002D26H   LINE      ---      ---       #1328
      01002D2BH   LINE      ---      ---       #1329
      01002D2FH   LINE      ---      ---       #1330
      01002D2FH   LINE      ---      ---       #1331
      01002D2FH   LINE      ---      ---       #1333
      01002D36H   LINE      ---      ---       #1334
      01002D36H   LINE      ---      ---       #1335
      01002D39H   LINE      ---      ---       #1336
      01002D39H   LINE      ---      ---       #1338
      01002D40H   LINE      ---      ---       #1339
      01002D40H   LINE      ---      ---       #1340
      01002D46H   LINE      ---      ---       #1341
      01002D46H   LINE      ---      ---       #1342
      01002D48H   LINE      ---      ---       #1343
      01002D4CH   LINE      ---      ---       #1344
      01002D4CH   LINE      ---      ---       #1345
      01002D51H   LINE      ---      ---       #1346
      01002D51H   LINE      ---      ---       #1347
      01002D56H   LINE      ---      ---       #1348
      01002D5AH   LINE      ---      ---       #1349
      01002D5AH   LINE      ---      ---       #1350
      01002D5AH   LINE      ---      ---       #1352
      01002D61H   LINE      ---      ---       #1353
      01002D61H   LINE      ---      ---       #1354
      01002D67H   LINE      ---      ---       #1355
      01002D67H   LINE      ---      ---       #1356
      01002D69H   LINE      ---      ---       #1357
      01002D6DH   LINE      ---      ---       #1358
      01002D6DH   LINE      ---      ---       #1359
      01002D72H   LINE      ---      ---       #1360
      01002D72H   LINE      ---      ---       #1361
      01002D77H   LINE      ---      ---       #1362
      01002D7BH   LINE      ---      ---       #1363
      01002D7BH   LINE      ---      ---       #1364
      01002D7BH   LINE      ---      ---       #1366
      01002D83H   LINE      ---      ---       #1367
      01002D83H   LINE      ---      ---       #1368
      01002D89H   LINE      ---      ---       #1369
      01002D89H   LINE      ---      ---       #1370
      01002D8BH   LINE      ---      ---       #1371
      01002D94H   LINE      ---      ---       #1372
      01002D98H   LINE      ---      ---       #1373
      01002D98H   LINE      ---      ---       #1374
      01002D9DH   LINE      ---      ---       #1375
      01002D9DH   LINE      ---      ---       #1376
      01002DA2H   LINE      ---      ---       #1377
      01002DA6H   LINE      ---      ---       #1378
      01002DABH   LINE      ---      ---       #1379
      01002DABH   LINE      ---      ---       #1380
      01002DABH   LINE      ---      ---       #1382
      01002DB2H   LINE      ---      ---       #1383
      01002DB2H   LINE      ---      ---       #1384
      01002DBDH   LINE      ---      ---       #1385
      01002DBDH   LINE      ---      ---       #1386
      01002DC3H   LINE      ---      ---       #1387
      01002DC7H   LINE      ---      ---       #1388
      01002DC7H   LINE      ---      ---       #1389
      01002DC7H   LINE      ---      ---       #1391
      02004CB6H   SYMBOL    XDATA    VOID      comm_doing
      02004CB7H   SYMBOL    XDATA    VOID      PowerOnState
      ---         BLOCKEND  CODE     ---       LVL=1
      ---         BLOCKEND  CODE     ---       LVL=0

      01000F15H   BLOCK     CODE     ---       LVL=0
      01000F15H   LINE      ---      ---       #1396
      01000F15H   LINE      ---      ---       #1397
      01000F15H   BLOCK     CODE     NEAR LAB  LVL=1
      01000F15H   LINE      ---      ---       #1401
      01000F19H   LINE      ---      ---       #1402
      01000F19H   LINE      ---      ---       #1403
      01000F1EH   LINE      ---      ---       #1404
      01000F20H   LINE      ---      ---       #1405
      01000F20H   LINE      ---      ---       #1407
      01000F24H   LINE      ---      ---       #1408
      01000F2AH   LINE      ---      ---       #1410
      01000F2DH   LINE      ---      ---       #1411
      01000F2DH   LINE      ---      ---       #1412
      01000F36H   LINE      ---      ---       #1413
      01000F39H   LINE      ---      ---       #1414
      01000F39H   LINE      ---      ---       #1417
      01000F42H   LINE      ---      ---       #1418
      01000F46H   LINE      ---      ---       #1420
      01000F4AH   LINE      ---      ---       #1421
      01000F50H   LINE      ---      ---       #1423
      01000F52H   LINE      ---      ---       #1425
      02004CB8H   SYMBOL    XDATA    VOID      timecount
      02004CB9H   SYMBOL    XDATA    VOID      B_Timeout
      ---         BLOCKEND  CODE     ---       LVL=1
      ---         BLOCKEND  CODE     ---       LVL=0

      01002BBBH   BLOCK     CODE     ---       LVL=0
      01002BBBH   LINE      ---      ---       #1444
      01002BBBH   LINE      ---      ---       #1445
      01002BBBH   BLOCK     CODE     NEAR LAB  LVL=1
      01002BBBH   LINE      ---      ---       #1449
      01002BBFH   LINE      ---      ---       #1450
      01002BBFH   LINE      ---      ---       #1451
      01002BC6H   LINE      ---      ---       #1453
      01002BC6H   LINE      ---      ---       #1455
      01002BC9H   LINE      ---      ---       #1456
      01002BC9H   LINE      ---      ---       #1457
      01002BCCH   LINE      ---      ---       #1458
      01002BD1H   LINE      ---      ---       #1459
      01002BD5H   LINE      ---      ---       #1460
      01002BDAH   LINE      ---      ---       #1461
      01002BDEH   LINE      ---      ---       #1462
      01002BE3H   LINE      ---      ---       #1463
      01002BE7H   LINE      ---      ---       #1464
      01002BECH   LINE      ---      ---       #1465
      01002BF0H   LINE      ---      ---       #1466
      01002BF5H   LINE      ---      ---       #1467
      01002BFCH   LINE      ---      ---       #1468
      01002BFCH   LINE      ---      ---       #1469
      01002C00H   LINE      ---      ---       #1470
      01002C02H   LINE      ---      ---       #1471
      01002C04H   LINE      ---      ---       #1472
      01002C06H   LINE      ---      ---       #1473
      01002C08H   LINE      ---      ---       #1474
      01002C09H   LINE      ---      ---       #1476
      01002C09H   LINE      ---      ---       #1478
      01002C13H   LINE      ---      ---       #1479
      01002C13H   LINE      ---      ---       #1480
      01002C14H   LINE      ---      ---       #1483
      01002C1CH   LINE      ---      ---       #1484
      01002C1CH   LINE      ---      ---       #1485
      01002C22H   LINE      ---      ---       #1487
      01002C2AH   LINE      ---      ---       #1488
      01002C2AH   LINE      ---      ---       #1489
      01002C30H   LINE      ---      ---       #1490
      01002C34H   LINE      ---      ---       #1491
      01002C39H   LINE      ---      ---       #1492
      01002C3AH   LINE      ---      ---       #1494
      01002C3AH   LINE      ---      ---       #1497
      01002C42H   LINE      ---      ---       #1498
      01002C42H   LINE      ---      ---       #1499
      01002C48H   LINE      ---      ---       #1501
      01002C50H   LINE      ---      ---       #1502
      01002C50H   LINE      ---      ---       #1503
      01002C56H   LINE      ---      ---       #1504
      01002C5AH   LINE      ---      ---       #1505
      01002C5FH   LINE      ---      ---       #1506
      01002C60H   LINE      ---      ---       #1509
      01002C60H   LINE      ---      ---       #1513
      01002C68H   LINE      ---      ---       #1514
      01002C68H   LINE      ---      ---       #1516
      01002C75H   LINE      ---      ---       #1517
      01002C75H   LINE      ---      ---       #1518
      01002C79H   LINE      ---      ---       #1519
      01002C7FH   LINE      ---      ---       #1520
      01002C81H   LINE      ---      ---       #1522
      01002C81H   LINE      ---      ---       #1523
      01002C86H   LINE      ---      ---       #1524
      01002C8CH   LINE      ---      ---       #1525
      01002C8CH   LINE      ---      ---       #1527
      01002C9EH   LINE      ---      ---       #1528
      01002C9EH   LINE      ---      ---       #1533
      01002CA4H   LINE      ---      ---       #1534
      01002CA8H   LINE      ---      ---       #1535
      01002CADH   LINE      ---      ---       #1536
      01002CB1H   LINE      ---      ---       #1537
      01002CB2H   LINE      ---      ---       #1540
      01002CB2H   LINE      ---      ---       #1544
      01002CB9H   LINE      ---      ---       #1545
      01002CB9H   LINE      ---      ---       #1546
      01002CBEH   LINE      ---      ---       #1547
      01002CC4H   LINE      ---      ---       #1549
      01002CCAH   LINE      ---      ---       #1550
      01002CCAH   LINE      ---      ---       #1552
      01002CD0H   LINE      ---      ---       #1553
      01002CD4H   LINE      ---      ---       #1554
      01002CD9H   LINE      ---      ---       #1555
      01002CD9H   LINE      ---      ---       #1557
      01002CD9H   LINE      ---      ---       #1560
      01002CD9H   LINE      ---      ---       #1562
      02004CBAH   SYMBOL    XDATA    VOID      R_TimeOut
      02004CBFH   SYMBOL    XDATA    VOID      B_TimeBase_1s
      ---         BLOCKEND  CODE     ---       LVL=1
      ---         BLOCKEND  CODE     ---       LVL=0

      ---         MODULE    ---      ---       CS_COMMTO1186
      02004D68H   PUBLIC    XDATA    BYTE      uartTimeoutCnt
      02004D58H   PUBLIC    XDATA    ---       uartTxBuf
      02004D55H   PUBLIC    XDATA    ---       R_Weight_Com_Coo
      02004D45H   PUBLIC    XDATA    ---       uartRcvBuf
      010024C4H   PUBLIC    CODE     ---       _CS_CommTo1186_SendCmd
      01003901H   PUBLIC    CODE     ---       _CS_CommTo1186_Xor
      01000701H   PUBLIC    CODE     ---       CS_1186Com_Reset_Proc
      01003850H   PUBLIC    CODE     ---       CS_1186Com_ReadAdZero_Proc
      0100071BH   PUBLIC    CODE     ---       CS_1186Com_SetOpenWeight_Proc
      0100066DH   PUBLIC    CODE     ---       CS_1186Com_SetSleepMode_Proc
      010005E2H   PUBLIC    CODE     ---       CS_1186Com_ReadTime_Proc
      0100052DH   PUBLIC    CODE     ---       CS_1186Com_SetLcd_Proc
      01003778H   PUBLIC    CODE     ---       CS_1186Com_ReadAdc_Proc
      010036C4H   PUBLIC    CODE     ---       CS_1186Com_ReadMacAdress_Proc
      010004E5H   PUBLIC    CODE     ---       CS_Scale_1186Com
      01002DC8H   PUBLIC    CODE     ---       CS_If1186ComSucess
      01002CDAH   PUBLIC    CODE     ---       _CS_Scale_1186ComSend

      01002CDAH   BLOCK     CODE     ---       LVL=0
      01002CDAH   LINE      ---      ---       #18
      01002CDAH   LINE      ---      ---       #19
      01002CDAH   LINE      ---      ---       #20
      01002CDFH   LINE      ---      ---       #21
      01002CE4H   LINE      ---      ---       #22
      ---         BLOCKEND  ---      ---       LVL=0

      01002DC8H   BLOCK     CODE     ---       LVL=0
      01002DC8H   LINE      ---      ---       #25
      01002DC8H   LINE      ---      ---       #26
      01002DC8H   LINE      ---      ---       #27
      01002DCDH   LINE      ---      ---       #28
      ---         BLOCKEND  ---      ---       LVL=0

      010004E5H   BLOCK     CODE     ---       LVL=0
      010004E5H   LINE      ---      ---       #31
      010004E5H   LINE      ---      ---       #32
      010004E5H   LINE      ---      ---       #34
      010004EEH   LINE      ---      ---       #35
      010004EEH   LINE      ---      ---       #37
      010004FFH   LINE      ---      ---       #38
      010004FFH   LINE      ---      ---       #39
      010004FFH   LINE      ---      ---       #40
      01000501H   LINE      ---      ---       #41
      01000504H   LINE      ---      ---       #42
      01000506H   LINE      ---      ---       #43
      01000508H   LINE      ---      ---       #44
      0100050AH   LINE      ---      ---       #45
      0100050AH   LINE      ---      ---       #46
      0100050AH   LINE      ---      ---       #47
      0100050CH   LINE      ---      ---       #48
      0100050FH   LINE      ---      ---       #49
      01000511H   LINE      ---      ---       #50
      01000511H   LINE      ---      ---       #51
      01000511H   LINE      ---      ---       #52
      01000511H   LINE      ---      ---       #53
      01000511H   LINE      ---      ---       #54
      01000513H   LINE      ---      ---       #55
      01000516H   LINE      ---      ---       #56
      01000518H   LINE      ---      ---       #69
      01000518H   LINE      ---      ---       #70
      01000518H   LINE      ---      ---       #71
      01000518H   LINE      ---      ---       #72
      01000518H   LINE      ---      ---       #73
      01000519H   LINE      ---      ---       #75
      01000519H   LINE      ---      ---       #76
      0100051BH   LINE      ---      ---       #77
      01000520H   LINE      ---      ---       #78
      01000526H   LINE      ---      ---       #79
      0100052CH   LINE      ---      ---       #80
      0100052CH   LINE      ---      ---       #82
      ---         BLOCKEND  ---      ---       LVL=0

      010036C4H   BLOCK     CODE     ---       LVL=0
      010036C4H   LINE      ---      ---       #86
      010036C4H   LINE      ---      ---       #87
      010036C4H   BLOCK     CODE     NEAR LAB  LVL=1
      010036C4H   LINE      ---      ---       #91
      010036C9H   LINE      ---      ---       #92
      010036D1H   LINE      ---      ---       #94
      010036D8H   LINE      ---      ---       #95
      010036D8H   LINE      ---      ---       #96
      010036DEH   LINE      ---      ---       #97
      010036E2H   LINE      ---      ---       #98
      010036E6H   LINE      ---      ---       #99
      010036F1H   LINE      ---      ---       #100
      010036F7H   LINE      ---      ---       #101
      010036FDH   LINE      ---      ---       #102
      01003702H   LINE      ---      ---       #103
      01003705H   LINE      ---      ---       #104
      01003705H   LINE      ---      ---       #105
      0100370DH   LINE      ---      ---       #106
      0100370DH   LINE      ---      ---       #107
      0100371FH   LINE      ---      ---       #108
      0100371FH   LINE      ---      ---       #109
      0100373EH   LINE      ---      ---       #112
      0100373EH   LINE      ---      ---       #117
      01003746H   LINE      ---      ---       #118
      0100374CH   LINE      ---      ---       #119
      01003754H   LINE      ---      ---       #120
      0100375AH   LINE      ---      ---       #121
      01003760H   LINE      ---      ---       #122
      01003766H   LINE      ---      ---       #135
      0100376BH   LINE      ---      ---       #136
      01003770H   LINE      ---      ---       #137
      01003771H   LINE      ---      ---       #139
      01003777H   LINE      ---      ---       #140
      01003777H   LINE      ---      ---       #141
      01003777H   LINE      ---      ---       #142
      02004E4BH   SYMBOL    XDATA    VOID      i
      02004E4CH   SYMBOL    XDATA    VOID      ptr
      ---         BLOCKEND  CODE     ---       LVL=1
      ---         BLOCKEND  CODE     ---       LVL=0

      01003778H   BLOCK     CODE     ---       LVL=0
      01003778H   LINE      ---      ---       #145
      01003778H   LINE      ---      ---       #146
      01003778H   BLOCK     CODE     NEAR LAB  LVL=1
      01003778H   LINE      ---      ---       #149
      0100377FH   LINE      ---      ---       #150
      0100377FH   LINE      ---      ---       #151
      0100378AH   LINE      ---      ---       #152
      01003790H   LINE      ---      ---       #153
      01003796H   LINE      ---      ---       #154
      0100379BH   LINE      ---      ---       #155
      0100379EH   LINE      ---      ---       #156
      0100379EH   LINE      ---      ---       #157
      010037A9H   LINE      ---      ---       #158
      010037A9H   LINE      ---      ---       #159
      010037BEH   LINE      ---      ---       #160
      010037BEH   LINE      ---      ---       #161
      010037C9H   LINE      ---      ---       #162
      010037C9H   LINE      ---      ---       #165
      010037D1H   LINE      ---      ---       #167
      010037D4H   LINE      ---      ---       #168
      010037D4H   LINE      ---      ---       #169
      010037DAH   LINE      ---      ---       #170
      010037E3H   LINE      ---      ---       #171
      01003803H   LINE      ---      ---       #172
      01003823H   LINE      ---      ---       #173
      01003830H   LINE      ---      ---       #174
      01003830H   LINE      ---      ---       #176
      01003836H   LINE      ---      ---       #177
      0100383CH   LINE      ---      ---       #179
      01003842H   LINE      ---      ---       #180
      01003848H   LINE      ---      ---       #182
      01003849H   LINE      ---      ---       #184
      0100384FH   LINE      ---      ---       #185
      0100384FH   LINE      ---      ---       #186
      0100384FH   LINE      ---      ---       #187
      00000004H   SYMBOL    DATA     VOID      data_rec
      ---         BLOCKEND  CODE     ---       LVL=1
      ---         BLOCKEND  CODE     ---       LVL=0

      0100052DH   BLOCK     CODE     ---       LVL=0
      0100052DH   LINE      ---      ---       #191
      0100052DH   LINE      ---      ---       #192
      0100052DH   LINE      ---      ---       #194
      01000534H   LINE      ---      ---       #195
      01000534H   LINE      ---      ---       #196
      0100053FH   LINE      ---      ---       #197
      01000545H   LINE      ---      ---       #198
      0100054BH   LINE      ---      ---       #199
      01000550H   LINE      ---      ---       #200
      01000552H   LINE      ---      ---       #201
      01000552H   LINE      ---      ---       #202
      0100055AH   LINE      ---      ---       #203
      0100055AH   LINE      ---      ---       #204
      0100056BH   LINE      ---      ---       #205
      0100056BH   LINE      ---      ---       #206
      01000572H   LINE      ---      ---       #207
      01000572H   LINE      ---      ---       #208
      01000578H   LINE      ---      ---       #209
      0100057EH   LINE      ---      ---       #211
      01000584H   LINE      ---      ---       #212
      0100058AH   LINE      ---      ---       #213
      0100058BH   LINE      ---      ---       #215
      01000591H   LINE      ---      ---       #216
      01000591H   LINE      ---      ---       #217
      01000591H   LINE      ---      ---       #218
      ---         BLOCKEND  ---      ---       LVL=0

      010005E2H   BLOCK     CODE     ---       LVL=0
      010005E2H   LINE      ---      ---       #222
      010005E2H   LINE      ---      ---       #223
      010005E2H   LINE      ---      ---       #225
      010005E9H   LINE      ---      ---       #226
      010005E9H   LINE      ---      ---       #227
      010005F4H   LINE      ---      ---       #228
      010005FAH   LINE      ---      ---       #229
      01000600H   LINE      ---      ---       #230
      01000605H   LINE      ---      ---       #231
      01000607H   LINE      ---      ---       #232
      01000607H   LINE      ---      ---       #233
      0100060FH   LINE      ---      ---       #234
      0100060FH   LINE      ---      ---       #235
      01000620H   LINE      ---      ---       #236
      01000620H   LINE      ---      ---       #237
      01000627H   LINE      ---      ---       #238
      01000627H   LINE      ---      ---       #240
      0100062DH   LINE      ---      ---       #241
      01000635H   LINE      ---      ---       #242
      0100063DH   LINE      ---      ---       #243
      01000645H   LINE      ---      ---       #266
      0100064AH   LINE      ---      ---       #267
      0100064FH   LINE      ---      ---       #268
      01000653H   LINE      ---      ---       #270
      01000654H   LINE      ---      ---       #272
      0100065AH   LINE      ---      ---       #273
      0100065AH   LINE      ---      ---       #274
      0100065AH   LINE      ---      ---       #275
      ---         BLOCKEND  ---      ---       LVL=0

      0100066DH   BLOCK     CODE     ---       LVL=0
      0100066DH   LINE      ---      ---       #279
      0100066DH   LINE      ---      ---       #280
      0100066DH   BLOCK     CODE     NEAR LAB  LVL=1
      0100066DH   LINE      ---      ---       #283
      01000679H   LINE      ---      ---       #285
      01000681H   LINE      ---      ---       #286
      01000681H   LINE      ---      ---       #288
      01000687H   LINE      ---      ---       #289
      01000695H   LINE      ---      ---       #290
      010006A5H   LINE      ---      ---       #291
      010006ACH   LINE      ---      ---       #292
      010006AFH   LINE      ---      ---       #293
      010006BAH   LINE      ---      ---       #295
      010006BCH   LINE      ---      ---       #297
      010006C2H   LINE      ---      ---       #298
      010006C8H   LINE      ---      ---       #299
      010006CDH   LINE      ---      ---       #300
      010006CFH   LINE      ---      ---       #301
      010006CFH   LINE      ---      ---       #302
      010006D6H   LINE      ---      ---       #303
      010006D6H   LINE      ---      ---       #304
      010006E8H   LINE      ---      ---       #305
      010006E8H   LINE      ---      ---       #306
      010006EFH   LINE      ---      ---       #307
      010006EFH   LINE      ---      ---       #308
      010006F4H   LINE      ---      ---       #309
      010006F9H   LINE      ---      ---       #310
      010006FAH   LINE      ---      ---       #312
      01000700H   LINE      ---      ---       #313
      01000700H   LINE      ---      ---       #314
      01000700H   LINE      ---      ---       #315
      00000004H   SYMBOL    DATA     VOID      R_AD_Zero
      ---         BLOCKEND  CODE     ---       LVL=1
      ---         BLOCKEND  CODE     ---       LVL=0

      0100071BH   BLOCK     CODE     ---       LVL=0
      0100071BH   LINE      ---      ---       #320
      0100071BH   LINE      ---      ---       #321
      0100071BH   BLOCK     CODE     NEAR LAB  LVL=1
      0100071BH   LINE      ---      ---       #323
      01000724H   LINE      ---      ---       #324
      0100072CH   LINE      ---      ---       #325
      0100072CH   LINE      ---      ---       #326
      01000732H   LINE      ---      ---       #327
      01000741H   LINE      ---      ---       #328
      01000752H   LINE      ---      ---       #329
      01000755H   LINE      ---      ---       #330
      01000758H   LINE      ---      ---       #331
      01000763H   LINE      ---      ---       #332
      01000769H   LINE      ---      ---       #333
      0100076FH   LINE      ---      ---       #334
      01000774H   LINE      ---      ---       #335
      01000776H   LINE      ---      ---       #336
      01000776H   LINE      ---      ---       #337
      0100077DH   LINE      ---      ---       #338
      0100077DH   LINE      ---      ---       #339
      0100078FH   LINE      ---      ---       #340
      0100078FH   LINE      ---      ---       #341
      01000796H   LINE      ---      ---       #342
      01000796H   LINE      ---      ---       #346
      0100079BH   LINE      ---      ---       #347
      010007A0H   LINE      ---      ---       #350
      010007A1H   LINE      ---      ---       #352
      010007A7H   LINE      ---      ---       #353
      010007A7H   LINE      ---      ---       #354
      010007A7H   LINE      ---      ---       #355
      00000004H   SYMBOL    DATA     VOID      R_Open_Weight
      ---         BLOCKEND  CODE     ---       LVL=1
      ---         BLOCKEND  CODE     ---       LVL=0

      01003850H   BLOCK     CODE     ---       LVL=0
      01003850H   LINE      ---      ---       #359
      01003850H   LINE      ---      ---       #360
      01003850H   BLOCK     CODE     NEAR LAB  LVL=1
      01003850H   LINE      ---      ---       #364
      01003857H   LINE      ---      ---       #365
      01003857H   LINE      ---      ---       #366
      01003862H   LINE      ---      ---       #367
      01003868H   LINE      ---      ---       #368
      0100386EH   LINE      ---      ---       #369
      01003873H   LINE      ---      ---       #370
      01003876H   LINE      ---      ---       #371
      01003876H   LINE      ---      ---       #372
      01003880H   LINE      ---      ---       #373
      01003880H   LINE      ---      ---       #374
      01003892H   LINE      ---      ---       #375
      01003892H   LINE      ---      ---       #376
      0100389AH   LINE      ---      ---       #377
      0100389AH   LINE      ---      ---       #378
      010038A1H   LINE      ---      ---       #379
      010038C1H   LINE      ---      ---       #380
      010038E1H   LINE      ---      ---       #381
      010038E6H   LINE      ---      ---       #382
      010038EFH   LINE      ---      ---       #384
      010038F4H   LINE      ---      ---       #385
      010038F9H   LINE      ---      ---       #387
      010038FAH   LINE      ---      ---       #389
      01003900H   LINE      ---      ---       #390
      01003900H   LINE      ---      ---       #391
      01003900H   LINE      ---      ---       #392
      00000004H   SYMBOL    DATA     VOID      data_rec
      00000006H   SYMBOL    DATA     VOID      R_AD_Zero
      ---         BLOCKEND  CODE     ---       LVL=1
      ---         BLOCKEND  CODE     ---       LVL=0

      01000701H   BLOCK     CODE     ---       LVL=0
      01000701H   LINE      ---      ---       #396
      01000701H   LINE      ---      ---       #397
      01000701H   LINE      ---      ---       #399
      01000708H   LINE      ---      ---       #400
      01000708H   LINE      ---      ---       #401
      01000713H   LINE      ---      ---       #402
      01000715H   LINE      ---      ---       #403
      0100071AH   LINE      ---      ---       #405
      0100071AH   LINE      ---      ---       #407
      ---         BLOCKEND  ---      ---       LVL=0

      01003901H   BLOCK     CODE     ---       LVL=0
      01003901H   LINE      ---      ---       #411
      0100390CH   LINE      ---      ---       #412
      0100390CH   BLOCK     CODE     NEAR LAB  LVL=1
      0100390CH   LINE      ---      ---       #414
      01003913H   LINE      ---      ---       #415
      01003913H   LINE      ---      ---       #416
      01003945H   LINE      ---      ---       #417
      01003948H   LINE      ---      ---       #418
      0100395AH   LINE      ---      ---       #419
      00000007H   SYMBOL    DATA     VOID      i
      ---         BLOCKEND  CODE     ---       LVL=1
      ---         BLOCKEND  CODE     ---       LVL=0

      010024C4H   BLOCK     CODE     ---       LVL=0
      010024C4H   LINE      ---      ---       #421
      010024D2H   LINE      ---      ---       #422
      010024D2H   BLOCK     CODE     NEAR LAB  LVL=1
      010024D2H   LINE      ---      ---       #423
      010024E5H   LINE      ---      ---       #426
      010024EBH   LINE      ---      ---       #427
      0100251AH   LINE      ---      ---       #428
      0100251AH   LINE      ---      ---       #429
      0100251AH   LINE      ---      ---       #430
      0100251FH   LINE      ---      ---       #431
      01002521H   LINE      ---      ---       #432
      01002523H   LINE      ---      ---       #433
      01002529H   LINE      ---      ---       #434
      0100252BH   LINE      ---      ---       #435
      0100252BH   LINE      ---      ---       #436
      01002531H   LINE      ---      ---       #437
      01002535H   LINE      ---      ---       #438
      01002539H   LINE      ---      ---       #439
      0100253FH   LINE      ---      ---       #440
      01002541H   LINE      ---      ---       #441
      01002541H   LINE      ---      ---       #442
      01002547H   LINE      ---      ---       #443
      0100254BH   LINE      ---      ---       #444
      0100254FH   LINE      ---      ---       #445
      01002555H   LINE      ---      ---       #446
      01002557H   LINE      ---      ---       #447
      01002557H   LINE      ---      ---       #448
      0100255DH   LINE      ---      ---       #449
      01002561H   LINE      ---      ---       #450
      01002565H   LINE      ---      ---       #451
      0100256BH   LINE      ---      ---       #452
      0100256DH   LINE      ---      ---       #453
      0100256DH   LINE      ---      ---       #454
      01002573H   LINE      ---      ---       #455
      01002577H   LINE      ---      ---       #456
      0100258CH   LINE      ---      ---       #457
      01002593H   LINE      ---      ---       #458
      010025A3H   LINE      ---      ---       #459
      010025A9H   LINE      ---      ---       #460
      010025ABH   LINE      ---      ---       #461
      010025ABH   LINE      ---      ---       #462
      010025B1H   LINE      ---      ---       #463
      010025B5H   LINE      ---      ---       #464
      010025CAH   LINE      ---      ---       #465
      010025D4H   LINE      ---      ---       #466
      010025DBH   LINE      ---      ---       #467
      010025EBH   LINE      ---      ---       #468
      010025F1H   LINE      ---      ---       #469
      010025F3H   LINE      ---      ---       #470
      010025F3H   LINE      ---      ---       #471
      010025F9H   LINE      ---      ---       #472
      010025FDH   LINE      ---      ---       #473
      01002601H   LINE      ---      ---       #474
      01002607H   LINE      ---      ---       #475
      01002609H   LINE      ---      ---       #476
      01002609H   LINE      ---      ---       #477
      0100260FH   LINE      ---      ---       #478
      01002613H   LINE      ---      ---       #479
      01002628H   LINE      ---      ---       #480
      01002632H   LINE      ---      ---       #481
      0100263CH   LINE      ---      ---       #482
      01002643H   LINE      ---      ---       #483
      01002653H   LINE      ---      ---       #484
      01002659H   LINE      ---      ---       #485
      0100265BH   LINE      ---      ---       #486
      0100265BH   LINE      ---      ---       #487
      01002661H   LINE      ---      ---       #488
      01002665H   LINE      ---      ---       #489
      0100267AH   LINE      ---      ---       #490
      01002684H   LINE      ---      ---       #491
      0100268EH   LINE      ---      ---       #492
      01002698H   LINE      ---      ---       #493
      0100269FH   LINE      ---      ---       #494
      010026AFH   LINE      ---      ---       #495
      010026B5H   LINE      ---      ---       #496
      010026B7H   LINE      ---      ---       #497
      010026B7H   LINE      ---      ---       #498
      010026BDH   LINE      ---      ---       #499
      010026C1H   LINE      ---      ---       #500
      010026D6H   LINE      ---      ---       #501
      010026E0H   LINE      ---      ---       #502
      010026EAH   LINE      ---      ---       #503
      010026F1H   LINE      ---      ---       #504
      01002701H   LINE      ---      ---       #505
      01002707H   LINE      ---      ---       #506
      01002709H   LINE      ---      ---       #507
      01002709H   LINE      ---      ---       #508
      0100270FH   LINE      ---      ---       #509
      01002713H   LINE      ---      ---       #510
      01002728H   LINE      ---      ---       #511
      01002732H   LINE      ---      ---       #512
      01002739H   LINE      ---      ---       #513
      01002749H   LINE      ---      ---       #514
      0100274FH   LINE      ---      ---       #515
      01002751H   LINE      ---      ---       #516
      01002751H   LINE      ---      ---       #517
      01002757H   LINE      ---      ---       #518
      0100275BH   LINE      ---      ---       #519
      01002770H   LINE      ---      ---       #520
      0100277AH   LINE      ---      ---       #521
      01002784H   LINE      ---      ---       #522
      0100278EH   LINE      ---      ---       #523
      01002798H   LINE      ---      ---       #524
      0100279FH   LINE      ---      ---       #525
      010027AFH   LINE      ---      ---       #526
      010027B3H   LINE      ---      ---       #527
      010027B5H   LINE      ---      ---       #528
      010027B5H   LINE      ---      ---       #529
      010027BAH   LINE      ---      ---       #530
      010027C0H   LINE      ---      ---       #531
      010027C0H   LINE      ---      ---       #532
      010027C0H   LINE      ---      ---       #533
      02004D86H   SYMBOL    XDATA    VOID      buf
      02004D90H   SYMBOL    XDATA    VOID      len
      ---         BLOCKEND  CODE     ---       LVL=1
      ---         BLOCKEND  CODE     ---       LVL=0

      ---         MODULE    ---      ---       CS_SCALEDISPLAY
      02004D2EH   PUBLIC    XDATA    ---       CS_Lcd_Table
      02004D28H   PUBLIC    XDATA    ---       CS_Lcd_Send_Data
      02004D23H   PUBLIC    XDATA    ---       CS_lcd_showbuf
      02004D1DH   PUBLIC    XDATA    ---       CS_Lcd_Send_Data_BAK
      01000F73H   PUBLIC    CODE     ---       CS_ScaleDisplay_SteadyFlash
      01000FC3H   PUBLIC    CODE     ---       CS_ScaleDisplay_LcdRestore
      01003ACBH   PUBLIC    CODE     ---       CS_ScaleDisplay_LcdBackup
      01003ABCH   PUBLIC    CODE     ---       CS_ScaleDisplay_LcdShowAll
      01000FA8H   PUBLIC    CODE     ---       CS_ScaleDisplay_LcdShowNoDigit
      01003AAEH   PUBLIC    CODE     ---       CS_ScaleDisplay_LcdShowNull
      010017E4H   PUBLIC    CODE     ---       _CS_ScaleDisplay_LookUpTable
      010039ACH   PUBLIC    CODE     ---       _CS_ScaleDisplay_HexToBcd
      01003A17H   PUBLIC    CODE     ---       CS_ScaleDisplay_LcdBuf_rShift4
      010015FAH   PUBLIC    CODE     ---       _CS_ScaleDisplay_FreshBuf
      0100395BH   PUBLIC    CODE     ---       CS_ScaleDisplay_Debug
      0100153AH   PUBLIC    CODE     ---       CS_ScaleDisplay

      0100153AH   BLOCK     CODE     ---       LVL=0
      0100153AH   LINE      ---      ---       #14
      0100153AH   LINE      ---      ---       #15
      0100153AH   BLOCK     CODE     NEAR LAB  LVL=1
      0100153AH   LINE      ---      ---       #18
      01001542H   LINE      ---      ---       #19
      01001542H   LINE      ---      ---       #20
      0100154AH   LINE      ---      ---       #21
      01001551H   LINE      ---      ---       #22
      01001559H   LINE      ---      ---       #23
      01001560H   LINE      ---      ---       #24
      0100156FH   LINE      ---      ---       #25
      01001575H   LINE      ---      ---       #27
      01001575H   LINE      ---      ---       #28
      0100157BH   LINE      ---      ---       #29
      0100157BH   LINE      ---      ---       #30
      0100158BH   LINE      ---      ---       #31
      0100158FH   LINE      ---      ---       #32
      0100158FH   LINE      ---      ---       #33
      01001596H   LINE      ---      ---       #34
      01001596H   LINE      ---      ---       #35
      010015A6H   LINE      ---      ---       #36
      010015AAH   LINE      ---      ---       #37
      010015AAH   LINE      ---      ---       #38
      010015B1H   LINE      ---      ---       #39
      010015B1H   LINE      ---      ---       #40
      010015C7H   LINE      ---      ---       #41
      010015CBH   LINE      ---      ---       #42
      010015CBH   LINE      ---      ---       #43
      010015D2H   LINE      ---      ---       #44
      010015D2H   LINE      ---      ---       #45
      010015E1H   LINE      ---      ---       #46
      010015F5H   LINE      ---      ---       #47
      010015F9H   LINE      ---      ---       #48
      010015F9H   LINE      ---      ---       #49
      00000004H   SYMBOL    DATA     VOID      weight_temp
      ---         BLOCKEND  CODE     ---       LVL=1
      ---         BLOCKEND  CODE     ---       LVL=0

      0100395BH   BLOCK     CODE     ---       LVL=0
      0100395BH   LINE      ---      ---       #55
      0100395BH   LINE      ---      ---       #56
      0100395BH   BLOCK     CODE     NEAR LAB  LVL=1
      0100395BH   LINE      ---      ---       #58
      0100396BH   LINE      ---      ---       #60
      01003978H   LINE      ---      ---       #61
      01003985H   LINE      ---      ---       #62
      01003992H   LINE      ---      ---       #63
      0100399FH   LINE      ---      ---       #65
      010039A1H   LINE      ---      ---       #67
      02004E2AH   SYMBOL    XDATA    VOID      buf
      ---         BLOCKEND  CODE     ---       LVL=1
      ---         BLOCKEND  CODE     ---       LVL=0

      010015FAH   BLOCK     CODE     ---       LVL=0
      010015FAH   LINE      ---      ---       #73
      010015FFH   LINE      ---      ---       #74
      010015FFH   BLOCK     CODE     NEAR LAB  LVL=1
      010015FFH   LINE      ---      ---       #79
      01001602H   LINE      ---      ---       #80
      01001602H   LINE      ---      ---       #81
      01001608H   LINE      ---      ---       #82
      0100160BH   LINE      ---      ---       #83
      0100160DH   LINE      ---      ---       #84
      0100160FH   LINE      ---      ---       #85
      01001611H   LINE      ---      ---       #86
      01001611H   LINE      ---      ---       #88
      01001619H   LINE      ---      ---       #89
      01001619H   LINE      ---      ---       #90
      0100161EH   LINE      ---      ---       #91
      01001622H   LINE      ---      ---       #92
      01001626H   LINE      ---      ---       #93
      01001629H   LINE      ---      ---       #94
      0100162DH   LINE      ---      ---       #95
      0100162DH   LINE      ---      ---       #97
      01001631H   LINE      ---      ---       #98
      01001631H   LINE      ---      ---       #99
      01001637H   LINE      ---      ---       #100
      01001639H   LINE      ---      ---       #101
      0100163DH   LINE      ---      ---       #102
      01001641H   LINE      ---      ---       #103
      01001643H   LINE      ---      ---       #104
      01001643H   LINE      ---      ---       #106
      01001657H   LINE      ---      ---       #107
      01001657H   LINE      ---      ---       #108
      0100165CH   LINE      ---      ---       #109
      01001660H   LINE      ---      ---       #110
      01001664H   LINE      ---      ---       #111
      01001668H   LINE      ---      ---       #112
      0100166CH   LINE      ---      ---       #113
      01001670H   LINE      ---      ---       #114
      01001677H   LINE      ---      ---       #115
      0100167DH   LINE      ---      ---       #116
      01001685H   LINE      ---      ---       #117
      0100168BH   LINE      ---      ---       #118
      0100168FH   LINE      ---      ---       #119
      01001695H   LINE      ---      ---       #120
      01001695H   LINE      ---      ---       #122
      010016B2H   LINE      ---      ---       #123
      010016B2H   LINE      ---      ---       #124
      010016BFH   LINE      ---      ---       #126
      010016C7H   LINE      ---      ---       #127
      010016C7H   LINE      ---      ---       #128
      010016CDH   LINE      ---      ---       #129
      010016D3H   LINE      ---      ---       #130
      010016D9H   LINE      ---      ---       #131
      010016DFH   LINE      ---      ---       #132
      010016E4H   LINE      ---      ---       #133
      010016E4H   LINE      ---      ---       #135
      010016EEH   LINE      ---      ---       #136
      010016F1H   LINE      ---      ---       #137
      010016FCH   LINE      ---      ---       #138
      010016FFH   LINE      ---      ---       #140
      01001703H   LINE      ---      ---       #141
      01001703H   LINE      ---      ---       #142
      0100170EH   LINE      ---      ---       #143
      01001711H   LINE      ---      ---       #144
      01001711H   LINE      ---      ---       #145
      01001711H   LINE      ---      ---       #147
      0100171DH   LINE      ---      ---       #148
      01001729H   LINE      ---      ---       #149
      01001735H   LINE      ---      ---       #150
      01001741H   LINE      ---      ---       #152
      01001744H   LINE      ---      ---       #158
      0100174BH   LINE      ---      ---       #159
      01001752H   LINE      ---      ---       #162
      0100175AH   LINE      ---      ---       #163
      0100175AH   LINE      ---      ---       #164
      01001761H   LINE      ---      ---       #165
      01001766H   LINE      ---      ---       #166
      01001766H   LINE      ---      ---       #168
      0100176AH   LINE      ---      ---       #169
      0100176AH   LINE      ---      ---       #170
      01001771H   LINE      ---      ---       #171
      01001776H   LINE      ---      ---       #172
      01001776H   LINE      ---      ---       #173
      0100177DH   LINE      ---      ---       #174
      0100177DH   LINE      ---      ---       #175
      01001784H   LINE      ---      ---       #176
      01001789H   LINE      ---      ---       #177
      01001789H   LINE      ---      ---       #179
      01001791H   LINE      ---      ---       #180
      01001791H   LINE      ---      ---       #181
      01001798H   LINE      ---      ---       #182
      0100179DH   LINE      ---      ---       #183
      0100179DH   LINE      ---      ---       #186
      010017A4H   LINE      ---      ---       #187
      010017ADH   LINE      ---      ---       #189
      010017B4H   LINE      ---      ---       #192
      010017BBH   LINE      ---      ---       #193
      010017C4H   LINE      ---      ---       #195
      010017CBH   LINE      ---      ---       #197
      010017CFH   LINE      ---      ---       #198
      010017CFH   LINE      ---      ---       #199
      010017D6H   LINE      ---      ---       #200
      010017DCH   LINE      ---      ---       #201
      010017E3H   LINE      ---      ---       #202
      010017E3H   LINE      ---      ---       #204
      02004D18H   SYMBOL    XDATA    VOID      data_buf
      ---         BLOCKEND  CODE     ---       LVL=1
      ---         BLOCKEND  CODE     ---       LVL=0

      01003A17H   BLOCK     CODE     ---       LVL=0
      01003A17H   LINE      ---      ---       #243
      01003A17H   LINE      ---      ---       #244
      01003A17H   LINE      ---      ---       #245
      01003A24H   LINE      ---      ---       #246
      01003A31H   LINE      ---      ---       #247
      01003A3EH   LINE      ---      ---       #248
      01003A4BH   LINE      ---      ---       #249
      01003A54H   LINE      ---      ---       #252
      01003A5BH   LINE      ---      ---       #253
      01003A60H   LINE      ---      ---       #254
      01003A65H   LINE      ---      ---       #255
      01003A6AH   LINE      ---      ---       #256
      01003A6FH   LINE      ---      ---       #259
      01003A75H   LINE      ---      ---       #260
      01003A83H   LINE      ---      ---       #261
      01003A91H   LINE      ---      ---       #262
      01003A9FH   LINE      ---      ---       #263
      01003AADH   LINE      ---      ---       #265
      ---         BLOCKEND  ---      ---       LVL=0

      010039ACH   BLOCK     CODE     ---       LVL=0
      010039ACH   LINE      ---      ---       #268
      010039BDH   LINE      ---      ---       #269
      010039BDH   BLOCK     CODE     NEAR LAB  LVL=1
      010039BDH   LINE      ---      ---       #271
      010039CAH   LINE      ---      ---       #272
      010039CAH   LINE      ---      ---       #273
      010039F7H   LINE      ---      ---       #274
      01003A0EH   LINE      ---      ---       #275
      01003A16H   LINE      ---      ---       #276
      02004E1EH   SYMBOL    XDATA    VOID      i
      ---         BLOCKEND  CODE     ---       LVL=1
      ---         BLOCKEND  CODE     ---       LVL=0

      010017E4H   BLOCK     CODE     ---       LVL=0
      010017E4H   LINE      ---      ---       #288
      010017E4H   LINE      ---      ---       #289
      010017E4H   BLOCK     CODE     NEAR LAB  LVL=1
      010017E4H   LINE      ---      ---       #291
      010017EAH   LINE      ---      ---       #292
      010017F3H   LINE      ---      ---       #293
      00000001H   SYMBOL    DATA     VOID      data_ptr
      ---         BLOCKEND  CODE     ---       LVL=1
      ---         BLOCKEND  CODE     ---       LVL=0

      01003AAEH   BLOCK     CODE     ---       LVL=0
      01003AAEH   LINE      ---      ---       #298
      01003AAEH   LINE      ---      ---       #299
      01003AAEH   LINE      ---      ---       #300
      01003AB3H   LINE      ---      ---       #301
      01003AB5H   LINE      ---      ---       #302
      01003AB7H   LINE      ---      ---       #303
      01003AB9H   LINE      ---      ---       #304
      01003ABBH   LINE      ---      ---       #305
      ---         BLOCKEND  ---      ---       LVL=0

      01000FA8H   BLOCK     CODE     ---       LVL=0
      01000FA8H   LINE      ---      ---       #307
      01000FA8H   LINE      ---      ---       #308
      01000FA8H   LINE      ---      ---       #309
      01000FAFH   LINE      ---      ---       #310
      01000FB3H   LINE      ---      ---       #311
      01000FB8H   LINE      ---      ---       #312
      01000FBDH   LINE      ---      ---       #313
      01000FC2H   LINE      ---      ---       #314
      ---         BLOCKEND  ---      ---       LVL=0

      01003ABCH   BLOCK     CODE     ---       LVL=0
      01003ABCH   LINE      ---      ---       #316
      01003ABCH   LINE      ---      ---       #317
      01003ABCH   LINE      ---      ---       #318
      01003AC2H   LINE      ---      ---       #319
      01003AC4H   LINE      ---      ---       #320
      01003AC6H   LINE      ---      ---       #321
      01003AC8H   LINE      ---      ---       #322
      01003ACAH   LINE      ---      ---       #323
      ---         BLOCKEND  ---      ---       LVL=0

      01003ACBH   BLOCK     CODE     ---       LVL=0
      01003ACBH   LINE      ---      ---       #326
      01003ACBH   LINE      ---      ---       #327
      01003ACBH   LINE      ---      ---       #328
      01003AD3H   LINE      ---      ---       #329
      01003ADBH   LINE      ---      ---       #330
      01003AE3H   LINE      ---      ---       #331
      01003AEBH   LINE      ---      ---       #332
      01003AF3H   LINE      ---      ---       #333
      ---         BLOCKEND  ---      ---       LVL=0

      01000FC3H   BLOCK     CODE     ---       LVL=0
      01000FC3H   LINE      ---      ---       #336
      01000FC3H   LINE      ---      ---       #337
      01000FC3H   LINE      ---      ---       #338
      01000FCBH   LINE      ---      ---       #339
      01000FD3H   LINE      ---      ---       #340
      01000FDBH   LINE      ---      ---       #341
      01000FE3H   LINE      ---      ---       #342
      01000FEBH   LINE      ---      ---       #343
      ---         BLOCKEND  ---      ---       LVL=0

      01000F73H   BLOCK     CODE     ---       LVL=0
      01000F73H   LINE      ---      ---       #346
      01000F73H   LINE      ---      ---       #347
      01000F73H   BLOCK     CODE     NEAR LAB  LVL=1
      01000F73H   LINE      ---      ---       #352
      01000F7AH   LINE      ---      ---       #353
      01000F7AH   LINE      ---      ---       #354
      01000F7EH   LINE      ---      ---       #355
      01000F84H   LINE      ---      ---       #356
      01000F87H   LINE      ---      ---       #357
      01000F8DH   LINE      ---      ---       #358
      01000F8FH   LINE      ---      ---       #359
      01000F95H   LINE      ---      ---       #360
      01000F97H   LINE      ---      ---       #361
      01000F9DH   LINE      ---      ---       #362
      01000F9FH   LINE      ---      ---       #363
      01000FA5H   LINE      ---      ---       #364
      01000FA7H   LINE      ---      ---       #365
      01000FA7H   LINE      ---      ---       #366
      00000007H   SYMBOL    DATA     VOID      R_Weight_FlashTime
      ---         BLOCKEND  CODE     ---       LVL=1
      ---         BLOCKEND  CODE     ---       LVL=0

      ---         MODULE    ---      ---       CS_SCALEKEY
      01000937H   PUBLIC    CODE     ---       CS_KeyScan

      01000937H   BLOCK     CODE     ---       LVL=0
      01000937H   LINE      ---      ---       #17
      01000937H   LINE      ---      ---       #18
      01000937H   BLOCK     CODE     NEAR LAB  LVL=1
      01000937H   LINE      ---      ---       #30
      0100093FH   LINE      ---      ---       #32
      01000946H   LINE      ---      ---       #33
      0100094CH   LINE      ---      ---       #35
      01000955H   LINE      ---      ---       #36
      01000958H   LINE      ---      ---       #38
      0100095DH   LINE      ---      ---       #39
      0100095DH   LINE      ---      ---       #40
      01000962H   LINE      ---      ---       #41
      01000965H   LINE      ---      ---       #43
      0100096CH   LINE      ---      ---       #44
      01000971H   LINE      ---      ---       #46
      01000976H   LINE      ---      ---       #47
      01000978H   LINE      ---      ---       #49
      01000984H   LINE      ---      ---       #50
      01000984H   LINE      ---      ---       #51
      01000986H   LINE      ---      ---       #52
      0100098CH   LINE      ---      ---       #53
      0100098EH   LINE      ---      ---       #54
      0100098EH   LINE      ---      ---       #56
      01000995H   LINE      ---      ---       #57
      01000995H   LINE      ---      ---       #58
      01000997H   LINE      ---      ---       #61
      010009A0H   LINE      ---      ---       #62
      010009A6H   LINE      ---      ---       #64
      010009A6H   LINE      ---      ---       #65
      010009ABH   LINE      ---      ---       #66
      010009ACH   LINE      ---      ---       #67
      010009B2H   LINE      ---      ---       #68
      010009B4H   LINE      ---      ---       #69
      010009B4H   LINE      ---      ---       #70
      010009B9H   LINE      ---      ---       #71
      010009B9H   LINE      ---      ---       #73
      010009C1H   LINE      ---      ---       #74
      010009C2H   LINE      ---      ---       #75
      010009C3H   LINE      ---      ---       #77
      010009C3H   LINE      ---      ---       #78
      010009C9H   LINE      ---      ---       #79
      010009C9H   LINE      ---      ---       #80
      010009D0H   LINE      ---      ---       #81
      010009D3H   LINE      ---      ---       #82
      010009DDH   LINE      ---      ---       #83
      010009DDH   LINE      ---      ---       #84
      010009E3H   LINE      ---      ---       #85
      010009E9H   LINE      ---      ---       #86
      010009E9H   LINE      ---      ---       #87
      010009EBH   LINE      ---      ---       #89
      010009F4H   LINE      ---      ---       #90
      010009F7H   LINE      ---      ---       #91
      010009FCH   LINE      ---      ---       #92
      010009FCH   LINE      ---      ---       #93
      010009FCH   LINE      ---      ---       #94
      01000A02H   LINE      ---      ---       #95
      01000A02H   LINE      ---      ---       #96
      01000A08H   LINE      ---      ---       #97
      01000A08H   LINE      ---      ---       #99
      01000A0AH   LINE      ---      ---       #100
      01000A11H   LINE      ---      ---       #101
      01000A11H   LINE      ---      ---       #102
      01000A17H   LINE      ---      ---       #103
      01000A1BH   LINE      ---      ---       #104
      01000A20H   LINE      ---      ---       #105
      01000A24H   LINE      ---      ---       #106
      01000A24H   LINE      ---      ---       #107
      01000A29H   LINE      ---      ---       #108
      01000A2DH   LINE      ---      ---       #109
      01000A2DH   LINE      ---      ---       #110
      01000A2DH   LINE      ---      ---       #111
      01000A2EH   LINE      ---      ---       #113
      01000A2EH   LINE      ---      ---       #114
      01000A33H   LINE      ---      ---       #115
      01000A37H   LINE      ---      ---       #116
      01000A37H   LINE      ---      ---       #117
      01000A37H   LINE      ---      ---       #118
      00000007H   SYMBOL    DATA     VOID      keyState
      02004DFDH   SYMBOL    XDATA    VOID      keyState_prev
      02004DFEH   SYMBOL    XDATA    VOID      keyStateCnt
      02004DFFH   SYMBOL    XDATA    VOID      KeyPressDeal
      02004E00H   SYMBOL    XDATA    VOID      KeyLongPressDeal
      02004E01H   SYMBOL    XDATA    VOID      ShortPressCount
      02004E02H   SYMBOL    XDATA    VOID      PressTimesCount
      02004E03H   SYMBOL    XDATA    VOID      Press
      02004E04H   SYMBOL    XDATA    VOID      stanby
      ---         BLOCKEND  CODE     ---       LVL=1
      ---         BLOCKEND  CODE     ---       LVL=0

      ---         MODULE    ---      ---       RETATION_VARIABLE
      02004E5CH   PUBLIC    XDATA    BYTE      sys_state
      02004C62H   PUBLIC    XDATA    BYTE      R_Test
      02004C5BH   PUBLIC    XDATA    BYTE      bleConnStatus
      02004C5DH   PUBLIC    XDATA    BYTE      handleIndicationConfirm
      02004A02H   PUBLIC    XDATA    WORD      BT_CmdWptr
      02004A00H   PUBLIC    XDATA    WORD      BT_CmdRptr
      02004C5AH   PUBLIC    XDATA    BYTE      notifyValueUUIDA625
      02004C10H   PUBLIC    XDATA    ---       historyUserData
      02004C59H   PUBLIC    XDATA    BYTE      notifyValueUUIDA621
      02004A06H   PUBLIC    XDATA    WORD      BT_EventWptr
      02004A04H   PUBLIC    XDATA    WORD      BT_EventRptr
      02004C5CH   PUBLIC    XDATA    BYTE      lxOptStatus
      02004C00H   PUBLIC    XDATA    ---       sensor_data
      02004C63H   PUBLIC    XDATA    ---       btCmdBuf
      02004C06H   PUBLIC    XDATA    ---       deviceInfo
      02004C5EH   PUBLIC    XDATA    LONG      UTCTime

      ---         MODULE    ---      ---       LXPROTOCOL
      01003DA8H   PUBLIC    CODE     ---       _QueuePush
      01003F02H   PUBLIC    CODE     ---       QueueInit
      01001FD5H   PUBLIC    CODE     ---       _SpiFlashOperator
      01001AAAH   PUBLIC    CODE     ---       lxOptProcess
      010019E6H   PUBLIC    CODE     ---       _changeLxOptStatus
      010018A4H   PUBLIC    CODE     ---       _lxRecvDataFromApp

      010019EFH   BLOCK     CODE     ---       LVL=0
      010019EFH   LINE      ---      ---       #17
      01001A00H   LINE      ---      ---       #18
      01001A00H   BLOCK     CODE     NEAR LAB  LVL=1
      01001A00H   LINE      ---      ---       #22
      01001A0DH   LINE      ---      ---       #23
      01001A2CH   LINE      ---      ---       #24
      01001A2CH   LINE      ---      ---       #25
      01001A49H   LINE      ---      ---       #26
      01001A74H   LINE      ---      ---       #27
      01001A99H   LINE      ---      ---       #28
      01001AA9H   LINE      ---      ---       #29
      02004DBDH   SYMBOL    XDATA    VOID      i
      02004DBFH   SYMBOL    XDATA    VOID      size
      02004DC1H   SYMBOL    XDATA    VOID      temp
      ---         BLOCKEND  CODE     ---       LVL=1
      ---         BLOCKEND  CODE     ---       LVL=0

      01001F55H   BLOCK     CODE     ---       LVL=0
      01001F55H   LINE      ---      ---       #31
      01001F59H   LINE      ---      ---       #32
      01001F59H   LINE      ---      ---       #33
      01001F61H   LINE      ---      ---       #34
      01001F61H   LINE      ---      ---       #36
      01001F61H   LINE      ---      ---       #38
      01001F67H   LINE      ---      ---       #39
      01001F6BH   LINE      ---      ---       #40
      01001F6EH   LINE      ---      ---       #41
      01001F71H   LINE      ---      ---       #42
      01001F74H   LINE      ---      ---       #43
      01001F77H   LINE      ---      ---       #44
      01001F7AH   LINE      ---      ---       #46
      01001F82H   LINE      ---      ---       #47
      01001F86H   LINE      ---      ---       #48
      ---         BLOCKEND  ---      ---       LVL=0

      010018A4H   BLOCK     CODE     ---       LVL=0
      010018A4H   LINE      ---      ---       #50
      010018AFH   LINE      ---      ---       #51
      010018AFH   BLOCK     CODE     NEAR LAB  LVL=1
      010018AFH   LINE      ---      ---       #54
      010018C4H   LINE      ---      ---       #57
      010018E8H   LINE      ---      ---       #58
      0100190CH   LINE      ---      ---       #61
      01001916H   LINE      ---      ---       #62
      01001916H   LINE      ---      ---       #64
      0100191DH   LINE      ---      ---       #67
      0100194EH   LINE      ---      ---       #69
      0100197EH   LINE      ---      ---       #70
      0100197EH   LINE      ---      ---       #71
      0100197EH   LINE      ---      ---       #72
      01001982H   LINE      ---      ---       #73
      01001982H   LINE      ---      ---       #74
      01001982H   LINE      ---      ---       #75
      01001986H   LINE      ---      ---       #76
      01001986H   LINE      ---      ---       #77
      01001986H   LINE      ---      ---       #78
      0100198AH   LINE      ---      ---       #79
      0100198AH   LINE      ---      ---       #80
      0100198AH   LINE      ---      ---       #81
      0100198EH   LINE      ---      ---       #82
      0100198EH   LINE      ---      ---       #84
      0100198EH   LINE      ---      ---       #85
      01001992H   LINE      ---      ---       #86
      01001992H   LINE      ---      ---       #87
      01001992H   LINE      ---      ---       #88
      01001996H   LINE      ---      ---       #89
      01001996H   LINE      ---      ---       #90
      01001996H   LINE      ---      ---       #91
      0100199AH   LINE      ---      ---       #92
      0100199AH   LINE      ---      ---       #94
      0100199AH   LINE      ---      ---       #95
      0100199EH   LINE      ---      ---       #96
      0100199EH   LINE      ---      ---       #97
      0100199EH   LINE      ---      ---       #99
      0100199FH   LINE      ---      ---       #101
      010019A5H   LINE      ---      ---       #102
      010019A5H   LINE      ---      ---       #103
      010019B9H   LINE      ---      ---       #104
      010019B9H   LINE      ---      ---       #105
      010019C0H   LINE      ---      ---       #106
      010019C0H   LINE      ---      ---       #107
      010019C4H   LINE      ---      ---       #108
      010019C4H   LINE      ---      ---       #110
      010019C9H   LINE      ---      ---       #111
      010019CAH   LINE      ---      ---       #113
      010019CAH   LINE      ---      ---       #114
      010019D1H   LINE      ---      ---       #115
      010019D1H   LINE      ---      ---       #116
      010019DBH   LINE      ---      ---       #118
      010019E0H   LINE      ---      ---       #119
      010019E0H   LINE      ---      ---       #120
      010019E5H   LINE      ---      ---       #121
      010019E5H   LINE      ---      ---       #122
      010019E5H   LINE      ---      ---       #123
      02004E22H   SYMBOL    XDATA    VOID      frameControl
      02004E23H   SYMBOL    XDATA    VOID      cmd
      ---         BLOCKEND  CODE     ---       LVL=1
      ---         BLOCKEND  CODE     ---       LVL=0

      010019E6H   BLOCK     CODE     ---       LVL=0
      010019E6H   LINE      ---      ---       #125
      010019E6H   LINE      ---      ---       #126
      010019E6H   LINE      ---      ---       #127
      010019ECH   LINE      ---      ---       #128
      010019ECH   LINE      ---      ---       #129
      010019EEH   LINE      ---      ---       #130
      010019EEH   LINE      ---      ---       #131
      ---         BLOCKEND  ---      ---       LVL=0

      01001AAAH   BLOCK     CODE     ---       LVL=0
      01001AAAH   LINE      ---      ---       #133
      01001AAAH   LINE      ---      ---       #134
      01001AAAH   BLOCK     CODE     NEAR LAB  LVL=1
      01001AAAH   LINE      ---      ---       #137
      01001AB0H   LINE      ---      ---       #138
      01001AB4H   LINE      ---      ---       #139
      01001AB7H   LINE      ---      ---       #140
      01001AE3H   LINE      ---      ---       #141
      01001AE3H   LINE      ---      ---       #143
      01001AE3H   LINE      ---      ---       #145
      01001AEFH   LINE      ---      ---       #146
      01001AEFH   LINE      ---      ---       #148
      01001B03H   LINE      ---      ---       #150
      01001B09H   LINE      ---      ---       #152
      01001B0DH   LINE      ---      ---       #153
      01001B0FH   LINE      ---      ---       #155
      01001B0FH   LINE      ---      ---       #156
      01001B14H   LINE      ---      ---       #157
      01001B14H   LINE      ---      ---       #159
      01001B1AH   LINE      ---      ---       #160
      01001B20H   LINE      ---      ---       #161
      01001B24H   LINE      ---      ---       #162
      01001B27H   LINE      ---      ---       #163
      01001B2AH   LINE      ---      ---       #164
      01001B32H   LINE      ---      ---       #165
      01001B3EH   LINE      ---      ---       #166
      01001B46H   LINE      ---      ---       #167
      01001B4CH   LINE      ---      ---       #168
      01001B4DH   LINE      ---      ---       #170
      01001B4DH   LINE      ---      ---       #172
      01001B61H   LINE      ---      ---       #173
      01001B61H   LINE      ---      ---       #175
      01001B69H   LINE      ---      ---       #177
      01001B6FH   LINE      ---      ---       #178
      01001B71H   LINE      ---      ---       #180
      01001B71H   LINE      ---      ---       #181
      01001B77H   LINE      ---      ---       #182
      01001B77H   LINE      ---      ---       #184
      01001B7DH   LINE      ---      ---       #185
      01001B81H   LINE      ---      ---       #186
      01001B85H   LINE      ---      ---       #187
      01001B88H   LINE      ---      ---       #188
      01001B8CH   LINE      ---      ---       #189
      01001B90H   LINE      ---      ---       #190
      01001B93H   LINE      ---      ---       #191
      01001B96H   LINE      ---      ---       #192
      01001B9EH   LINE      ---      ---       #194
      01001BAAH   LINE      ---      ---       #195
      01001BB2H   LINE      ---      ---       #196
      01001BB8H   LINE      ---      ---       #197
      01001BB9H   LINE      ---      ---       #199
      01001BB9H   LINE      ---      ---       #200
      01001BBFH   LINE      ---      ---       #201
      01001BC4H   LINE      ---      ---       #202
      01001BC8H   LINE      ---      ---       #203
      01001BCCH   LINE      ---      ---       #204
      01001BCFH   LINE      ---      ---       #206
      01001BDDH   LINE      ---      ---       #207
      01001BDDH   LINE      ---      ---       #208
      01001C03H   LINE      ---      ---       #209
      01001C0BH   LINE      ---      ---       #212
      01001C13H   LINE      ---      ---       #214
      01001C1AH   LINE      ---      ---       #215
      01001C22H   LINE      ---      ---       #217
      01001C28H   LINE      ---      ---       #219
      01001C34H   LINE      ---      ---       #220
      01001C3CH   LINE      ---      ---       #221
      01001C40H   LINE      ---      ---       #222
      01001C46H   LINE      ---      ---       #223
      01001C47H   LINE      ---      ---       #224
      01001C47H   LINE      ---      ---       #225
      01001C4FH   LINE      ---      ---       #226
      01001C54H   LINE      ---      ---       #227
      01001C54H   LINE      ---      ---       #229
      01001C58H   LINE      ---      ---       #230
      01001C58H   LINE      ---      ---       #231
      01001C8DH   LINE      ---      ---       #232
      01001C8DH   LINE      ---      ---       #234
      01001C93H   LINE      ---      ---       #238
      01001C93H   LINE      ---      ---       #239
      01001C9DH   LINE      ---      ---       #241
      01001CA3H   LINE      ---      ---       #242
      01001CA4H   LINE      ---      ---       #244
      01001CA4H   LINE      ---      ---       #245
      01001CA9H   LINE      ---      ---       #247
      01001CAEH   LINE      ---      ---       #248
      01001CB2H   LINE      ---      ---       #249
      01001CBAH   LINE      ---      ---       #251
      01001CBAH   LINE      ---      ---       #252
      01001CBAH   LINE      ---      ---       #254
      01001CBAH   LINE      ---      ---       #255
      01001CC0H   LINE      ---      ---       #256
      01001CC4H   LINE      ---      ---       #257
      01001CC8H   LINE      ---      ---       #258
      01001CCBH   LINE      ---      ---       #259
      01001CCFH   LINE      ---      ---       #260
      01001CD3H   LINE      ---      ---       #261
      01001CD7H   LINE      ---      ---       #262
      01001CDAH   LINE      ---      ---       #263
      01001CDEH   LINE      ---      ---       #265
      01001CEAH   LINE      ---      ---       #266
      01001CF2H   LINE      ---      ---       #267
      01001CF8H   LINE      ---      ---       #268
      01001CF9H   LINE      ---      ---       #269
      01001CF9H   LINE      ---      ---       #270
      01001D00H   LINE      ---      ---       #271
      01001D00H   LINE      ---      ---       #273
      01001D17H   LINE      ---      ---       #274
      01001D17H   LINE      ---      ---       #275
      01001D1CH   LINE      ---      ---       #276
      01001D1DH   LINE      ---      ---       #278
      01001D1DH   LINE      ---      ---       #279
      01001D24H   LINE      ---      ---       #280
      01001D24H   LINE      ---      ---       #281
      01001D3BH   LINE      ---      ---       #282
      01001D3BH   LINE      ---      ---       #289
      01001D43H   LINE      ---      ---       #290
      01001D49H   LINE      ---      ---       #291
      01001D4AH   LINE      ---      ---       #293
      01001D4AH   LINE      ---      ---       #295
      01001D53H   LINE      ---      ---       #296
      01001D53H   LINE      ---      ---       #297
      01001D58H   LINE      ---      ---       #298
      01001D60H   LINE      ---      ---       #299
      01001D62H   LINE      ---      ---       #301
      01001D62H   LINE      ---      ---       #302
      01001D6AH   LINE      ---      ---       #303
      01001D6AH   LINE      ---      ---       #304
      01001D70H   LINE      ---      ---       #305
      01001D71H   LINE      ---      ---       #307
      01001D71H   LINE      ---      ---       #308
      01001D78H   LINE      ---      ---       #309
      01001D78H   LINE      ---      ---       #310
      01001D7AH   LINE      ---      ---       #311
      01001D7AH   LINE      ---      ---       #312
      01001D7AH   LINE      ---      ---       #313
      01001D7AH   LINE      ---      ---       #314
      01001D7AH   LINE      ---      ---       #315
      01001D7AH   LINE      ---      ---       #316
      01001D7AH   LINE      ---      ---       #317
      01001D7AH   LINE      ---      ---       #318
      01001D7AH   LINE      ---      ---       #319
      01001D7AH   LINE      ---      ---       #320
      01001D7AH   LINE      ---      ---       #322
      01001D82H   LINE      ---      ---       #323
      01001D88H   LINE      ---      ---       #324
      01001D89H   LINE      ---      ---       #326
      01001D89H   LINE      ---      ---       #328
      01001D8FH   LINE      ---      ---       #329
      01001D8FH   LINE      ---      ---       #330
      01001D93H   LINE      ---      ---       #331
      01001D94H   LINE      ---      ---       #333
      01001D94H   LINE      ---      ---       #334
      01001D9AH   LINE      ---      ---       #335
      01001D9AH   LINE      ---      ---       #336
      01001D9BH   LINE      ---      ---       #337
      01001D9BH   LINE      ---      ---       #339
      01001D9EH   LINE      ---      ---       #340
      01001DA4H   LINE      ---      ---       #341
      01001DA4H   LINE      ---      ---       #348
      01001DA4H   LINE      ---      ---       #349
      02004E5DH   SYMBOL    XDATA    VOID      i
      ---         BLOCKEND  CODE     ---       LVL=1
      ---         BLOCKEND  CODE     ---       LVL=0

      01001DA5H   BLOCK     CODE     ---       LVL=0
      01001DA5H   LINE      ---      ---       #351
      01001DA9H   LINE      ---      ---       #352
      01001DA9H   LINE      ---      ---       #353
      01001DAFH   LINE      ---      ---       #354
      01001DB3H   LINE      ---      ---       #355
      01001DB7H   LINE      ---      ---       #356
      01001DBAH   LINE      ---      ---       #357
      01001DBEH   LINE      ---      ---       #358
      01001DC2H   LINE      ---      ---       #359
      01001DC5H   LINE      ---      ---       #360
      01001DC9H   LINE      ---      ---       #361
      01001DCCH   LINE      ---      ---       #362
      01001DCFH   LINE      ---      ---       #363
      01001DD2H   LINE      ---      ---       #365
      01001DDEH   LINE      ---      ---       #366
      01001DE6H   LINE      ---      ---       #367
      ---         BLOCKEND  ---      ---       LVL=0

      01001FB7H   BLOCK     CODE     ---       LVL=0
      01001FB7H   LINE      ---      ---       #370
      01001FB7H   LINE      ---      ---       #371
      01001FB7H   LINE      ---      ---       #374
      01001FC1H   LINE      ---      ---       #375
      01001FC4H   LINE      ---      ---       #376
      01001FC9H   LINE      ---      ---       #377
      01001FD3H   LINE      ---      ---       #378
      ---         BLOCKEND  ---      ---       LVL=0

      01003AF4H   BLOCK     CODE     ---       LVL=0
      01003AF4H   LINE      ---      ---       #383
      01003AF4H   LINE      ---      ---       #384
      01003AF4H   BLOCK     CODE     NEAR LAB  LVL=1
      01003AF4H   LINE      ---      ---       #386
      01003AFDH   LINE      ---      ---       #388
      01003B01H   LINE      ---      ---       #402
      01003B09H   LINE      ---      ---       #403
      01003B48H   LINE      ---      ---       #404
      01003B53H   LINE      ---      ---       #406
      01003B59H   LINE      ---      ---       #407
      01003B5DH   LINE      ---      ---       #408
      01003B60H   LINE      ---      ---       #410
      01003B66H   LINE      ---      ---       #411
      01003B6AH   LINE      ---      ---       #412
      01003B74H   LINE      ---      ---       #413
      01003B77H   LINE      ---      ---       #414
      01003B7BH   LINE      ---      ---       #415
      01003B7EH   LINE      ---      ---       #416
      01003B80H   LINE      ---      ---       #417
      01003B82H   LINE      ---      ---       #418
      01003B8AH   LINE      ---      ---       #419
      01003B8AH   LINE      ---      ---       #420
      01003B9CH   LINE      ---      ---       #421
      01003B9CH   LINE      ---      ---       #422
      01003BA9H   LINE      ---      ---       #423
      01003BDBH   LINE      ---      ---       #424
      01003BE3H   LINE      ---      ---       #425
      01003C0DH   LINE      ---      ---       #426
      01003C33H   LINE      ---      ---       #427
      01003C43H   LINE      ---      ---       #429
      01003C58H   LINE      ---      ---       #430
      01003C58H   LINE      ---      ---       #431
      01003C65H   LINE      ---      ---       #432
      01003C6AH   LINE      ---      ---       #433
      01003C6AH   LINE      ---      ---       #434
      01003C72H   LINE      ---      ---       #435
      01003C74H   LINE      ---      ---       #437
      01003C74H   LINE      ---      ---       #438
      01003C7AH   LINE      ---      ---       #439
      01003C81H   LINE      ---      ---       #441
      01003C81H   LINE      ---      ---       #442
      01003C8FH   LINE      ---      ---       #443
      01003C99H   LINE      ---      ---       #444
      01003CBDH   LINE      ---      ---       #445
      01003CC6H   LINE      ---      ---       #446
      01003CCBH   LINE      ---      ---       #447
      01003CD3H   LINE      ---      ---       #448
      01003CD3H   LINE      ---      ---       #450
      01003CD3H   LINE      ---      ---       #451
      01003CD9H   LINE      ---      ---       #452
      01003CDFH   LINE      ---      ---       #453
      01003CE3H   LINE      ---      ---       #454
      01003CF0H   LINE      ---      ---       #455
      01003CF3H   LINE      ---      ---       #456
      01003CF3H   LINE      ---      ---       #457
      01003D0FH   LINE      ---      ---       #458
      01003D11H   LINE      ---      ---       #460
      01003D11H   LINE      ---      ---       #461
      01003D1CH   LINE      ---      ---       #462
      01003D1CH   LINE      ---      ---       #463
      01003D34H   LINE      ---      ---       #464
      01003D44H   LINE      ---      ---       #465
      01003D4DH   LINE      ---      ---       #466
      01003D4DH   LINE      ---      ---       #467
      02004E5EH   SYMBOL    XDATA    VOID      total_len
      02004DC2H   SYMBOL    XDATA    VOID      temp
      02004DC5H   SYMBOL    XDATA    VOID      crc32
      02004DC9H   SYMBOL    XDATA    VOID      i
      02004DCAH   SYMBOL    XDATA    VOID      pkgCnt
      02004DCBH   SYMBOL    XDATA    VOID      size
      ---         BLOCKEND  CODE     ---       LVL=1
      ---         BLOCKEND  CODE     ---       LVL=0

      01001FD5H   BLOCK     CODE     ---       LVL=0
      01001FD5H   LINE      ---      ---       #469
      01001FDAH   LINE      ---      ---       #470
      01001FDAH   LINE      ---      ---       #472
      01001FDDH   LINE      ---      ---       #473
      01001FDDH   LINE      ---      ---       #474
      01001FF4H   LINE      ---      ---       #475
      01001FF4H   LINE      ---      ---       #476
      01001FFBH   LINE      ---      ---       #477
      01001FFBH   LINE      ---      ---       #478
      01002005H   LINE      ---      ---       #479
      0100201BH   LINE      ---      ---       #480
      0100201BH   LINE      ---      ---       #487
      ---         BLOCKEND  ---      ---       LVL=0

      01003F02H   BLOCK     CODE     ---       LVL=0
      01003F02H   LINE      ---      ---       #496
      01003F02H   LINE      ---      ---       #497
      01003F02H   LINE      ---      ---       #498
      01003F07H   LINE      ---      ---       #499
      01003F09H   LINE      ---      ---       #500
      01003F0BH   LINE      ---      ---       #501
      ---         BLOCKEND  ---      ---       LVL=0

      01003D4EH   BLOCK     CODE     ---       LVL=0
      01003D4EH   LINE      ---      ---       #503
      01003D4EH   LINE      ---      ---       #504
      01003D4EH   BLOCK     CODE     NEAR LAB  LVL=1
      01003D4EH   LINE      ---      ---       #505
      01003D57H   LINE      ---      ---       #507
      01003D60H   LINE      ---      ---       #508
      01003D67H   LINE      ---      ---       #510
      01003D83H   LINE      ---      ---       #511
      01003D96H   LINE      ---      ---       #512
      01003D9CH   LINE      ---      ---       #514
      01003DA7H   LINE      ---      ---       #515
      02004E51H   SYMBOL    XDATA    VOID      temp
      ---         BLOCKEND  CODE     ---       LVL=1
      ---         BLOCKEND  CODE     ---       LVL=0

      01003DA8H   BLOCK     CODE     ---       LVL=0
      01003DA8H   LINE      ---      ---       #517
      01003DB3H   LINE      ---      ---       #518
      01003DB3H   LINE      ---      ---       #519
      01003DBCH   LINE      ---      ---       #520
      01003DBEH   LINE      ---      ---       #522
      01003DEEH   LINE      ---      ---       #523
      01003E01H   LINE      ---      ---       #524
      01003E05H   LINE      ---      ---       #525
      ---         BLOCKEND  ---      ---       LVL=0

      ---         MODULE    ---      ---       CRC32
      02004D91H   PUBLIC    XDATA    BYTE      ?_cal_crc32_multiple?BYTE
      01003E06H   PUBLIC    CODE     ---       _cal_crc32_multiple

      01003E06H   BLOCK     CODE     ---       LVL=0
      01003E06H   LINE      ---      ---       #80
      01003E17H   LINE      ---      ---       #81
      01003E17H   BLOCK     CODE     NEAR LAB  LVL=1
      01003E17H   LINE      ---      ---       #83
      01003E43H   LINE      ---      ---       #84
      01003E43H   LINE      ---      ---       #85
      01003EA1H   LINE      ---      ---       #86
      01003ED2H   LINE      ---      ---       #87
      01003EF3H   LINE      ---      ---       #89
      01003F01H   LINE      ---      ---       #90
      02004D9CH   SYMBOL    XDATA    VOID      i
      ---         BLOCKEND  CODE     ---       LVL=1
      ---         BLOCKEND  CODE     ---       LVL=0

      ---         MODULE    ---      ---       ?C_STARTUP
      01000000H   PUBLIC    CODE     ---       ?C_STARTUP

      ---         MODULE    ---      ---       ?C?COPY
      010000D3H   PUBLIC    CODE     ---       ?C?COPY

      ---         MODULE    ---      ---       ?C?CLDPTR
      010000F9H   PUBLIC    CODE     ---       ?C?CLDPTR

      ---         MODULE    ---      ---       ?C?CLDOPTR
      01000112H   PUBLIC    CODE     ---       ?C?CLDOPTR

      ---         MODULE    ---      ---       ?C?CSTPTR
      0100013FH   PUBLIC    CODE     ---       ?C?CSTPTR

      ---         MODULE    ---      ---       ?C?CSTOPTR
      01000151H   PUBLIC    CODE     ---       ?C?CSTOPTR

      ---         MODULE    ---      ---       ?C?UIDIV
      01000173H   PUBLIC    CODE     ---       ?C?UIDIV

      ---         MODULE    ---      ---       ?C?ILDIX
      010001C8H   PUBLIC    CODE     ---       ?C?ILDIX

      ---         MODULE    ---      ---       ?C?LMUL
      010001DEH   PUBLIC    CODE     ---       ?C?LMUL

      ---         MODULE    ---      ---       ?C?ULDIV
      01000269H   PUBLIC    CODE     ---       ?C?ULDIV

      ---         MODULE    ---      ---       ?C?ULCMP
      010002FBH   PUBLIC    CODE     ---       ?C?ULCMP

      ---         MODULE    ---      ---       ?C?ULSHR
      0100030CH   PUBLIC    CODE     ---       ?C?ULSHR

      ---         MODULE    ---      ---       ?C?LSHL
      0100031FH   PUBLIC    CODE     ---       ?C?LSHL

      ---         MODULE    ---      ---       ?C?LSTXDATA
      01000332H   PUBLIC    CODE     ---       ?C?LSTXDATA

      ---         MODULE    ---      ---       ?C?LSTKXDATA
      0100033EH   PUBLIC    CODE     ---       ?C?LSTKXDATA

      ---         MODULE    ---      ---       ?C?CCASE
      0100036FH   PUBLIC    CODE     ---       ?C?CCASE

      ---         MODULE    ---      ---       ?C?ICASE
      01000395H   PUBLIC    CODE     ---       ?C?ICASE

      ---         MODULE    ---      ---       ?C?ICALL
      010003C2H   PUBLIC    CODE     ---       ?C?ICALL
      010003C6H   PUBLIC    CODE     ---       ?C?ICALL2

      ---         MODULE    ---      ---       ?C?LIMUL
      010003C8H   PUBLIC    CODE     ---       ?C?LIMUL

      ---         MODULE    ---      ---       ?C_INIT
      0100043CH   PUBLIC    CODE     ---       ?C_START

Program Size: data=31.2 xdata=602 const=10 code=16130
LX51 RUN COMPLETE.  0 WARNING(S),  0 ERROR(S)
