LX51 LINKER/LOCATER V4.41                                                               04/18/2017  16:09:39  PAGE 1


LX51 LINKER/LOCATER V4.41, INVOKED BY:
C:\KEIL\C51\BIN\LX51.EXE OUT/MAIN.OBJ, OUT/SYSTEM.OBJ, OUT/YC_SYS.OBJ, OUT/YC_PERIPHERAL.OBJ, OUT/SPIFLASH.OBJ, OUT/BT_I
>> PC.OBJ, OUT/YC_UTILITIES.OBJ, OUT/CS_SCALE_PROC.OBJ, OUT/CS_COMMTO1186.OBJ, OUT/CS_SCALEDISPLAY.OBJ, OUT/CS_SCALEKEY.
>> OBJ, OUT/RETATION_VARIABLE.OBJ, OUT/LXPROTOCOL.OBJ, OUT/CRC32.OBJ TO OUT\FW CLASSES (XDATA (X:0X4C80-X:0X4EFF), CODE 
>> (C:0-C:0XFFFF), DATA (D:0X10-0X7F), IDATA (I:0X80-0XCF)) SEGMENTS (?STACK (D:0XD0)) NOOVERLAY PAGELENGTH (60000) CODE
>> 


CPU MODE:     8051 MODE
MEMORY MODEL: LARGE


INPUT MODULES INCLUDED:
  OUT/MAIN.OBJ (MAIN)
         COMMENT TYPE 0: C51 V9.01
  OUT/SYSTEM.OBJ (SYSTEM)
         COMMENT TYPE 0: C51 V9.01
  OUT/YC_SYS.OBJ (YC_SYS)
         COMMENT TYPE 0: C51 V9.01
  OUT/YC_PERIPHERAL.OBJ (YC_PERIPHERAL)
         COMMENT TYPE 0: C51 V9.01
  OUT/SPIFLASH.OBJ (SPIFLASH)
         COMMENT TYPE 0: C51 V9.01
  OUT/BT_IPC.OBJ (BT_IPC)
         COMMENT TYPE 0: C51 V9.01
  OUT/YC_UTILITIES.OBJ (YC_UTILITIES)
         COMMENT TYPE 0: C51 V9.01
  OUT/CS_SCALE_PROC.OBJ (CS_SCALE_PROC)
         COMMENT TYPE 0: C51 V9.01
  OUT/CS_COMMTO1186.OBJ (CS_COMMTO1186)
         COMMENT TYPE 0: C51 V9.01
  OUT/CS_SCALEDISPLAY.OBJ (CS_SCALEDISPLAY)
         COMMENT TYPE 0: C51 V9.01
  OUT/CS_SCALEKEY.OBJ (CS_SCALEKEY)
         COMMENT TYPE 0: C51 V9.01
  OUT/RETATION_VARIABLE.OBJ (RETATION_VARIABLE)
         COMMENT TYPE 0: C51 V9.01
  OUT/LXPROTOCOL.OBJ (LXPROTOCOL)
         COMMENT TYPE 0: C51 V9.01
  OUT/CRC32.OBJ (CRC32)
         COMMENT TYPE 0: C51 V9.01
  C:\KEIL\C51\LIB\C51L.LIB (?C_STARTUP)
         COMMENT TYPE 1: A51 / ASM51 Assembler
  C:\KEIL\C51\LIB\C51L.LIB (?C?COPY)
         COMMENT TYPE 1: A51 / ASM51 Assembler
  C:\KEIL\C51\LIB\C51L.LIB (?C?CLDPTR)
         COMMENT TYPE 1: A51 / ASM51 Assembler
  C:\KEIL\C51\LIB\C51L.LIB (?C?CLDOPTR)
         COMMENT TYPE 1: A51 / ASM51 Assembler
  C:\KEIL\C51\LIB\C51L.LIB (?C?CSTPTR)
         COMMENT TYPE 1: A51 / ASM51 Assembler
  C:\KEIL\C51\LIB\C51L.LIB (?C?CSTOPTR)
         COMMENT TYPE 1: A51 / ASM51 Assembler
  C:\KEIL\C51\LIB\C51L.LIB (?C?UIDIV)
         COMMENT TYPE 1: A51 / ASM51 Assembler
  C:\KEIL\C51\LIB\C51L.LIB (?C?ILDIX)
         COMMENT TYPE 1: A51 / ASM51 Assembler
  C:\KEIL\C51\LIB\C51L.LIB (?C?LMUL)
         COMMENT TYPE 1: A51 / ASM51 Assembler
  C:\KEIL\C51\LIB\C51L.LIB (?C?ULDIV)
         COMMENT TYPE 1: A51 / ASM51 Assembler
  C:\KEIL\C51\LIB\C51L.LIB (?C?ULCMP)
         COMMENT TYPE 1: A51 / ASM51 Assembler
  C:\KEIL\C51\LIB\C51L.LIB (?C?ULSHR)
         COMMENT TYPE 1: A51 / ASM51 Assembler
  C:\KEIL\C51\LIB\C51L.LIB (?C?LSHL)
         COMMENT TYPE 1: A51 / ASM51 Assembler
  C:\KEIL\C51\LIB\C51L.LIB (?C?LSTXDATA)
         COMMENT TYPE 1: A51 / ASM51 Assembler
  C:\KEIL\C51\LIB\C51L.LIB (?C?LSTKXDATA)
         COMMENT TYPE 1: A51 / ASM51 Assembler
  C:\KEIL\C51\LIB\C51L.LIB (?C?CCASE)
         COMMENT TYPE 1: A51 / ASM51 Assembler
  C:\KEIL\C51\LIB\C51L.LIB (?C?ICASE)
         COMMENT TYPE 1: A51 / ASM51 Assembler
  C:\KEIL\C51\LIB\C51L.LIB (?C?ICALL)
         COMMENT TYPE 1: A51 / ASM51 Assembler
  C:\KEIL\C51\LIB\C51L.LIB (?C?LIMUL)
         COMMENT TYPE 1: A51 / ASM51 Assembler
  C:\KEIL\C51\LIB\C51L.LIB (?C_INIT)
         COMMENT TYPE 1: A51 / ASM51 Assembler


ACTIVE MEMORY CLASSES OF MODULE:  OUT\FW (MAIN)

BASE        START       END         USED      MEMORY CLASS
==========================================================
X:000000H   X:004C80H   X:004EFFH   000259H   XDATA
C:000000H   C:000000H   C:00FFFFH   003EB6H   CODE
I:000000H   I:000010H   I:00007FH   00001EH   DATA
I:000000H   I:000080H   I:0000CFH   000001H   IDATA
I:000020H.0 I:000020H.0 I:00002FH.7 000000H.2 BIT
C:000000H   C:000000H   C:00FFFFH   00000AH   CONST


MEMORY MAP OF MODULE:  OUT\FW (MAIN)


START     STOP      LENGTH    ALIGN  RELOC    MEMORY CLASS   SEGMENT NAME
=========================================================================

* * * * * * * * * * *   D A T A   M E M O R Y   * * * * * * * * * * * * *
000000H   000007H   000008H   ---    AT..     DATA           "REG BANK 0"
000008H   00000FH   000008H   ---    ---      **GAP**
000010H   000016H   000007H   BYTE   UNIT     DATA           ?DT?_DMEMCPY?YC_UTILITIES
000017H   00001CH   000006H   BYTE   UNIT     DATA           ?DT?_XMEMCPY?YC_UTILITIES
00001DH   00001EH   000002H   BYTE   UNIT     DATA           ?DT?_XMEMSET?YC_UTILITIES
00001FH   00001FH   000001H   BYTE   UNIT     DATA           ?DT?YC_UTILTIMERPROCESS?YC_SYS
000020H.0 000020H.0 000000H.1 BIT    UNIT     BIT            ?BI?CS_SCALE_POWERONPROC?CS_SCALE_PROC
000020H.1 000020H.1 000000H.1 BIT    UNIT     BIT            ?BI?CS_SCALE_PROC
000020H.2 000020H   000000H.6 ---    ---      **GAP**
000021H   000026H   000006H   BYTE   UNIT     DATA           ?DT?_CMEMCPY?YC_UTILITIES
000027H   0000CFH   0000A9H   ---    ---      **GAP**
0000D0H   0000D0H   000001H   BYTE   UNIT     IDATA          ?STACK

* * * * * * * * * * *   C O D E   M E M O R Y   * * * * * * * * * * * * *
000000H   000002H   000003H   ---    OFFS..   CODE           ?CO??C_STARTUP?0
000003H   0003F4H   0003F2H   BYTE   UNIT     CODE           ?C?LIB_CODE
0003F5H   000480H   00008CH   BYTE   UNIT     CODE           ?C_C51STARTUP
000481H   0004B7H   000037H   BYTE   UNIT     CODE           ?C_INITSEG
0004B8H   0004C1H   00000AH   BYTE   UNIT     CONST          ?CO?CS_COMMTO1186
0004C2H   0004E4H   000023H   BYTE   UNIT     CODE           ?PR?MAIN?MAIN
0004E5H   00052CH   000048H   BYTE   UNIT     CODE           ?PR?CS_SCALE_1186COM?CS_COMMTO1186
00052DH   000591H   000065H   BYTE   UNIT     CODE           ?PR?CS_1186COM_SETLCD_PROC?CS_COMMTO1186
000592H   0005A1H   000010H   BYTE   UNIT     CODE           ?PR?YC_UARTCLEARBUFFER?YC_PERIPHERAL
0005A2H   0005E1H   000040H   BYTE   UNIT     CODE           ?PR?SYSSTATUSPROCESS?SYSTEM
0005E2H   00065AH   000079H   BYTE   UNIT     CODE           ?PR?CS_1186COM_READTIME_PROC?CS_COMMTO1186
00065BH   00066CH   000012H   BYTE   UNIT     CODE           ?PR?YC_UARTWAITSENDDATA?YC_PERIPHERAL
00066DH   000700H   000094H   BYTE   UNIT     CODE           ?PR?CS_1186COM_SETSLEEPMODE_PROC?CS_COMMTO1186
000701H   00071AH   00001AH   BYTE   UNIT     CODE           ?PR?CS_1186COM_RESET_PROC?CS_COMMTO1186
00071BH   0007A7H   00008DH   BYTE   UNIT     CODE           ?PR?CS_1186COM_SETOPENWEIGHT_PROC?CS_COMMTO1186
0007A8H   0008F2H   00014BH   BYTE   UNIT     CODE           ?PR?_YC_UARTRECIVEDATAEXPECTED?YC_PERIPHERAL
0008F3H   000936H   000044H   BYTE   UNIT     CODE           ?PR?SOFTTIMER_10MSCALLBACK?SYSTEM
000937H   000A07H   0000D1H   BYTE   UNIT     CODE           ?PR?CS_KEYSCAN?CS_SCALEKEY
000A08H   000EE4H   0004DDH   BYTE   UNIT     CODE           ?PR?_CS_SCALE_CALIPROC?CS_SCALE_PROC
000EE5H   000F22H   00003EH   BYTE   UNIT     CODE           ?PR?_CS_SOFTTIMER?CS_SCALE_PROC
000F23H   000F57H   000035H   BYTE   UNIT     CODE           ?PR?CS_SCALEDISPLAY_STEADYFLASH?CS_SCALEDISPLAY
000F58H   000F72H   00001BH   BYTE   UNIT     CODE           ?PR?CS_SCALEDISPLAY_LCDSHOWNODIGIT?CS_SCALEDISPLAY
000F73H   000F9BH   000029H   BYTE   UNIT     CODE           ?PR?CS_SCALEDISPLAY_LCDRESTORE?CS_SCALEDISPLAY
000F9CH   000FF9H   00005EH   BYTE   UNIT     CODE           ?PR?CS_SCALE_PROC?CS_SCALE_PROC
000FFAH   001090H   000097H   BYTE   UNIT     CODE           ?PR?SYSTEMINIT?SYSTEM
001091H   0010C5H   000035H   BYTE   UNIT     CODE           ?PR?_YC_GPIOGETINPUTSTATUS?YC_PERIPHERAL
0010C6H   001188H   0000C3H   BYTE   UNIT     CODE           ?PR?YC_UTILTIMERINIT?YC_SYS
001189H   0012C7H   00013FH   BYTE   UNIT     CODE           ?PR?_YC_UTILTIMERSTARTMS?YC_SYS
0012C8H   0012FAH   000033H   BYTE   UNIT     CODE           ?PR?CS_SCALE_POWERON?CS_SCALE_PROC
0012FBH   001542H   000248H   BYTE   UNIT     CODE           ?PR?_CS_SCALE_ZEROPROC?CS_SCALE_PROC
001543H   001602H   0000C0H   BYTE   UNIT     CODE           ?PR?CS_SCALEDISPLAY?CS_SCALEDISPLAY
001603H   0017D4H   0001D2H   BYTE   UNIT     CODE           ?PR?_CS_SCALEDISPLAY_FRESHBUF?CS_SCALEDISPLAY
0017D5H   0017E4H   000010H   BYTE   UNIT     CODE           ?PR?_CS_SCALEDISPLAY_LOOKUPTABLE?CS_SCALEDISPLAY
0017E5H   0017EEH   00000AH   BYTE   UNIT     CODE           ?PR?QUEUEINIT?LXPROTOCOL
0017EFH   00184EH   000060H   BYTE   UNIT     CODE           ?PR?_CS_SCALE_GETDELTAAD?CS_SCALE_PROC
00184FH   001879H   00002BH   BYTE   UNIT     CODE           ?PR?_GENERATECHECKSUM?SYSTEM
00187AH   00192BH   0000B2H   BYTE   UNIT     CODE           ?PR?CS_1186COM_READMACADRESS_PROC?CS_COMMTO1186
00192CH   001C2DH   000302H   BYTE   UNIT     CODE           ?PR?_CS_COMMTO1186_SENDCMD?CS_COMMTO1186
001C2EH   001D2BH   0000FEH   BYTE   UNIT     CODE           ?PR?_YC_UARTSENDDATA?YC_PERIPHERAL
001D2CH   001D85H   00005AH   BYTE   UNIT     CODE           ?PR?_CS_COMMTO1186_XOR?CS_COMMTO1186
001D86H   001DBCH   000037H   BYTE   UNIT     CODE           ?PR?_XMEMCPY?YC_UTILITIES
001DBDH   001EFEH   000142H   BYTE   UNIT     CODE           ?PR?_LXRECVDATAFROMAPP?LXPROTOCOL
001EFFH   001F07H   000009H   BYTE   UNIT     CODE           ?PR?_CHANGELXOPTSTATUS?LXPROTOCOL
001F08H   001F3AH   000033H   BYTE   UNIT     CODE           ?PR?_LXSENDRECVDATAACK?LXPROTOCOL
001F3BH   001F83H   000049H   BYTE   UNIT     CODE           ?PR?_SPIFLASHOPERATOR?LXPROTOCOL
001F84H   001F9BH   000018H   BYTE   UNIT     CODE           ?PR?_YC_DELAY10MS?YC_UTILITIES
001F9CH   001FB9H   00001EH   BYTE   UNIT     CODE           ?PR?_XMEMSET?YC_UTILITIES
001FBAH   001FD9H   000020H   BYTE   UNIT     CODE           ?PR?DELUSERDATA?LXPROTOCOL
001FDAH   00205FH   000086H   BYTE   UNIT     CODE           ?PR?BTCONTROLPROCESS?SYSTEM
002060H   0020B8H   000059H   BYTE   UNIT     CODE           ?PR?_YC_UTILTIMERSTOP?YC_SYS
0020B9H   0021FBH   000143H   BYTE   UNIT     CODE           ?PR?YC_UTILTIMERPROCESS?YC_SYS
0021FCH   002245H   00004AH   BYTE   UNIT     CODE           ?PR?SPIFLASHREADSR?SPIFLASH
002246H   002257H   000012H   BYTE   UNIT     CODE           ?PR?SPIFLASHWAITBUSY?SPIFLASH
002258H   0022CDH   000076H   BYTE   UNIT     CODE           ?PR?_SPIFLASHERASESECTOR?SPIFLASH
0022CEH   00238EH   0000C1H   BYTE   UNIT     CODE           ?PR?_SPIFLASHWRITE?SPIFLASH
00238FH   0023BAH   00002CH   BYTE   UNIT     CODE           ?PR?SPIFLASHWRITEENABLE?SPIFLASH
0023BBH   0023D2H   000018H   BYTE   UNIT     CODE           ?PR?_YC_DELAY1MS?YC_UTILITIES
0023D3H   00246DH   00009BH   BYTE   UNIT     CODE           ?PR?_SPIFLASHREAD?SPIFLASH
00246EH   002568H   0000FBH   BYTE   UNIT     CODE           ?PR?_CAL_CRC32_MULTIPLE?CRC32
002569H   0027BDH   000255H   BYTE   UNIT     CODE           ?PR?SENDHISTORYDATA?LXPROTOCOL
0027BEH   0027F1H   000034H   BYTE   UNIT     CODE           ?PR?_DMEMCPY?YC_UTILITIES
0027F2H   002911H   000120H   BYTE   UNIT     CODE           ?PR?_BT_CMDFIFOIN?BT_IPC
002912H   00293FH   00002EH   BYTE   UNIT     CODE           ?PR?BT_GETCMDFIFODEPTH?BT_IPC
002940H   002948H   000009H   BYTE   UNIT     CODE           ?PR?BT_CMDFIFOEMPTY?BT_IPC
002949H   00297DH   000035H   BYTE   UNIT     CODE           ?PR?_BT_CMDFIFOFULL?BT_IPC
00297EH   002A80H   000103H   BYTE   UNIT     CODE           ?PR?_BT_EVENTFIFOOUT?BT_IPC
002A81H   002AAEH   00002EH   BYTE   UNIT     CODE           ?PR?BT_GETEVTFIFODEPTH?BT_IPC
002AAFH   002AB5H   000007H   BYTE   UNIT     CODE           ?PR?YC_ICE_BREAK?YC_UTILITIES
002AB6H   002AECH   000037H   BYTE   UNIT     CODE           ?PR?_CMEMCPY?YC_UTILITIES
002AEDH   002B42H   000056H   BYTE   UNIT     CODE           ?PR?_YC_MEMCHECKEMPTY?YC_UTILITIES
002B43H   002B68H   000026H   BYTE   UNIT     CODE           ?PR?_YC_DELAY1S?YC_UTILITIES
002B69H   002B8EH   000026H   BYTE   UNIT     CODE           ?PR?CS_SCALE_WEIGHTPROC?CS_SCALE_PROC
002B8FH   002CF4H   000166H   BYTE   UNIT     CODE           ?PR?_CS_SCALE_JUDGESTEADY?CS_SCALE_PROC
002CF5H   002D98H   0000A4H   BYTE   UNIT     CODE           ?PR?_CS_SCALE_STEADYPROC?CS_SCALE_PROC
002D99H   002DA3H   00000BH   BYTE   UNIT     CODE           ?PR?_CS_SCALE_1186COMSEND?CS_COMMTO1186
002DA4H   002E86H   0000E3H   BYTE   UNIT     CODE           ?PR?CS_SCALE_POWERONPROC?CS_SCALE_PROC
002E87H   002E8CH   000006H   BYTE   UNIT     CODE           ?PR?CS_IF1186COMSUCESS?CS_COMMTO1186
002E8DH   002F20H   000094H   BYTE   UNIT     CODE           ?PR?_CS_SCALE_STANDBYPROC?CS_SCALE_PROC
002F21H   002F6BH   00004BH   BYTE   UNIT     CODE           ?PR?_CS_SCALE_JUDGEOVERLOAD?CS_SCALE_PROC
002F6CH   002FD9H   00006EH   BYTE   UNIT     CODE           ?PR?_CS_SCALE_LOCKPROC?CS_SCALE_PROC
002FDAH   002FEBH   000012H   BYTE   UNIT     CODE           ?PR?_CS_SCALE_JUDGELOWBAT?CS_SCALE_PROC
002FECH   00313CH   000151H   BYTE   UNIT     CODE           ?PR?_CS_SCALE_GETWEIGHT?CS_SCALE_PROC
00313DH   0034ECH   0003B0H   BYTE   UNIT     CODE           ?PR?_CS_SCALE_ADCFILTER?CS_SCALE_PROC
0034EDH   00351EH   000032H   BYTE   UNIT     CODE           ?PR?CS_SCALE_CHANGEUNIT?CS_SCALE_PROC
00351FH   003586H   000068H   BYTE   UNIT     CODE           ?PR?CS_SCALE_RETURNLOCK?CS_SCALE_PROC
003587H   0036A9H   000123H   BYTE   UNIT     CODE           ?PR?_CS_SCALE_TIMEOUTPROC?CS_SCALE_PROC
0036AAH   0036DFH   000036H   BYTE   UNIT     CODE           ?PR?_CS_MEMORYWEIGHTCLEAR_TIMER?CS_SCALE_PROC
0036E0H   0037B4H   0000D5H   BYTE   UNIT     CODE           ?PR?CS_1186COM_READADC_PROC?CS_COMMTO1186
0037B5H   003866H   0000B2H   BYTE   UNIT     CODE           ?PR?CS_1186COM_READADZERO_PROC?CS_COMMTO1186
003867H   0038B7H   000051H   BYTE   UNIT     CODE           ?PR?CS_SCALEDISPLAY_DEBUG?CS_SCALEDISPLAY
0038B8H   003922H   00006BH   BYTE   UNIT     CODE           ?PR?_CS_SCALEDISPLAY_HEXTOBCD?CS_SCALEDISPLAY
003923H   0039B9H   000097H   BYTE   UNIT     CODE           ?PR?CS_SCALEDISPLAY_LCDBUF_RSHIFT4?CS_SCALEDISPLAY
0039BAH   0039C7H   00000EH   BYTE   UNIT     CODE           ?PR?CS_SCALEDISPLAY_LCDSHOWNULL?CS_SCALEDISPLAY
0039C8H   0039D6H   00000FH   BYTE   UNIT     CODE           ?PR?CS_SCALEDISPLAY_LCDSHOWALL?CS_SCALEDISPLAY
0039D7H   0039FFH   000029H   BYTE   UNIT     CODE           ?PR?CS_SCALEDISPLAY_LCDBACKUP?CS_SCALEDISPLAY
003A00H   003ABAH   0000BBH   BYTE   UNIT     CODE           ?PR?_BIGLITTLEENDIANSWAP?LXPROTOCOL
003ABBH   003DC0H   000306H   BYTE   UNIT     CODE           ?PR?LXOPTPROCESS?LXPROTOCOL
003DC1H   003E07H   000047H   BYTE   UNIT     CODE           ?PR?_LXSETTINGDEVICERESPONE?LXPROTOCOL
003E08H   003E61H   00005AH   BYTE   UNIT     CODE           ?PR?QUEUEPOP?LXPROTOCOL
003E62H   003EBFH   00005EH   BYTE   UNIT     CODE           ?PR?_QUEUEPUSH?LXPROTOCOL

* * * * * * * * * * *  X D A T A   M E M O R Y  * * * * * * * * * * * * *
004A00H   004A01H   000002H   BYTE   OFFS..   XDATA          ?XD?RETATION_VARIABLE?10
004A02H   004A03H   000002H   BYTE   OFFS..   XDATA          ?XD?RETATION_VARIABLE?11
004A04H   004A05H   000002H   BYTE   OFFS..   XDATA          ?XD?RETATION_VARIABLE?5
004A06H   004A07H   000002H   BYTE   OFFS..   XDATA          ?XD?RETATION_VARIABLE?6
004A08H   004BFFH   0001F8H   ---    ---      **GAP**
004C00H   004C05H   000006H   BYTE   OFFS..   XDATA          ?XD?RETATION_VARIABLE?3
004C06H   004C0FH   00000AH   BYTE   OFFS..   XDATA          ?XD?RETATION_VARIABLE?1
004C10H   004C4EH   00003FH   BYTE   OFFS..   XDATA          ?XD?RETATION_VARIABLE?8
004C4FH   004C58H   00000AH   ---    ---      **GAP**
004C59H   004C59H   000001H   BYTE   OFFS..   XDATA          ?XD?RETATION_VARIABLE?7
004C5AH   004C5AH   000001H   BYTE   OFFS..   XDATA          ?XD?RETATION_VARIABLE?9
004C5BH   004C5BH   000001H   BYTE   OFFS..   XDATA          ?XD?RETATION_VARIABLE?13
004C5CH   004C5CH   000001H   BYTE   OFFS..   XDATA          ?XD?RETATION_VARIABLE?4
004C5DH   004C5DH   000001H   BYTE   OFFS..   XDATA          ?XD?RETATION_VARIABLE?12
004C5EH   004C61H   000004H   BYTE   OFFS..   XDATA          ?XD?RETATION_VARIABLE?0
004C62H   004C62H   000001H   BYTE   OFFS..   XDATA          ?XD?RETATION_VARIABLE?14
004C63H   004C7BH   000019H   BYTE   OFFS..   XDATA          ?XD?RETATION_VARIABLE?2
004C7CH   004C7FH   000004H   ---    ---      **GAP**
004C80H   004CDAH   00005BH   BYTE   UNIT     XDATA          ?XD?CS_SCALE_PROC
004CDBH   004D17H   00003DH   BYTE   UNIT     XDATA          ?XD?YC_SYS
004D18H   004D44H   00002DH   BYTE   UNIT     XDATA          ?XD?CS_SCALEDISPLAY
004D45H   004D68H   000024H   BYTE   UNIT     XDATA          ?XD?CS_COMMTO1186
004D69H   004D81H   000019H   BYTE   UNIT     XDATA          ?XD?BTCONTROLPROCESS?SYSTEM
004D82H   004D90H   00000FH   BYTE   UNIT     XDATA          ?XD?_CS_COMMTO1186_SENDCMD?CS_COMMTO1186
004D91H   004D9FH   00000FH   BYTE   UNIT     XDATA          ?XD?_CAL_CRC32_MULTIPLE?CRC32
004DA0H   004DADH   00000EH   BYTE   UNIT     XDATA          ?XD?_CS_SCALE_GETWEIGHT?CS_SCALE_PROC
004DAEH   004DB7H   00000AH   BYTE   UNIT     XDATA          ?XD?_YC_UARTSENDDATA?YC_PERIPHERAL
004DB8H   004DC1H   00000AH   BYTE   UNIT     XDATA          ?XD?_BIGLITTLEENDIANSWAP?LXPROTOCOL
004DC2H   004DCBH   00000AH   BYTE   UNIT     XDATA          ?XD?SENDHISTORYDATA?LXPROTOCOL
004DCCH   004DD4H   000009H   BYTE   UNIT     XDATA          ?XD?_YC_UARTRECIVEDATAEXPECTED?YC_PERIPHERAL
004DD5H   004DDCH   000008H   BYTE   UNIT     XDATA          ?XD?_YC_UTILTIMERSTARTMS?YC_SYS
004DDDH   004DE4H   000008H   BYTE   UNIT     XDATA          ?XD?_SPIFLASHWRITE?SPIFLASH
004DE5H   004DECH   000008H   BYTE   UNIT     XDATA          ?XD?_SPIFLASHREAD?SPIFLASH
004DEDH   004DF4H   000008H   BYTE   UNIT     XDATA          ?XD?_CS_SCALE_ZEROPROC?CS_SCALE_PROC
004DF5H   004DFCH   000008H   BYTE   UNIT     XDATA          ?XD?_CS_SCALE_CALIPROC?CS_SCALE_PROC
004DFDH   004E03H   000007H   BYTE   UNIT     XDATA          ?XD?_BT_CMDFIFOIN?BT_IPC
004E04H   004E0AH   000007H   BYTE   UNIT     XDATA          ?XD?_CS_SCALE_ADCFILTER?CS_SCALE_PROC
004E0BH   004E11H   000007H   BYTE   UNIT     XDATA          ?XD?CS_SCALEKEY
004E12H   004E17H   000006H   BYTE   UNIT     XDATA          ?XD?_CS_SCALE_STEADYPROC?CS_SCALE_PROC
004E18H   004E1DH   000006H   BYTE   UNIT     XDATA          ?XD?_CS_SCALEDISPLAY_HEXTOBCD?CS_SCALEDISPLAY
004E1EH   004E23H   000006H   BYTE   UNIT     XDATA          ?XD?_LXRECVDATAFROMAPP?LXPROTOCOL
004E24H   004E28H   000005H   BYTE   UNIT     XDATA          ?XD?_BT_EVENTFIFOOUT?BT_IPC
004E29H   004E2DH   000005H   BYTE   UNIT     XDATA          ?XD?CS_SCALEDISPLAY_DEBUG?CS_SCALEDISPLAY
004E2EH   004E31H   000004H   BYTE   UNIT     XDATA          ?XD?_SPIFLASHERASESECTOR?SPIFLASH
004E32H   004E35H   000004H   BYTE   UNIT     XDATA          ?XD?_YC_MEMCHECKEMPTY?YC_UTILITIES
004E36H   004E39H   000004H   BYTE   UNIT     XDATA          ?XD?_CS_SCALE_JUDGESTEADY?CS_SCALE_PROC
004E3AH   004E3DH   000004H   BYTE   UNIT     XDATA          ?XD?CRC32
004E3EH   004E40H   000003H   BYTE   UNIT     XDATA          ?XD?SYSTEM
004E41H   004E43H   000003H   BYTE   UNIT     XDATA          ?XD?_GENERATECHECKSUM?SYSTEM
004E44H   004E46H   000003H   BYTE   UNIT     XDATA          ?XD?_BT_CMDFIFOFULL?BT_IPC
004E47H   004E49H   000003H   BYTE   UNIT     XDATA          ?XD?_CS_SCALE_GETDELTAAD?CS_SCALE_PROC
004E4AH   004E4CH   000003H   BYTE   UNIT     XDATA          ?XD?CS_1186COM_READMACADRESS_PROC?CS_COMMTO1186
004E4DH   004E4FH   000003H   BYTE   UNIT     XDATA          ?XD?_CS_COMMTO1186_XOR?CS_COMMTO1186
004E50H   004E52H   000003H   BYTE   UNIT     XDATA          ?XD?QUEUEPOP?LXPROTOCOL
004E53H   004E55H   000003H   BYTE   UNIT     XDATA          ?XD?_QUEUEPUSH?LXPROTOCOL
004E56H   004E57H   000002H   BYTE   UNIT     XDATA          ?XD?CS_SCALE_RETURNLOCK?CS_SCALE_PROC
004E58H   004E58H   000001H   BYTE   UNIT     XDATA          ?XD?YC_UTILTIMERINIT?YC_SYS
004E59H   004E59H   000001H   BYTE   UNIT     XDATA          ?XD?SPIFLASHREADSR?SPIFLASH
004E5AH   004E5AH   000001H   BYTE   UNIT     XDATA          ?XD?_CS_SCALEDISPLAY_FRESHBUF?CS_SCALEDISPLAY
004E5BH   004E5BH   000001H   BYTE   UNIT     XDATA          ?XD?RETATION_VARIABLE
004E5CH   004E5CH   000001H   BYTE   UNIT     XDATA          ?XD?LXOPTPROCESS?LXPROTOCOL
004E5DH   004E5DH   000001H   BYTE   UNIT     XDATA          ?XD?LXPROTOCOL
004E5EH   004E5EH   000001H   BYTE   UNIT     XDATA          ?XD?_SPIFLASHOPERATOR?LXPROTOCOL



PUBLIC SYMBOLS OF MODULE:  OUT\FW (MAIN)


      VALUE       CLASS    TYPE      PUBLIC SYMBOL NAME
      =================================================
      02004D91H   XDATA    BYTE      ?_cal_crc32_multiple?BYTE
      00000021H   DATA     BYTE      ?_cmemcpy?BYTE
      00000010H   DATA     BYTE      ?_dmemcpy?BYTE
      02004DE5H   XDATA    BYTE      ?_SPIFlashRead?BYTE
      02004DDDH   XDATA    BYTE      ?_SPIFlashWrite?BYTE
      00000017H   DATA     BYTE      ?_xmemcpy?BYTE
      02004DD5H   XDATA    BYTE      ?_YC_UtilTimerStartMs?BYTE
      0100036FH   CODE     ---       ?C?CCASE
      01000112H   CODE     ---       ?C?CLDOPTR
      010000F9H   CODE     ---       ?C?CLDPTR
      00000000H   NUMBER   ---       ?C?CODESEG
      010000D3H   CODE     ---       ?C?COPY
      01000151H   CODE     ---       ?C?CSTOPTR
      0100013FH   CODE     ---       ?C?CSTPTR
      010003C2H   CODE     ---       ?C?ICALL
      010003C6H   CODE     ---       ?C?ICALL2
      01000395H   CODE     ---       ?C?ICASE
      010001C8H   CODE     ---       ?C?ILDIX
      010003C8H   CODE     ---       ?C?LIMUL
      010001DEH   CODE     ---       ?C?LMUL
      0100031FH   CODE     ---       ?C?LSHL
      0100033EH   CODE     ---       ?C?LSTKXDATA
      01000332H   CODE     ---       ?C?LSTXDATA
      01000173H   CODE     ---       ?C?UIDIV
      010002FBH   CODE     ---       ?C?ULCMP
      01000269H   CODE     ---       ?C?ULDIV
      0100030CH   CODE     ---       ?C?ULSHR
      00000000H   NUMBER   ---       ?C?XDATASEG
      0100043CH   CODE     ---       ?C_START
      01000000H   CODE     ---       ?C_STARTUP
      00000020H.0 BIT      BIT       ?CS_Scale_PowerOnProc?BIT
      01002949H   CODE     ---       _BT_CmdFifoFull
      010027F2H   CODE     ---       _BT_CmdFifoIn
      0100297EH   CODE     ---       _BT_EventFifoOut
      0100246EH   CODE     ---       _cal_crc32_multiple
      01001EFFH   CODE     ---       _changeLxOptStatus
      01002AB6H   CODE     ---       _cmemcpy
      0100192CH   CODE     ---       _CS_CommTo1186_SendCmd
      01001D2CH   CODE     ---       _CS_CommTo1186_Xor
      010036AAH   CODE     ---       _CS_MemoryWeightClear_Timer
      01002D99H   CODE     ---       _CS_Scale_1186ComSend
      0100313DH   CODE     ---       _CS_Scale_AdcFilter
      01000A08H   CODE     ---       _CS_Scale_CaliProc
      010017EFH   CODE     ---       _CS_Scale_GetDeltaAD
      01002FECH   CODE     ---       _CS_Scale_GetWeight
      01002FDAH   CODE     ---       _CS_Scale_JudgeLowBat
      01002F21H   CODE     ---       _CS_Scale_JudgeOverLoad
      01002B8FH   CODE     ---       _CS_Scale_JudgeSteady
      01002F6CH   CODE     ---       _CS_Scale_LockProc
      01002E8DH   CODE     ---       _CS_Scale_StandbyProc
      01002CF5H   CODE     ---       _CS_Scale_SteadyProc
      01003587H   CODE     ---       _CS_Scale_TimeOutProc
      010012FBH   CODE     ---       _CS_Scale_ZeroProc
      01001603H   CODE     ---       _CS_ScaleDisplay_FreshBuf
      010038B8H   CODE     ---       _CS_ScaleDisplay_HexToBcd
      010017D5H   CODE     ---       _CS_ScaleDisplay_LookUpTable
      01000EE5H   CODE     ---       _CS_SoftTimer
      010027BEH   CODE     ---       _dmemcpy
      0100184FH   CODE     ---       _generateChecksum
      01001DBDH   CODE     ---       _lxRecvDataFromApp
      01003E62H   CODE     ---       _QueuePush
      01002258H   CODE     ---       _SPIFlashEraseSector
      01001F3BH   CODE     ---       _SpiFlashOperator
      010023D3H   CODE     ---       _SPIFlashRead
      010022CEH   CODE     ---       _SPIFlashWrite
      01001D86H   CODE     ---       _xmemcpy
      01001F9CH   CODE     ---       _xmemset
      01001F84H   CODE     ---       _YC_Delay10ms
      010023BBH   CODE     ---       _YC_Delay1ms
      01002B43H   CODE     ---       _YC_Delay1S
      01001091H   CODE     ---       _YC_GPIOGetInputStatus
      01002AEDH   CODE     ---       _YC_MemCheckEmpty
      010007A8H   CODE     ---       _YC_UARTReciveDataExpected
      01001C2EH   CODE     ---       _YC_UARTSendData
      01001189H   CODE     ---       _YC_UtilTimerStartMs
      01002060H   CODE     ---       _YC_UtilTimerStop
      00000020H.1 BIT      BIT       B_Debug_Test
      02004CD7H   XDATA    BYTE      B_Weight_AdOk
      02004C5BH   XDATA    BYTE      bleConnStatus
      01002940H   CODE     ---       BT_CmdFifoEmpty
      02004A00H   XDATA    WORD      BT_CmdRptr
      02004A02H   XDATA    WORD      BT_CmdWptr
      02004A04H   XDATA    WORD      BT_EventRptr
      02004A06H   XDATA    WORD      BT_EventWptr
      01002912H   CODE     ---       BT_GetCmdFifoDepth
      01002A81H   CODE     ---       BT_GetEvtFifoDepth
      02004C63H   XDATA    ---       btCmdBuf
      01001FDAH   CODE     ---       BTControlProcess
      010036E0H   CODE     ---       CS_1186Com_ReadAdc_Proc
      010037B5H   CODE     ---       CS_1186Com_ReadAdZero_Proc
      0100187AH   CODE     ---       CS_1186Com_ReadMacAdress_Proc
      010005E2H   CODE     ---       CS_1186Com_ReadTime_Proc
      01000701H   CODE     ---       CS_1186Com_Reset_Proc
      0100052DH   CODE     ---       CS_1186Com_SetLcd_Proc
      0100071BH   CODE     ---       CS_1186Com_SetOpenWeight_Proc
      0100066DH   CODE     ---       CS_1186Com_SetSleepMode_Proc
      01002E87H   CODE     ---       CS_If1186ComSucess
      01000937H   CODE     ---       CS_KeyScan
      02004D28H   XDATA    ---       CS_Lcd_Send_Data
      02004D1DH   XDATA    ---       CS_Lcd_Send_Data_BAK
      02004D23H   XDATA    ---       CS_lcd_showbuf
      02004D2EH   XDATA    ---       CS_Lcd_Table
      010004E5H   CODE     ---       CS_Scale_1186Com
      010034EDH   CODE     ---       CS_Scale_ChangeUnit
      010012C8H   CODE     ---       CS_Scale_PowerOn
      01002DA4H   CODE     ---       CS_Scale_PowerOnProc
      01000F9CH   CODE     ---       CS_Scale_Proc
      0100351FH   CODE     ---       CS_Scale_ReturnLock
      01002B69H   CODE     ---       CS_Scale_WeightProc
      01001543H   CODE     ---       CS_ScaleDisplay
      01003867H   CODE     ---       CS_ScaleDisplay_Debug
      010039D7H   CODE     ---       CS_ScaleDisplay_LcdBackup
      01003923H   CODE     ---       CS_ScaleDisplay_LcdBuf_rShift4
      01000F73H   CODE     ---       CS_ScaleDisplay_LcdRestore
      010039C8H   CODE     ---       CS_ScaleDisplay_LcdShowAll
      01000F58H   CODE     ---       CS_ScaleDisplay_LcdShowNoDigit
      010039BAH   CODE     ---       CS_ScaleDisplay_LcdShowNull
      01000F23H   CODE     ---       CS_ScaleDisplay_SteadyFlash
      02004C06H   XDATA    ---       deviceInfo
      02004C5DH   XDATA    BYTE      handleIndicationConfirm
      02004C10H   XDATA    ---       historyUserData
      01003ABBH   CODE     ---       lxOptProcess
      02004C5CH   XDATA    BYTE      lxOptStatus
      010004C2H   CODE     ---       main
      02004C59H   XDATA    BYTE      notifyValueUUIDA621
      02004C5AH   XDATA    BYTE      notifyValueUUIDA625
      010017E5H   CODE     ---       QueueInit
      02004CD3H   XDATA    ---       R_1186_RTC
      02004CDAH   XDATA    BYTE      R_1186sys_state
      02004CD8H   XDATA    WORD      R_AD_Original
      02004CC7H   XDATA    WORD      R_Debug_temp
      02004CC2H   XDATA    BYTE      R_Display_Err
      02004CC5H   XDATA    BYTE      R_Scale_state
      02004CC6H   XDATA    BYTE      R_Selet_Unit
      02004C62H   XDATA    BYTE      R_Test
      02004CC9H   XDATA    ---       R_UnitWeight
      02004D55H   XDATA    ---       R_Weight_Com_Coo
      02004CC0H   XDATA    WORD      R_Weight_Lock
      02004CC3H   XDATA    WORD      R_Weight_Mem
      02004C00H   XDATA    ---       sensor_data
      010008F3H   CODE     ---       SoftTimer_10mSCallback
      02004E40H   XDATA    BYTE      SoftTimer_10msTimerID
      02004E3FH   XDATA    BYTE      SoftTimer_1STimerID
      010021FCH   CODE     ---       SPIFlashReadSR
      0100224BH   CODE     ---       SPIFlashWaitBusy
      0100238FH   CODE     ---       SPIFlashWriteEnable
      02004E5BH   XDATA    BYTE      sys_state
      010005A2H   CODE     ---       SysStatusProcess
      01000FFAH   CODE     ---       systemInit
      02004D45H   XDATA    ---       uartRcvBuf
      02004D68H   XDATA    BYTE      uartTimeoutCnt
      02004D58H   XDATA    ---       uartTxBuf
      02004C5EH   XDATA    LONG      UTCTime
      01002AAFH   CODE     ---       YC_Ice_break
      01000592H   CODE     ---       YC_UARTClearBuffer
      0100065BH   CODE     ---       YC_UARTWaitSendData
      02004CDBH   XDATA    ---       YC_UtilTimer
      010010C6H   CODE     ---       YC_UtilTimerInit
      010020B9H   CODE     ---       YC_UtilTimerProcess



SYMBOL TABLE OF MODULE:  OUT\FW (MAIN)

      VALUE       REP       CLASS    TYPE      SYMBOL NAME
      ====================================================
      ---         MODULE    ---      ---       MAIN
      010004C2H   PUBLIC    CODE     ---       main

      010004C2H   BLOCK     CODE     ---       LVL=0
      010004C2H   LINE      ---      ---       #20
      010004C2H   LINE      ---      ---       #21
      010004C2H   LINE      ---      ---       #22
      010004C8H   LINE      ---      ---       #23
      010004CBH   LINE      ---      ---       #24
      010004CBH   LINE      ---      ---       #25
      010004CEH   LINE      ---      ---       #26
      010004D1H   LINE      ---      ---       #28
      010004D3H   LINE      ---      ---       #29
      010004DAH   LINE      ---      ---       #30
      010004DDH   LINE      ---      ---       #31
      010004DFH   LINE      ---      ---       #32
      010004E2H   LINE      ---      ---       #33
      010004E2H   LINE      ---      ---       #34
      ---         BLOCKEND  ---      ---       LVL=0

      ---         MODULE    ---      ---       SYSTEM
      02004E40H   PUBLIC    XDATA    BYTE      SoftTimer_10msTimerID
      02004E3FH   PUBLIC    XDATA    BYTE      SoftTimer_1STimerID
      010005A2H   PUBLIC    CODE     ---       SysStatusProcess
      01001FDAH   PUBLIC    CODE     ---       BTControlProcess
      0100184FH   PUBLIC    CODE     ---       _generateChecksum
      01000FFAH   PUBLIC    CODE     ---       systemInit
      010008F3H   PUBLIC    CODE     ---       SoftTimer_10mSCallback

      010008F3H   BLOCK     CODE     ---       LVL=0
      010008F3H   LINE      ---      ---       #44
      010008F3H   LINE      ---      ---       #45
      010008F3H   BLOCK     CODE     NEAR LAB  LVL=1
      010008F3H   LINE      ---      ---       #47
      0100090AH   LINE      ---      ---       #49
      01000913H   LINE      ---      ---       #50
      01000916H   LINE      ---      ---       #51
      01000916H   LINE      ---      ---       #54
      0100091FH   LINE      ---      ---       #55
      01000924H   LINE      ---      ---       #57
      01000924H   LINE      ---      ---       #58
      01000929H   LINE      ---      ---       #59
      0100092EH   LINE      ---      ---       #60
      01000933H   LINE      ---      ---       #61
      01000933H   LINE      ---      ---       #63
      02004E3EH   SYMBOL    XDATA    VOID      count
      ---         BLOCKEND  CODE     ---       LVL=1
      ---         BLOCKEND  CODE     ---       LVL=0

      01000FFAH   BLOCK     CODE     ---       LVL=0
      01000FFAH   LINE      ---      ---       #69
      01000FFAH   LINE      ---      ---       #70
      01000FFAH   LINE      ---      ---       #71
      01000FFFH   LINE      ---      ---       #72
      01001007H   LINE      ---      ---       #73
      01001007H   LINE      ---      ---       #74
      0100100DH   LINE      ---      ---       #75
      01001012H   LINE      ---      ---       #77
      01001014H   LINE      ---      ---       #79
      01001019H   LINE      ---      ---       #80
      0100101EH   LINE      ---      ---       #81
      01001026H   LINE      ---      ---       #82
      01001026H   LINE      ---      ---       #83
      01001031H   LINE      ---      ---       #84
      01001031H   LINE      ---      ---       #85
      01001039H   LINE      ---      ---       #87
      0100103BH   LINE      ---      ---       #89
      01001051H   LINE      ---      ---       #90
      01001053H   LINE      ---      ---       #92
      01001055H   LINE      ---      ---       #93
      01001055H   LINE      ---      ---       #94
      01001061H   LINE      ---      ---       #95
      01001061H   LINE      ---      ---       #96
      01001067H   LINE      ---      ---       #97
      0100106BH   LINE      ---      ---       #98
      0100106DH   LINE      ---      ---       #100
      01001083H   LINE      ---      ---       #106
      01001085H   LINE      ---      ---       #107
      01001085H   LINE      ---      ---       #108
      0100108BH   LINE      ---      ---       #109
      0100108BH   LINE      ---      ---       #110
      0100108BH   LINE      ---      ---       #111
      01001090H   LINE      ---      ---       #112
      ---         BLOCKEND  ---      ---       LVL=0

      0100184FH   BLOCK     CODE     ---       LVL=0
      0100184FH   LINE      ---      ---       #114
      0100185AH   LINE      ---      ---       #115
      0100185AH   BLOCK     CODE     NEAR LAB  LVL=1
      0100185AH   LINE      ---      ---       #117
      0100185CH   LINE      ---      ---       #118
      01001862H   LINE      ---      ---       #119
      01001877H   LINE      ---      ---       #120
      01001879H   LINE      ---      ---       #121
      01001879H   LINE      ---      ---       #122
      00000007H   SYMBOL    DATA     VOID      result
      ---         BLOCKEND  CODE     ---       LVL=1
      ---         BLOCKEND  CODE     ---       LVL=0

      01001FDAH   BLOCK     CODE     ---       LVL=0
      01001FDAH   LINE      ---      ---       #124
      01001FDAH   LINE      ---      ---       #125
      01001FDAH   BLOCK     CODE     NEAR LAB  LVL=1
      01001FDAH   LINE      ---      ---       #128
      01001FE3H   LINE      ---      ---       #129
      01001FE9H   LINE      ---      ---       #130
      01001FE9H   LINE      ---      ---       #132
      01001FFDH   LINE      ---      ---       #133
      01001FFDH   LINE      ---      ---       #134
      01001FFDH   LINE      ---      ---       #135
      01001FFDH   LINE      ---      ---       #136
      01002002H   LINE      ---      ---       #137
      01002006H   LINE      ---      ---       #138
      0100200AH   LINE      ---      ---       #139
      0100200BH   LINE      ---      ---       #140
      0100200BH   LINE      ---      ---       #141
      01002010H   LINE      ---      ---       #142
      01002015H   LINE      ---      ---       #143
      01002016H   LINE      ---      ---       #144
      01002016H   LINE      ---      ---       #145
      0100201FH   LINE      ---      ---       #146
      0100201FH   LINE      ---      ---       #147
      0100201FH   LINE      ---      ---       #148
      01002027H   LINE      ---      ---       #149
      01002027H   LINE      ---      ---       #150
      0100202FH   LINE      ---      ---       #151
      01002031H   LINE      ---      ---       #152
      01002035H   LINE      ---      ---       #153
      01002035H   LINE      ---      ---       #154
      0100203DH   LINE      ---      ---       #155
      0100203DH   LINE      ---      ---       #157
      01002052H   LINE      ---      ---       #160
      01002052H   LINE      ---      ---       #161
      01002058H   LINE      ---      ---       #162
      01002058H   LINE      ---      ---       #163
      01002059H   LINE      ---      ---       #164
      01002059H   LINE      ---      ---       #165
      01002059H   LINE      ---      ---       #166
      01002059H   LINE      ---      ---       #167
      0100205FH   LINE      ---      ---       #168
      0100205FH   LINE      ---      ---       #169
      0100205FH   LINE      ---      ---       #170
      0100205FH   LINE      ---      ---       #171
      02004D69H   SYMBOL    XDATA    VOID      event
      ---         BLOCKEND  CODE     ---       LVL=1
      ---         BLOCKEND  CODE     ---       LVL=0

      010005A2H   BLOCK     CODE     ---       LVL=0
      010005A2H   LINE      ---      ---       #174
      010005A2H   LINE      ---      ---       #175
      010005A2H   LINE      ---      ---       #176
      010005A9H   LINE      ---      ---       #177
      010005AFH   LINE      ---      ---       #178
      010005AFH   LINE      ---      ---       #179
      010005B1H   LINE      ---      ---       #180
      010005B3H   LINE      ---      ---       #181
      010005B9H   LINE      ---      ---       #183
      010005BDH   LINE      ---      ---       #184
      010005C1H   LINE      ---      ---       #185
      010005CAH   LINE      ---      ---       #188
      010005CAH   LINE      ---      ---       #189
      010005CAH   LINE      ---      ---       #190
      010005D1H   LINE      ---      ---       #191
      010005D3H   LINE      ---      ---       #192
      010005D5H   LINE      ---      ---       #193
      010005DBH   LINE      ---      ---       #194
      010005DCH   LINE      ---      ---       #195
      010005DCH   LINE      ---      ---       #196
      010005E1H   LINE      ---      ---       #197
      010005E1H   LINE      ---      ---       #198
      ---         BLOCKEND  ---      ---       LVL=0

      ---         MODULE    ---      ---       YC_SYS
      02004CDBH   PUBLIC    XDATA    ---       YC_UtilTimer
      010020B9H   PUBLIC    CODE     ---       YC_UtilTimerProcess
      01002060H   PUBLIC    CODE     ---       _YC_UtilTimerStop
      02004DD5H   PUBLIC    XDATA    BYTE      ?_YC_UtilTimerStartMs?BYTE
      01001189H   PUBLIC    CODE     ---       _YC_UtilTimerStartMs
      010010C6H   PUBLIC    CODE     ---       YC_UtilTimerInit

      010010C6H   BLOCK     CODE     ---       LVL=0
      010010C6H   LINE      ---      ---       #8
      010010C6H   LINE      ---      ---       #9
      010010C6H   BLOCK     CODE     NEAR LAB  LVL=1
      010010C6H   LINE      ---      ---       #12
      010010CBH   LINE      ---      ---       #13
      01001148H   LINE      ---      ---       #14
      01001157H   LINE      ---      ---       #15
      0100116BH   LINE      ---      ---       #16
      01001180H   LINE      ---      ---       #17
      01001188H   LINE      ---      ---       #19
      02004E58H   SYMBOL    XDATA    VOID      i
      ---         BLOCKEND  CODE     ---       LVL=1
      ---         BLOCKEND  CODE     ---       LVL=0

      01001189H   BLOCK     CODE     ---       LVL=0
      01001189H   LINE      ---      ---       #44
      01001191H   LINE      ---      ---       #45
      01001191H   BLOCK     CODE     NEAR LAB  LVL=1
      01001191H   LINE      ---      ---       #46
      01001196H   LINE      ---      ---       #49
      0100119DH   LINE      ---      ---       #50
      0100119FH   LINE      ---      ---       #51
      0100119FH   LINE      ---      ---       #52
      010011A9H   LINE      ---      ---       #53
      010011BAH   LINE      ---      ---       #54
      010011C5H   LINE      ---      ---       #55
      010011CCH   LINE      ---      ---       #56
      010011CEH   LINE      ---      ---       #57
      010011CEH   LINE      ---      ---       #58
      010011D4H   LINE      ---      ---       #59
      010011D6H   LINE      ---      ---       #60
      010011F0H   LINE      ---      ---       #61
      01001206H   LINE      ---      ---       #62
      010012C6H   LINE      ---      ---       #63
      010012C7H   LINE      ---      ---       #64
      02004DDCH   SYMBOL    XDATA    VOID      i
      ---         BLOCKEND  CODE     ---       LVL=1
      ---         BLOCKEND  CODE     ---       LVL=0

      01002060H   BLOCK     CODE     ---       LVL=0
      01002060H   LINE      ---      ---       #66
      01002062H   LINE      ---      ---       #68
      01002079H   LINE      ---      ---       #69
      0100207BH   LINE      ---      ---       #70
      0100208EH   LINE      ---      ---       #71
      010020A2H   LINE      ---      ---       #72
      010020B7H   LINE      ---      ---       #73
      010020B8H   LINE      ---      ---       #74
      ---         BLOCKEND  ---      ---       LVL=0

      010020B9H   BLOCK     CODE     ---       LVL=0
      010020B9H   LINE      ---      ---       #76
      010020B9H   BLOCK     CODE     NEAR LAB  LVL=1
      010020B9H   LINE      ---      ---       #97
      01002136H   LINE      ---      ---       #98
      01002139H   LINE      ---      ---       #99
      0100214EH   LINE      ---      ---       #100
      010021BAH   LINE      ---      ---       #101
      010021BAH   LINE      ---      ---       #102
      010021D2H   LINE      ---      ---       #103
      010021F0H   LINE      ---      ---       #104
      010021F0H   LINE      ---      ---       #105
      010021F0H   LINE      ---      ---       #106
      010021FBH   LINE      ---      ---       #109
      0000001FH   SYMBOL    DATA     VOID      i
      ---         BLOCKEND  CODE     ---       LVL=1
      ---         BLOCKEND  CODE     ---       LVL=0

      ---         MODULE    ---      ---       YC_PERIPHERAL
      01000592H   PUBLIC    CODE     ---       YC_UARTClearBuffer
      010007A8H   PUBLIC    CODE     ---       _YC_UARTReciveDataExpected
      0100065BH   PUBLIC    CODE     ---       YC_UARTWaitSendData
      01001C2EH   PUBLIC    CODE     ---       _YC_UARTSendData
      01001091H   PUBLIC    CODE     ---       _YC_GPIOGetInputStatus

      01001091H   BLOCK     CODE     ---       LVL=0
      01001091H   LINE      ---      ---       #140
      01001091H   LINE      ---      ---       #141
      01001091H   BLOCK     CODE     NEAR LAB  LVL=1
      01001091H   LINE      ---      ---       #144
      01001095H   LINE      ---      ---       #145
      0100109CH   LINE      ---      ---       #147
      010010C5H   LINE      ---      ---       #148
      00000006H   SYMBOL    DATA     VOID      queue
      00000007H   SYMBOL    DATA     VOID      group
      ---         BLOCKEND  CODE     ---       LVL=1
      ---         BLOCKEND  CODE     ---       LVL=0

      01001C2EH   BLOCK     CODE     ---       LVL=0
      01001C2EH   LINE      ---      ---       #351
      01001C3FH   LINE      ---      ---       #352
      01001C3FH   BLOCK     CODE     NEAR LAB  LVL=1
      01001C3FH   LINE      ---      ---       #354
      01001C5BH   LINE      ---      ---       #356
      01001C79H   LINE      ---      ---       #357
      01001C79H   LINE      ---      ---       #358
      01001C9DH   LINE      ---      ---       #360
      01001CC3H   LINE      ---      ---       #361
      01001CC3H   LINE      ---      ---       #362
      01001CD0H   LINE      ---      ---       #363
      01001CE1H   LINE      ---      ---       #365
      01001CFDH   LINE      ---      ---       #366
      01001CFDH   LINE      ---      ---       #367
      01001D0DH   LINE      ---      ---       #369
      01001D2BH   LINE      ---      ---       #371
      02004DB3H   SYMBOL    XDATA    VOID      i
      02004DB5H   SYMBOL    XDATA    VOID      twptr
      ---         BLOCKEND  CODE     ---       LVL=1
      ---         BLOCKEND  CODE     ---       LVL=0

      0100065BH   BLOCK     CODE     ---       LVL=0
      0100065BH   LINE      ---      ---       #373
      0100065BH   LINE      ---      ---       #374
      0100065BH   LINE      ---      ---       #375
      0100066CH   LINE      ---      ---       #376
      ---         BLOCKEND  ---      ---       LVL=0

      010007A8H   BLOCK     CODE     ---       LVL=0
      010007A8H   LINE      ---      ---       #378
      010007B9H   LINE      ---      ---       #379
      010007B9H   BLOCK     CODE     NEAR LAB  LVL=1
      010007B9H   LINE      ---      ---       #380
      010007BEH   LINE      ---      ---       #381
      010007D4H   LINE      ---      ---       #383
      010007EFH   LINE      ---      ---       #384
      010007EFH   LINE      ---      ---       #385
      010007F3H   LINE      ---      ---       #386
      010007F3H   LINE      ---      ---       #388
      01000811H   LINE      ---      ---       #389
      01000811H   LINE      ---      ---       #390
      0100083DH   LINE      ---      ---       #392
      0100085FH   LINE      ---      ---       #393
      0100085FH   LINE      ---      ---       #394
      01000875H   LINE      ---      ---       #395
      01000875H   LINE      ---      ---       #397
      01000893H   LINE      ---      ---       #398
      01000893H   LINE      ---      ---       #399
      010008ADH   LINE      ---      ---       #400
      010008BCH   LINE      ---      ---       #401
      010008BCH   LINE      ---      ---       #402
      010008CDH   LINE      ---      ---       #404
      010008EAH   LINE      ---      ---       #406
      010008F2H   LINE      ---      ---       #407
      02004DD1H   SYMBOL    XDATA    VOID      i
      02004DD3H   SYMBOL    XDATA    VOID      rrptr
      ---         BLOCKEND  CODE     ---       LVL=1
      ---         BLOCKEND  CODE     ---       LVL=0

      01000592H   BLOCK     CODE     ---       LVL=0
      01000592H   LINE      ---      ---       #409
      01000592H   LINE      ---      ---       #410
      01000592H   LINE      ---      ---       #411
      010005A1H   LINE      ---      ---       #413
      ---         BLOCKEND  ---      ---       LVL=0

      ---         MODULE    ---      ---       SPIFLASH
      02004DE5H   PUBLIC    XDATA    BYTE      ?_SPIFlashRead?BYTE
      010023D3H   PUBLIC    CODE     ---       _SPIFlashRead
      02004DDDH   PUBLIC    XDATA    BYTE      ?_SPIFlashWrite?BYTE
      010022CEH   PUBLIC    CODE     ---       _SPIFlashWrite
      01002258H   PUBLIC    CODE     ---       _SPIFlashEraseSector
      0100224BH   PUBLIC    CODE     ---       SPIFlashWaitBusy
      0100238FH   PUBLIC    CODE     ---       SPIFlashWriteEnable
      010021FCH   PUBLIC    CODE     ---       SPIFlashReadSR

      010021FCH   BLOCK     CODE     ---       LVL=0
      010021FCH   LINE      ---      ---       #21
      010021FCH   LINE      ---      ---       #22
      010021FCH   BLOCK     CODE     NEAR LAB  LVL=1
      010021FCH   LINE      ---      ---       #24
      01002202H   LINE      ---      ---       #25
      0100220BH   LINE      ---      ---       #26
      01002213H   LINE      ---      ---       #27
      01002219H   LINE      ---      ---       #28
      01002223H   LINE      ---      ---       #29
      01002233H   LINE      ---      ---       #30
      01002239H   LINE      ---      ---       #31
      01002240H   LINE      ---      ---       #33
      01002245H   LINE      ---      ---       #34
      02004E59H   SYMBOL    XDATA    VOID      status
      ---         BLOCKEND  CODE     ---       LVL=1
      ---         BLOCKEND  CODE     ---       LVL=0

      0100238FH   BLOCK     CODE     ---       LVL=0
      0100238FH   LINE      ---      ---       #35
      0100238FH   LINE      ---      ---       #36
      0100238FH   LINE      ---      ---       #37
      01002396H   LINE      ---      ---       #38
      0100239EH   LINE      ---      ---       #39
      010023A4H   LINE      ---      ---       #40
      010023AEH   LINE      ---      ---       #41
      010023B3H   LINE      ---      ---       #42
      010023BAH   LINE      ---      ---       #43
      ---         BLOCKEND  ---      ---       LVL=0

      01002246H   BLOCK     CODE     ---       LVL=0
      0100224BH   LINE      ---      ---       #44
      0100224BH   LINE      ---      ---       #45
      0100224BH   LINE      ---      ---       #46
      01002251H   LINE      ---      ---       #47
      01002255H   LINE      ---      ---       #48
      01002257H   LINE      ---      ---       #49
      ---         BLOCKEND  ---      ---       LVL=0

      01002258H   BLOCK     CODE     ---       LVL=0
      01002258H   LINE      ---      ---       #50
      0100225DH   LINE      ---      ---       #54
      01002263H   LINE      ---      ---       #55
      0100227BH   LINE      ---      ---       #56
      01002293H   LINE      ---      ---       #57
      010022A7H   LINE      ---      ---       #58
      010022B0H   LINE      ---      ---       #59
      010022B8H   LINE      ---      ---       #60
      010022BFH   LINE      ---      ---       #61
      010022C5H   LINE      ---      ---       #62
      010022CCH   LINE      ---      ---       #63
      ---         BLOCKEND  ---      ---       LVL=0

      010022CEH   BLOCK     CODE     ---       LVL=0
      010022CEH   LINE      ---      ---       #65
      010022DAH   BLOCK     CODE     NEAR LAB  LVL=1
      010022DCH   LINE      ---      ---       #70
      010022E8H   LINE      ---      ---       #71
      01002308H   LINE      ---      ---       #72
      0100230BH   LINE      ---      ---       #73
      01002311H   LINE      ---      ---       #74
      01002329H   LINE      ---      ---       #75
      01002341H   LINE      ---      ---       #76
      01002355H   LINE      ---      ---       #77
      01002371H   LINE      ---      ---       #78
      01002379H   LINE      ---      ---       #79
      01002380H   LINE      ---      ---       #80
      01002386H   LINE      ---      ---       #81
      0100238DH   LINE      ---      ---       #82
      00000007H   SYMBOL    DATA     VOID      i
      ---         BLOCKEND  CODE     ---       LVL=1
      ---         BLOCKEND  CODE     ---       LVL=0

      010023D3H   BLOCK     CODE     ---       LVL=0
      010023D3H   LINE      ---      ---       #84
      010023D9H   LINE      ---      ---       #85
      010023D9H   LINE      ---      ---       #86
      010023E8H   LINE      ---      ---       #87
      010023F1H   LINE      ---      ---       #88
      010023F7H   LINE      ---      ---       #89
      0100240FH   LINE      ---      ---       #90
      01002427H   LINE      ---      ---       #91
      0100243BH   LINE      ---      ---       #92
      01002445H   LINE      ---      ---       #93
      01002452H   LINE      ---      ---       #94
      01002459H   LINE      ---      ---       #95
      0100245FH   LINE      ---      ---       #97
      01002466H   LINE      ---      ---       #98
      0100246DH   LINE      ---      ---       #100
      ---         BLOCKEND  ---      ---       LVL=0

      ---         MODULE    ---      ---       BT_IPC
      01002949H   PUBLIC    CODE     ---       _BT_CmdFifoFull
      01002940H   PUBLIC    CODE     ---       BT_CmdFifoEmpty
      01002A81H   PUBLIC    CODE     ---       BT_GetEvtFifoDepth
      01002912H   PUBLIC    CODE     ---       BT_GetCmdFifoDepth
      0100297EH   PUBLIC    CODE     ---       _BT_EventFifoOut
      010027F2H   PUBLIC    CODE     ---       _BT_CmdFifoIn

      010027F2H   BLOCK     CODE     ---       LVL=0
      010027F2H   LINE      ---      ---       #7
      010027FDH   LINE      ---      ---       #8
      010027FDH   BLOCK     CODE     NEAR LAB  LVL=1
      010027FDH   LINE      ---      ---       #10
      01002802H   LINE      ---      ---       #11
      01002804H   LINE      ---      ---       #12
      01002820H   LINE      ---      ---       #13
      0100282BH   LINE      ---      ---       #14
      0100282BH   LINE      ---      ---       #15
      01002840H   LINE      ---      ---       #16
      01002852H   LINE      ---      ---       #17
      0100285EH   LINE      ---      ---       #18
      0100285EH   LINE      ---      ---       #19
      01002867H   LINE      ---      ---       #20
      01002867H   LINE      ---      ---       #21
      01002878H   LINE      ---      ---       #22
      01002884H   LINE      ---      ---       #23
      01002884H   LINE      ---      ---       #24
      0100288DH   LINE      ---      ---       #25
      0100288DH   LINE      ---      ---       #26
      010028B2H   LINE      ---      ---       #27
      010028B2H   LINE      ---      ---       #28
      010028D4H   LINE      ---      ---       #29
      010028E0H   LINE      ---      ---       #30
      010028E0H   LINE      ---      ---       #31
      010028E9H   LINE      ---      ---       #32
      010028E9H   LINE      ---      ---       #33
      010028F9H   LINE      ---      ---       #34
      0100290EH   LINE      ---      ---       #35
      01002910H   LINE      ---      ---       #36
      01002910H   LINE      ---      ---       #38
      01002910H   LINE      ---      ---       #39
      01002911H   LINE      ---      ---       #40
      01002911H   LINE      ---      ---       #41
      02004E00H   SYMBOL    XDATA    VOID      new_wprt
      00000006H   SYMBOL    DATA     VOID      new_cmd_len
      02004E02H   SYMBOL    XDATA    VOID      i
      ---         BLOCKEND  CODE     ---       LVL=1
      ---         BLOCKEND  CODE     ---       LVL=0

      0100297EH   BLOCK     CODE     ---       LVL=0
      0100297EH   LINE      ---      ---       #43
      01002989H   LINE      ---      ---       #44
      01002989H   BLOCK     CODE     NEAR LAB  LVL=1
      01002989H   LINE      ---      ---       #47
      01002993H   LINE      ---      ---       #48
      01002993H   LINE      ---      ---       #49
      010029A8H   LINE      ---      ---       #50
      010029B9H   LINE      ---      ---       #51
      010029BFH   LINE      ---      ---       #52
      010029DEH   LINE      ---      ---       #53
      010029EAH   LINE      ---      ---       #54
      010029EAH   LINE      ---      ---       #55
      010029F4H   LINE      ---      ---       #56
      010029F4H   LINE      ---      ---       #57
      01002A0EH   LINE      ---      ---       #58
      01002A0EH   LINE      ---      ---       #59
      01002A30H   LINE      ---      ---       #60
      01002A3CH   LINE      ---      ---       #61
      01002A3CH   LINE      ---      ---       #62
      01002A46H   LINE      ---      ---       #63
      01002A46H   LINE      ---      ---       #64
      01002A4DH   LINE      ---      ---       #65
      01002A4DH   LINE      ---      ---       #66
      01002A4DH   LINE      ---      ---       #67
      01002A5CH   LINE      ---      ---       #68
      01002A5CH   LINE      ---      ---       #69
      01002A71H   LINE      ---      ---       #70
      01002A72H   LINE      ---      ---       #72
      01002A72H   LINE      ---      ---       #73
      02004E27H   SYMBOL    XDATA    VOID      new_rprt
      00000006H   SYMBOL    DATA     VOID      i
      00000007H   SYMBOL    DATA     VOID      event_prefix
      ---         BLOCKEND  CODE     ---       LVL=1
      ---         BLOCKEND  CODE     ---       LVL=0

      01002912H   BLOCK     CODE     ---       LVL=0
      01002912H   LINE      ---      ---       #78
      01002912H   LINE      ---      ---       #79
      01002912H   BLOCK     CODE     NEAR LAB  LVL=1
      01002912H   LINE      ---      ---       #81
      0100291FH   LINE      ---      ---       #82
      0100292CH   LINE      ---      ---       #83
      0100293FH   LINE      ---      ---       #84
      0100293FH   LINE      ---      ---       #85
      00000004H   SYMBOL    DATA     VOID      wptr
      00000006H   SYMBOL    DATA     VOID      rptr
      00000006H   SYMBOL    DATA     VOID      len
      ---         BLOCKEND  CODE     ---       LVL=1
      ---         BLOCKEND  CODE     ---       LVL=0

      01002A81H   BLOCK     CODE     ---       LVL=0
      01002A81H   LINE      ---      ---       #87
      01002A81H   LINE      ---      ---       #88
      01002A81H   BLOCK     CODE     NEAR LAB  LVL=1
      01002A81H   LINE      ---      ---       #90
      01002A8EH   LINE      ---      ---       #91
      01002A9BH   LINE      ---      ---       #92
      01002AAEH   LINE      ---      ---       #93
      01002AAEH   LINE      ---      ---       #94
      00000004H   SYMBOL    DATA     VOID      wptr
      00000006H   SYMBOL    DATA     VOID      rptr
      00000006H   SYMBOL    DATA     VOID      len
      ---         BLOCKEND  CODE     ---       LVL=1
      ---         BLOCKEND  CODE     ---       LVL=0

      01002940H   BLOCK     CODE     ---       LVL=0
      01002940H   LINE      ---      ---       #96
      01002940H   LINE      ---      ---       #97
      01002940H   LINE      ---      ---       #98
      01002945H   LINE      ---      ---       #99
      01002945H   LINE      ---      ---       #100
      01002947H   LINE      ---      ---       #101
      01002947H   LINE      ---      ---       #102
      01002948H   LINE      ---      ---       #103
      ---         BLOCKEND  ---      ---       LVL=0

      01002949H   BLOCK     CODE     ---       LVL=0
      01002949H   LINE      ---      ---       #105
      01002954H   LINE      ---      ---       #106
      01002954H   LINE      ---      ---       #107
      0100297AH   LINE      ---      ---       #108
      0100297CH   LINE      ---      ---       #109
      0100297DH   LINE      ---      ---       #110
      ---         BLOCKEND  ---      ---       LVL=0

      ---         MODULE    ---      ---       YC_UTILITIES
      01002B43H   PUBLIC    CODE     ---       _YC_Delay1S
      01001F84H   PUBLIC    CODE     ---       _YC_Delay10ms
      010023BBH   PUBLIC    CODE     ---       _YC_Delay1ms
      01002AEDH   PUBLIC    CODE     ---       _YC_MemCheckEmpty
      00000021H   PUBLIC    DATA     BYTE      ?_cmemcpy?BYTE
      01002AB6H   PUBLIC    CODE     ---       _cmemcpy
      00000010H   PUBLIC    DATA     BYTE      ?_dmemcpy?BYTE
      010027BEH   PUBLIC    CODE     ---       _dmemcpy
      00000017H   PUBLIC    DATA     BYTE      ?_xmemcpy?BYTE
      01001D86H   PUBLIC    CODE     ---       _xmemcpy
      01001F9CH   PUBLIC    CODE     ---       _xmemset
      01002AAFH   PUBLIC    CODE     ---       YC_Ice_break

      01002AAFH   BLOCK     CODE     ---       LVL=0
      01002AAFH   LINE      ---      ---       #4
      01002AAFH   LINE      ---      ---       #5
      01002AAFH   LINE      ---      ---       #6
      01002AB5H   LINE      ---      ---       #8
      ---         BLOCKEND  ---      ---       LVL=0

      01001F9CH   BLOCK     CODE     ---       LVL=0
      01001F9CH   LINE      ---      ---       #10
      01001FA0H   LINE      ---      ---       #12
      01001FA6H   LINE      ---      ---       #13
      01001FB9H   LINE      ---      ---       #15
      ---         BLOCKEND  ---      ---       LVL=0

      01001D86H   BLOCK     CODE     ---       LVL=0
      01001D86H   LINE      ---      ---       #16
      01001D90H   LINE      ---      ---       #18
      01001D97H   LINE      ---      ---       #19
      01001DBCH   LINE      ---      ---       #21
      ---         BLOCKEND  ---      ---       LVL=0

      010027BEH   BLOCK     CODE     ---       LVL=0
      010027BEH   LINE      ---      ---       #22
      010027C4H   LINE      ---      ---       #24
      010027CBH   LINE      ---      ---       #25
      010027F1H   LINE      ---      ---       #27
      ---         BLOCKEND  ---      ---       LVL=0

      01002AB6H   BLOCK     CODE     ---       LVL=0
      01002AB6H   LINE      ---      ---       #28
      01002AC0H   LINE      ---      ---       #30
      01002AC7H   LINE      ---      ---       #31
      01002AECH   LINE      ---      ---       #33
      ---         BLOCKEND  ---      ---       LVL=0

      01002AEDH   BLOCK     CODE     ---       LVL=0
      01002AEDH   LINE      ---      ---       #34
      01002AFBH   LINE      ---      ---       #35
      01002AFBH   BLOCK     CODE     NEAR LAB  LVL=1
      01002AFBH   LINE      ---      ---       #37
      01002B0DH   LINE      ---      ---       #38
      01002B0DH   LINE      ---      ---       #39
      01002B22H   LINE      ---      ---       #40
      01002B22H   LINE      ---      ---       #41
      01002B22H   LINE      ---      ---       #42
      01002B22H   LINE      ---      ---       #43
      01002B38H   LINE      ---      ---       #44
      01002B38H   LINE      ---      ---       #45
      01002B3AH   LINE      ---      ---       #46
      01002B3AH   LINE      ---      ---       #47
      01002B41H   LINE      ---      ---       #48
      01002B42H   LINE      ---      ---       #49
      00000006H   SYMBOL    DATA     VOID      i
      ---         BLOCKEND  CODE     ---       LVL=1
      ---         BLOCKEND  CODE     ---       LVL=0

      010023BBH   BLOCK     CODE     ---       LVL=0
      010023BBH   LINE      ---      ---       #51
      010023BBH   LINE      ---      ---       #52
      010023BBH   BLOCK     CODE     NEAR LAB  LVL=1
      010023BBH   LINE      ---      ---       #54
      010023C1H   LINE      ---      ---       #55
      010023C1H   LINE      ---      ---       #56
      010023CFH   LINE      ---      ---       #57
      010023D2H   LINE      ---      ---       #58
      00000004H   SYMBOL    DATA     VOID      j
      ---         BLOCKEND  CODE     ---       LVL=1
      ---         BLOCKEND  CODE     ---       LVL=0

      01001F84H   BLOCK     CODE     ---       LVL=0
      01001F84H   LINE      ---      ---       #60
      01001F84H   LINE      ---      ---       #61
      01001F84H   BLOCK     CODE     NEAR LAB  LVL=1
      01001F84H   LINE      ---      ---       #63
      01001F8AH   LINE      ---      ---       #64
      01001F8AH   LINE      ---      ---       #65
      01001F98H   LINE      ---      ---       #66
      01001F9BH   LINE      ---      ---       #67
      00000004H   SYMBOL    DATA     VOID      j
      ---         BLOCKEND  CODE     ---       LVL=1
      ---         BLOCKEND  CODE     ---       LVL=0

      01002B43H   BLOCK     CODE     ---       LVL=0
      01002B43H   LINE      ---      ---       #69
      01002B43H   LINE      ---      ---       #70
      01002B43H   BLOCK     CODE     NEAR LAB  LVL=1
      01002B43H   LINE      ---      ---       #72
      01002B49H   LINE      ---      ---       #73
      01002B49H   LINE      ---      ---       #74
      01002B4CH   LINE      ---      ---       #75
      01002B4CH   LINE      ---      ---       #76
      01002B5AH   LINE      ---      ---       #77
      01002B65H   LINE      ---      ---       #78
      01002B68H   LINE      ---      ---       #79
      00000004H   SYMBOL    DATA     VOID      j
      00000002H   SYMBOL    DATA     VOID      k
      ---         BLOCKEND  CODE     ---       LVL=1
      ---         BLOCKEND  CODE     ---       LVL=0

      ---         MODULE    ---      ---       CS_SCALE_PROC
      02004CDAH   PUBLIC    XDATA    BYTE      R_1186sys_state
      02004CD8H   PUBLIC    XDATA    WORD      R_AD_Original
      02004CD7H   PUBLIC    XDATA    BYTE      B_Weight_AdOk
      02004CD3H   PUBLIC    XDATA    ---       R_1186_RTC
      02004CC9H   PUBLIC    XDATA    ---       R_UnitWeight
      02004CC7H   PUBLIC    XDATA    WORD      R_Debug_temp
      02004CC6H   PUBLIC    XDATA    BYTE      R_Selet_Unit
      02004CC5H   PUBLIC    XDATA    BYTE      R_Scale_state
      02004CC3H   PUBLIC    XDATA    WORD      R_Weight_Mem
      02004CC2H   PUBLIC    XDATA    BYTE      R_Display_Err
      00000020H.1 PUBLIC    BIT      BIT       B_Debug_Test
      02004CC0H   PUBLIC    XDATA    WORD      R_Weight_Lock
      01003587H   PUBLIC    CODE     ---       _CS_Scale_TimeOutProc
      01000EE5H   PUBLIC    CODE     ---       _CS_SoftTimer
      00000020H.0 PUBLIC    BIT      BIT       ?CS_Scale_PowerOnProc?BIT
      01002DA4H   PUBLIC    CODE     ---       CS_Scale_PowerOnProc
      01002E8DH   PUBLIC    CODE     ---       _CS_Scale_StandbyProc
      01000A08H   PUBLIC    CODE     ---       _CS_Scale_CaliProc
      010036AAH   PUBLIC    CODE     ---       _CS_MemoryWeightClear_Timer
      0100351FH   PUBLIC    CODE     ---       CS_Scale_ReturnLock
      01002CF5H   PUBLIC    CODE     ---       _CS_Scale_SteadyProc
      01002B8FH   PUBLIC    CODE     ---       _CS_Scale_JudgeSteady
      01002F21H   PUBLIC    CODE     ---       _CS_Scale_JudgeOverLoad
      01002FDAH   PUBLIC    CODE     ---       _CS_Scale_JudgeLowBat
      01002F6CH   PUBLIC    CODE     ---       _CS_Scale_LockProc
      010012FBH   PUBLIC    CODE     ---       _CS_Scale_ZeroProc
      010034EDH   PUBLIC    CODE     ---       CS_Scale_ChangeUnit
      01002FECH   PUBLIC    CODE     ---       _CS_Scale_GetWeight
      0100313DH   PUBLIC    CODE     ---       _CS_Scale_AdcFilter
      010017EFH   PUBLIC    CODE     ---       _CS_Scale_GetDeltaAD
      01002B69H   PUBLIC    CODE     ---       CS_Scale_WeightProc
      010012C8H   PUBLIC    CODE     ---       CS_Scale_PowerOn
      01000F9CH   PUBLIC    CODE     ---       CS_Scale_Proc

      01000F9CH   BLOCK     CODE     ---       LVL=0
      01000F9CH   LINE      ---      ---       #121
      01000F9CH   LINE      ---      ---       #122
      01000F9CH   LINE      ---      ---       #123
      01000FA2H   LINE      ---      ---       #124
      01000FA2H   LINE      ---      ---       #125
      01000FA7H   LINE      ---      ---       #126
      01000FA7H   LINE      ---      ---       #127
      01000FAEH   LINE      ---      ---       #128
      01000FAEH   LINE      ---      ---       #129
      01000FB3H   LINE      ---      ---       #130
      01000FB3H   LINE      ---      ---       #132
      01000FBBH   LINE      ---      ---       #133
      01000FBBH   LINE      ---      ---       #134
      01000FBCH   LINE      ---      ---       #136
      01000FC7H   LINE      ---      ---       #137
      01000FC7H   LINE      ---      ---       #138
      01000FCEH   LINE      ---      ---       #139
      01000FCEH   LINE      ---      ---       #141
      01000FCEH   LINE      ---      ---       #143
      01000FD5H   LINE      ---      ---       #144
      01000FD5H   LINE      ---      ---       #145
      01000FD8H   LINE      ---      ---       #146
      01000FDBH   LINE      ---      ---       #147
      01000FDBH   LINE      ---      ---       #148
      01000FE2H   LINE      ---      ---       #149
      01000FE2H   LINE      ---      ---       #150
      01000FE4H   LINE      ---      ---       #151
      01000FE9H   LINE      ---      ---       #152
      01000FE9H   LINE      ---      ---       #153
      01000FF0H   LINE      ---      ---       #154
      01000FF0H   LINE      ---      ---       #155
      01000FF4H   LINE      ---      ---       #156
      01000FF4H   LINE      ---      ---       #158
      01000FF9H   LINE      ---      ---       #159
      01000FF9H   LINE      ---      ---       #160
      01000FF9H   LINE      ---      ---       #161
      ---         BLOCKEND  ---      ---       LVL=0

      010012C8H   BLOCK     CODE     ---       LVL=0
      010012C8H   LINE      ---      ---       #169
      010012C8H   LINE      ---      ---       #170
      010012C8H   LINE      ---      ---       #172
      010012CEH   LINE      ---      ---       #173
      010012CEH   LINE      ---      ---       #174
      010012D2H   LINE      ---      ---       #175
      010012D6H   LINE      ---      ---       #176
      010012DAH   LINE      ---      ---       #178
      010012DEH   LINE      ---      ---       #180
      010012E2H   LINE      ---      ---       #181
      010012E4H   LINE      ---      ---       #183
      010012E9H   LINE      ---      ---       #184
      010012F0H   LINE      ---      ---       #186
      010012F5H   LINE      ---      ---       #187
      010012FAH   LINE      ---      ---       #188
      010012FAH   LINE      ---      ---       #189
      ---         BLOCKEND  ---      ---       LVL=0

      01002B69H   BLOCK     CODE     ---       LVL=0
      01002B69H   LINE      ---      ---       #198
      01002B69H   LINE      ---      ---       #199
      01002B69H   BLOCK     CODE     NEAR LAB  LVL=1
      01002B69H   LINE      ---      ---       #202
      01002B6EH   LINE      ---      ---       #203
      01002B77H   LINE      ---      ---       #204
      01002B79H   LINE      ---      ---       #205
      01002B81H   LINE      ---      ---       #206
      01002B85H   LINE      ---      ---       #207
      01002B89H   LINE      ---      ---       #208
      01002B8DH   LINE      ---      ---       #209
      00000006H   SYMBOL    DATA     VOID      R_AD_BUF
      ---         BLOCKEND  CODE     ---       LVL=1
      ---         BLOCKEND  CODE     ---       LVL=0

      010017EFH   BLOCK     CODE     ---       LVL=0
      010017EFH   LINE      ---      ---       #215
      010017F4H   LINE      ---      ---       #216
      010017F4H   BLOCK     CODE     NEAR LAB  LVL=1
      010017F4H   LINE      ---      ---       #220
      010017FBH   LINE      ---      ---       #221
      01001809H   LINE      ---      ---       #222
      01001809H   LINE      ---      ---       #223
      01001815H   LINE      ---      ---       #224
      0100181BH   LINE      ---      ---       #226
      0100181DH   LINE      ---      ---       #228
      0100181DH   LINE      ---      ---       #229
      01001832H   LINE      ---      ---       #230
      01001837H   LINE      ---      ---       #231
      01001837H   LINE      ---      ---       #234
      0100183EH   LINE      ---      ---       #235
      0100183EH   LINE      ---      ---       #236
      01001846H   LINE      ---      ---       #237
      01001846H   LINE      ---      ---       #238
      0100184EH   LINE      ---      ---       #239
      02004C80H   SYMBOL    XDATA    VOID      B_Weight_Pos
      02004E48H   SYMBOL    XDATA    VOID      ad_temp
      00000006H   SYMBOL    DATA     VOID      R_AD_Zero
      ---         BLOCKEND  CODE     ---       LVL=1
      ---         BLOCKEND  CODE     ---       LVL=0

      0100313DH   BLOCK     CODE     ---       LVL=0
      0100313DH   LINE      ---      ---       #244
      0100314AH   LINE      ---      ---       #245
      0100314AH   BLOCK     CODE     NEAR LAB  LVL=1
      0100314AH   LINE      ---      ---       #258
      0100314DH   LINE      ---      ---       #259
      0100314DH   LINE      ---      ---       #260
      01003156H   LINE      ---      ---       #261
      01003156H   LINE      ---      ---       #264
      0100316CH   LINE      ---      ---       #265
      01003183H   LINE      ---      ---       #267
      010031A1H   LINE      ---      ---       #269
      010031B0H   LINE      ---      ---       #271
      010031D1H   LINE      ---      ---       #272
      010031D1H   LINE      ---      ---       #273
      010031D8H   LINE      ---      ---       #274
      010031DEH   LINE      ---      ---       #275
      010031E2H   LINE      ---      ---       #276
      010031E6H   LINE      ---      ---       #277
      010031EAH   LINE      ---      ---       #278
      010031EEH   LINE      ---      ---       #279
      010031F2H   LINE      ---      ---       #280
      010031F6H   LINE      ---      ---       #281
      010031FAH   LINE      ---      ---       #282
      010031FCH   LINE      ---      ---       #284
      010031FCH   LINE      ---      ---       #285
      0100320BH   LINE      ---      ---       #286
      01003217H   LINE      ---      ---       #288
      01003227H   LINE      ---      ---       #289
      01003236H   LINE      ---      ---       #290
      0100323FH   LINE      ---      ---       #291
      0100324EH   LINE      ---      ---       #292
      0100325DH   LINE      ---      ---       #293
      0100326CH   LINE      ---      ---       #294
      0100327CH   LINE      ---      ---       #295
      0100328BH   LINE      ---      ---       #296
      01003294H   LINE      ---      ---       #297
      010032A3H   LINE      ---      ---       #298
      010032B2H   LINE      ---      ---       #299
      010032C1H   LINE      ---      ---       #300
      010032D1H   LINE      ---      ---       #301
      010032E0H   LINE      ---      ---       #302
      010032E9H   LINE      ---      ---       #303
      010032F8H   LINE      ---      ---       #304
      01003307H   LINE      ---      ---       #305
      01003307H   LINE      ---      ---       #306
      01003316H   LINE      ---      ---       #307
      01003325H   LINE      ---      ---       #308
      01003334H   LINE      ---      ---       #309
      01003343H   LINE      ---      ---       #310
      01003352H   LINE      ---      ---       #311
      01003361H   LINE      ---      ---       #312
      01003370H   LINE      ---      ---       #313
      0100337FH   LINE      ---      ---       #314
      0100337FH   LINE      ---      ---       #316
      01003390H   LINE      ---      ---       #317
      010033BBH   LINE      ---      ---       #318
      010033E6H   LINE      ---      ---       #319
      01003411H   LINE      ---      ---       #320
      0100343CH   LINE      ---      ---       #321
      01003467H   LINE      ---      ---       #322
      01003492H   LINE      ---      ---       #323
      010034BDH   LINE      ---      ---       #325
      010034DCH   LINE      ---      ---       #326
      010034E4H   LINE      ---      ---       #327
      010034E4H   LINE      ---      ---       #328
      010034ECH   LINE      ---      ---       #329
      02004E07H   SYMBOL    XDATA    VOID      ad_temp
      02004C81H   SYMBOL    XDATA    VOID      R_AD_FilTimes
      02004C83H   SYMBOL    XDATA    VOID      R_AD_BUF_OLD
      02004C85H   SYMBOL    XDATA    VOID      R_AD_F1
      02004C87H   SYMBOL    XDATA    VOID      R_AD_F2
      02004C89H   SYMBOL    XDATA    VOID      R_AD_F3
      02004C8BH   SYMBOL    XDATA    VOID      R_AD_F4
      02004C8DH   SYMBOL    XDATA    VOID      R_AD_F5
      02004C8FH   SYMBOL    XDATA    VOID      R_AD_F6
      02004C91H   SYMBOL    XDATA    VOID      R_AD_F7
      02004C93H   SYMBOL    XDATA    VOID      R_AD_F8
      ---         BLOCKEND  CODE     ---       LVL=1
      ---         BLOCKEND  CODE     ---       LVL=0

      01002FECH   BLOCK     CODE     ---       LVL=0
      01002FECH   LINE      ---      ---       #334
      01002FF4H   LINE      ---      ---       #335
      01002FF4H   BLOCK     CODE     NEAR LAB  LVL=1
      01002FF4H   LINE      ---      ---       #340
      01003001H   LINE      ---      ---       #341
      0100300EH   LINE      ---      ---       #342
      0100301BH   LINE      ---      ---       #344
      01003031H   LINE      ---      ---       #345
      01003031H   LINE      ---      ---       #346
      0100303CH   LINE      ---      ---       #347
      01003064H   LINE      ---      ---       #349
      01003064H   LINE      ---      ---       #350
      01003080H   LINE      ---      ---       #352
      0100308DH   LINE      ---      ---       #353
      0100308DH   LINE      ---      ---       #354
      010030A2H   LINE      ---      ---       #355
      010030D0H   LINE      ---      ---       #357
      010030D0H   LINE      ---      ---       #359
      010030FAH   LINE      ---      ---       #360
      0100310FH   LINE      ---      ---       #361
      0100313CH   LINE      ---      ---       #364
      02004DA2H   SYMBOL    XDATA    VOID      ad_temp
      02004DA6H   SYMBOL    XDATA    VOID      ad_cal
      02004DA8H   SYMBOL    XDATA    VOID      CaliDot1
      02004DAAH   SYMBOL    XDATA    VOID      CaliDot2
      02004DACH   SYMBOL    XDATA    VOID      CaliDot3
      ---         BLOCKEND  CODE     ---       LVL=1
      ---         BLOCKEND  CODE     ---       LVL=0

      010034EDH   BLOCK     CODE     ---       LVL=0
      010034EDH   LINE      ---      ---       #367
      010034EDH   LINE      ---      ---       #368
      010034EDH   LINE      ---      ---       #369
      010034FEH   LINE      ---      ---       #370
      010034FEH   LINE      ---      ---       #371
      010034FEH   LINE      ---      ---       #372
      01003504H   LINE      ---      ---       #373
      01003505H   LINE      ---      ---       #374
      01003505H   LINE      ---      ---       #375
      0100350BH   LINE      ---      ---       #376
      0100350CH   LINE      ---      ---       #377
      0100350CH   LINE      ---      ---       #378
      01003512H   LINE      ---      ---       #379
      01003513H   LINE      ---      ---       #380
      01003513H   LINE      ---      ---       #381
      01003518H   LINE      ---      ---       #382
      01003519H   LINE      ---      ---       #383
      01003519H   LINE      ---      ---       #384
      0100351EH   LINE      ---      ---       #385
      0100351EH   LINE      ---      ---       #386
      0100351EH   LINE      ---      ---       #387
      ---         BLOCKEND  ---      ---       LVL=0

      010012FBH   BLOCK     CODE     ---       LVL=0
      010012FBH   LINE      ---      ---       #391
      01001300H   LINE      ---      ---       #392
      01001300H   BLOCK     CODE     NEAR LAB  LVL=1
      01001300H   LINE      ---      ---       #409
      01001303H   LINE      ---      ---       #410
      01001303H   LINE      ---      ---       #411
      01001308H   LINE      ---      ---       #412
      0100130BH   LINE      ---      ---       #413
      0100130BH   LINE      ---      ---       #414
      01001313H   LINE      ---      ---       #415
      01001313H   LINE      ---      ---       #416
      0100131BH   LINE      ---      ---       #417
      0100131FH   LINE      ---      ---       #418
      0100131FH   LINE      ---      ---       #419
      01001323H   LINE      ---      ---       #420
      01001323H   LINE      ---      ---       #421
      0100132DH   LINE      ---      ---       #422
      01001331H   LINE      ---      ---       #423
      01001331H   LINE      ---      ---       #424
      01001339H   LINE      ---      ---       #425
      01001339H   LINE      ---      ---       #426
      0100133EH   LINE      ---      ---       #427
      01001341H   LINE      ---      ---       #428
      01001341H   LINE      ---      ---       #430
      01001346H   LINE      ---      ---       #431
      01001346H   LINE      ---      ---       #434
      0100134FH   LINE      ---      ---       #435
      0100134FH   LINE      ---      ---       #436
      01001352H   LINE      ---      ---       #438
      01001364H   LINE      ---      ---       #439
      01001373H   LINE      ---      ---       #440
      01001378H   LINE      ---      ---       #442
      01001381H   LINE      ---      ---       #443
      01001381H   LINE      ---      ---       #444
      01001391H   LINE      ---      ---       #445
      01001399H   LINE      ---      ---       #446
      0100139FH   LINE      ---      ---       #447
      0100139FH   LINE      ---      ---       #448
      010013A1H   LINE      ---      ---       #450
      010013A1H   LINE      ---      ---       #451
      010013ABH   LINE      ---      ---       #452
      010013B5H   LINE      ---      ---       #453
      010013BBH   LINE      ---      ---       #454
      010013BBH   LINE      ---      ---       #456
      010013BBH   LINE      ---      ---       #458
      010013C5H   LINE      ---      ---       #459
      010013C5H   LINE      ---      ---       #460
      010013C9H   LINE      ---      ---       #462
      010013D2H   LINE      ---      ---       #463
      010013DFH   LINE      ---      ---       #465
      010013F5H   LINE      ---      ---       #466
      010013FBH   LINE      ---      ---       #468
      0100140CH   LINE      ---      ---       #469
      0100140CH   LINE      ---      ---       #470
      01001418H   LINE      ---      ---       #471
      01001418H   LINE      ---      ---       #473
      0100141DH   LINE      ---      ---       #476
      01001425H   LINE      ---      ---       #477
      01001425H   LINE      ---      ---       #478
      0100143BH   LINE      ---      ---       #479
      0100143BH   LINE      ---      ---       #480
      01001448H   LINE      ---      ---       #481
      01001457H   LINE      ---      ---       #482
      01001466H   LINE      ---      ---       #483
      01001468H   LINE      ---      ---       #485
      01001477H   LINE      ---      ---       #486
      01001479H   LINE      ---      ---       #489
      01001479H   LINE      ---      ---       #490
      0100147FH   LINE      ---      ---       #491
      0100147FH   LINE      ---      ---       #492
      01001495H   LINE      ---      ---       #493
      010014A3H   LINE      ---      ---       #495
      010014BEH   LINE      ---      ---       #500
      010014CDH   LINE      ---      ---       #501
      010014DCH   LINE      ---      ---       #502
      010014DCH   LINE      ---      ---       #504
      010014E2H   LINE      ---      ---       #505
      010014E8H   LINE      ---      ---       #506
      010014EDH   LINE      ---      ---       #507
      010014EDH   LINE      ---      ---       #508
      010014F3H   LINE      ---      ---       #511
      010014F3H   LINE      ---      ---       #512
      010014F3H   LINE      ---      ---       #514
      010014F3H   LINE      ---      ---       #515
      010014F3H   LINE      ---      ---       #516
      010014F7H   LINE      ---      ---       #517
      010014F7H   LINE      ---      ---       #519
      010014FEH   LINE      ---      ---       #520
      01001507H   LINE      ---      ---       #521
      0100150BH   LINE      ---      ---       #522
      01001513H   LINE      ---      ---       #523
      0100151BH   LINE      ---      ---       #524
      01001524H   LINE      ---      ---       #525
      01001528H   LINE      ---      ---       #526
      01001530H   LINE      ---      ---       #527
      01001537H   LINE      ---      ---       #528
      0100153FH   LINE      ---      ---       #530
      01001542H   LINE      ---      ---       #531
      02004C95H   SYMBOL    XDATA    VOID      R_Weight_GetZeroTimeOut
      02004C96H   SYMBOL    XDATA    VOID      R_AD_PowerOnZero
      02004C98H   SYMBOL    XDATA    VOID      R_AD_Zero
      02004C9AH   SYMBOL    XDATA    VOID      B_Weight_Zero
      02004C9BH   SYMBOL    XDATA    VOID      B_Weight_ZeroOk
      02004C9CH   SYMBOL    XDATA    VOID      B_LockDownCheck
      02004C9DH   SYMBOL    XDATA    VOID      B_WeightZeroErr
      00000006H   SYMBOL    DATA     VOID      R_AdFilTimes
      02004DEEH   SYMBOL    XDATA    VOID      R_AD_BUF
      02004DF0H   SYMBOL    XDATA    VOID      weight_temp
      02004DF2H   SYMBOL    XDATA    VOID      R_Open_Weight
      02004DF4H   SYMBOL    XDATA    VOID      B_Weight_Pos
      ---         BLOCKEND  CODE     ---       LVL=1
      ---         BLOCKEND  CODE     ---       LVL=0

      01002F6CH   BLOCK     CODE     ---       LVL=0
      01002F6CH   LINE      ---      ---       #542
      01002F6CH   LINE      ---      ---       #543
      01002F6CH   BLOCK     CODE     NEAR LAB  LVL=1
      01002F6CH   LINE      ---      ---       #546
      01002F70H   LINE      ---      ---       #547
      01002F70H   LINE      ---      ---       #548
      01002F76H   LINE      ---      ---       #549
      01002F79H   LINE      ---      ---       #550
      01002F79H   LINE      ---      ---       #552
      01002F7DH   LINE      ---      ---       #553
      01002F7DH   LINE      ---      ---       #554
      01002F83H   LINE      ---      ---       #555
      01002F83H   LINE      ---      ---       #556
      01002F87H   LINE      ---      ---       #557
      01002F87H   LINE      ---      ---       #558
      01002F8CH   LINE      ---      ---       #559
      01002F8EH   LINE      ---      ---       #560
      01002F8EH   LINE      ---      ---       #562
      01002F9CH   LINE      ---      ---       #563
      01002F9CH   LINE      ---      ---       #564
      01002FA3H   LINE      ---      ---       #566
      01002FA6H   LINE      ---      ---       #567
      01002FB5H   LINE      ---      ---       #568
      01002FB7H   LINE      ---      ---       #570
      01002FB7H   LINE      ---      ---       #571
      01002FBFH   LINE      ---      ---       #572
      01002FD0H   LINE      ---      ---       #574
      01002FD7H   LINE      ---      ---       #575
      01002FD7H   LINE      ---      ---       #577
      01002FD9H   LINE      ---      ---       #578
      02004C9EH   SYMBOL    XDATA    VOID      B_Weight_Downing_Lock
      ---         BLOCKEND  CODE     ---       LVL=1
      ---         BLOCKEND  CODE     ---       LVL=0

      01002FDAH   BLOCK     CODE     ---       LVL=0
      01002FDAH   LINE      ---      ---       #621
      01002FDAH   LINE      ---      ---       #622
      01002FDAH   BLOCK     CODE     NEAR LAB  LVL=1
      01002FDAH   LINE      ---      ---       #625
      01002FDAH   LINE      ---      ---       #626
      01002FDAH   LINE      ---      ---       #627
      01002FDAH   LINE      ---      ---       #628
      01002FDAH   LINE      ---      ---       #629
      01002FDAH   LINE      ---      ---       #631
      01002FDFH   LINE      ---      ---       #633
      01002FE3H   LINE      ---      ---       #634
      01002FE9H   LINE      ---      ---       #636
      01002FEBH   LINE      ---      ---       #637
      02004C9FH   SYMBOL    XDATA    VOID      B_Weight_LowBat
      ---         BLOCKEND  CODE     ---       LVL=1
      ---         BLOCKEND  CODE     ---       LVL=0

      01002F21H   BLOCK     CODE     ---       LVL=0
      01002F21H   LINE      ---      ---       #640
      01002F21H   LINE      ---      ---       #641
      01002F21H   BLOCK     CODE     NEAR LAB  LVL=1
      01002F21H   LINE      ---      ---       #645
      01002F25H   LINE      ---      ---       #646
      01002F25H   LINE      ---      ---       #647
      01002F2AH   LINE      ---      ---       #648
      01002F2CH   LINE      ---      ---       #649
      01002F2EH   LINE      ---      ---       #650
      01002F2EH   LINE      ---      ---       #652
      01002F3DH   LINE      ---      ---       #653
      01002F43H   LINE      ---      ---       #654
      01002F4CH   LINE      ---      ---       #655
      01002F4CH   LINE      ---      ---       #656
      01002F4FH   LINE      ---      ---       #657
      01002F52H   LINE      ---      ---       #658
      01002F58H   LINE      ---      ---       #659
      01002F5AH   LINE      ---      ---       #661
      01002F5FH   LINE      ---      ---       #663
      01002F63H   LINE      ---      ---       #664
      01002F69H   LINE      ---      ---       #666
      01002F6BH   LINE      ---      ---       #667
      02004CA0H   SYMBOL    XDATA    VOID      R_Weight_OverLoadTimes
      02004CA1H   SYMBOL    XDATA    VOID      B_Weight_OverLoad
      ---         BLOCKEND  CODE     ---       LVL=1
      ---         BLOCKEND  CODE     ---       LVL=0

      01002B8FH   BLOCK     CODE     ---       LVL=0
      01002B8FH   LINE      ---      ---       #672
      01002B8FH   LINE      ---      ---       #673
      01002B8FH   BLOCK     CODE     NEAR LAB  LVL=1
      01002B8FH   LINE      ---      ---       #682
      01002B93H   LINE      ---      ---       #683
      01002B93H   LINE      ---      ---       #684
      01002B98H   LINE      ---      ---       #685
      01002B9AH   LINE      ---      ---       #686
      01002B9CH   LINE      ---      ---       #687
      01002B9EH   LINE      ---      ---       #688
      01002B9EH   LINE      ---      ---       #690
      01002BA2H   LINE      ---      ---       #691
      01002BA8H   LINE      ---      ---       #693
      01002BACH   LINE      ---      ---       #694
      01002BB2H   LINE      ---      ---       #696
      01002BBBH   LINE      ---      ---       #697
      01002BBBH   LINE      ---      ---       #699
      01002BD1H   LINE      ---      ---       #700
      01002BDFH   LINE      ---      ---       #702
      01002BFAH   LINE      ---      ---       #704
      01002C09H   LINE      ---      ---       #705
      01002C09H   LINE      ---      ---       #706
      01002C12H   LINE      ---      ---       #707
      01002C15H   LINE      ---      ---       #708
      01002C17H   LINE      ---      ---       #710
      01002C1CH   LINE      ---      ---       #713
      01002C2CH   LINE      ---      ---       #715
      01002C31H   LINE      ---      ---       #716
      01002C33H   LINE      ---      ---       #718
      01002C3CH   LINE      ---      ---       #719
      01002C3CH   LINE      ---      ---       #720
      01002C46H   LINE      ---      ---       #721
      01002C4AH   LINE      ---      ---       #722
      01002C4CH   LINE      ---      ---       #724
      01002C4CH   LINE      ---      ---       #725
      01002C57H   LINE      ---      ---       #726
      01002C57H   LINE      ---      ---       #727
      01002C5DH   LINE      ---      ---       #729
      01002C73H   LINE      ---      ---       #730
      01002C81H   LINE      ---      ---       #732
      01002C9CH   LINE      ---      ---       #735
      01002CABH   LINE      ---      ---       #736
      01002CABH   LINE      ---      ---       #737
      01002CB9H   LINE      ---      ---       #738
      01002CC8H   LINE      ---      ---       #739
      01002CC8H   LINE      ---      ---       #741
      01002CD8H   LINE      ---      ---       #742
      01002CE0H   LINE      ---      ---       #744
      01002CE4H   LINE      ---      ---       #745
      01002CE9H   LINE      ---      ---       #746
      01002CEDH   LINE      ---      ---       #747
      01002CF2H   LINE      ---      ---       #748
      01002CF2H   LINE      ---      ---       #749
      01002CF2H   LINE      ---      ---       #750
      01002CF2H   LINE      ---      ---       #751
      01002CF4H   LINE      ---      ---       #752
      02004E36H   SYMBOL    XDATA    VOID      weight_temp
      02004E38H   SYMBOL    XDATA    VOID      R_Weight_Temp
      02004CA2H   SYMBOL    XDATA    VOID      R_Weight_kg_old
      02004CA4H   SYMBOL    XDATA    VOID      R_Weight_SameTimes
      02004CA5H   SYMBOL    XDATA    VOID      B_Weight_SmallSteady
      02004CA6H   SYMBOL    XDATA    VOID      B_Weight_HeavySteady
      ---         BLOCKEND  CODE     ---       LVL=1
      ---         BLOCKEND  CODE     ---       LVL=0

      01002CF5H   BLOCK     CODE     ---       LVL=0
      01002CF5H   LINE      ---      ---       #761
      01002CF5H   LINE      ---      ---       #762
      01002CF5H   BLOCK     CODE     NEAR LAB  LVL=1
      01002CF5H   LINE      ---      ---       #769
      01002CF8H   LINE      ---      ---       #770
      01002CF8H   LINE      ---      ---       #771
      01002CFDH   LINE      ---      ---       #773
      01002CFDH   LINE      ---      ---       #775
      01002D09H   LINE      ---      ---       #776
      01002D09H   LINE      ---      ---       #777
      01002D10H   LINE      ---      ---       #778
      01002D10H   LINE      ---      ---       #780
      01002D14H   LINE      ---      ---       #782
      01002D1CH   LINE      ---      ---       #783
      01002D21H   LINE      ---      ---       #784
      01002D22H   LINE      ---      ---       #786
      01002D22H   LINE      ---      ---       #795
      01002D28H   LINE      ---      ---       #796
      01002D28H   LINE      ---      ---       #798
      01002D2CH   LINE      ---      ---       #799
      01002D2CH   LINE      ---      ---       #800
      01002D2EH   LINE      ---      ---       #801
      01002D32H   LINE      ---      ---       #802
      01002D32H   LINE      ---      ---       #804
      01002D39H   LINE      ---      ---       #805
      01002D39H   LINE      ---      ---       #808
      01002D3DH   LINE      ---      ---       #810
      01002D45H   LINE      ---      ---       #811
      01002D4DH   LINE      ---      ---       #812
      01002D55H   LINE      ---      ---       #813
      01002D5DH   LINE      ---      ---       #814
      01002D72H   LINE      ---      ---       #815
      01002D7BH   LINE      ---      ---       #816
      01002D81H   LINE      ---      ---       #818
      01002D85H   LINE      ---      ---       #822
      01002D85H   LINE      ---      ---       #824
      01002D85H   LINE      ---      ---       #826
      01002D85H   LINE      ---      ---       #827
      01002D8AH   LINE      ---      ---       #828
      01002D93H   LINE      ---      ---       #829
      01002D95H   LINE      ---      ---       #830
      01002D98H   LINE      ---      ---       #831
      01002D98H   LINE      ---      ---       #832
      01002D98H   LINE      ---      ---       #833
      01002D98H   LINE      ---      ---       #851
      00000006H   SYMBOL    DATA     VOID      R_AD_BUF
      02004CA7H   SYMBOL    XDATA    VOID      B_Debug_Send
      02004CA8H   SYMBOL    XDATA    VOID      ReadUTC
      02004E12H   SYMBOL    XDATA    VOID      SendData
      ---         BLOCKEND  CODE     ---       LVL=1
      ---         BLOCKEND  CODE     ---       LVL=0

      0100351FH   BLOCK     CODE     ---       LVL=0
      0100351FH   LINE      ---      ---       #855
      0100351FH   LINE      ---      ---       #856
      0100351FH   BLOCK     CODE     NEAR LAB  LVL=1
      0100351FH   LINE      ---      ---       #859
      01003535H   LINE      ---      ---       #860
      01003535H   LINE      ---      ---       #861
      01003542H   LINE      ---      ---       #862
      0100354AH   LINE      ---      ---       #863
      0100354AH   LINE      ---      ---       #864
      01003550H   LINE      ---      ---       #865
      01003554H   LINE      ---      ---       #866
      01003554H   LINE      ---      ---       #867
      01003554H   LINE      ---      ---       #869
      01003554H   LINE      ---      ---       #870
      01003570H   LINE      ---      ---       #871
      01003578H   LINE      ---      ---       #872
      01003578H   LINE      ---      ---       #874
      0100357EH   LINE      ---      ---       #875
      01003582H   LINE      ---      ---       #876
      01003586H   LINE      ---      ---       #878
      01003586H   LINE      ---      ---       #879
      01003586H   LINE      ---      ---       #881
      02004E56H   SYMBOL    XDATA    VOID      weight_temp
      ---         BLOCKEND  CODE     ---       LVL=1
      ---         BLOCKEND  CODE     ---       LVL=0

      010036AAH   BLOCK     CODE     ---       LVL=0
      010036AAH   LINE      ---      ---       #887
      010036AAH   LINE      ---      ---       #888
      010036AAH   BLOCK     CODE     NEAR LAB  LVL=1
      010036AAH   LINE      ---      ---       #892
      010036AEH   LINE      ---      ---       #893
      010036AEH   LINE      ---      ---       #894
      010036B3H   LINE      ---      ---       #895
      010036B5H   LINE      ---      ---       #896
      010036B5H   LINE      ---      ---       #898
      010036B9H   LINE      ---      ---       #899
      010036B9H   LINE      ---      ---       #900
      010036C2H   LINE      ---      ---       #901
      010036C5H   LINE      ---      ---       #902
      010036C5H   LINE      ---      ---       #904
      010036CBH   LINE      ---      ---       #905
      010036CBH   LINE      ---      ---       #906
      010036D4H   LINE      ---      ---       #907
      010036D4H   LINE      ---      ---       #908
      010036D8H   LINE      ---      ---       #909
      010036DFH   LINE      ---      ---       #910
      010036DFH   LINE      ---      ---       #911
      010036DFH   LINE      ---      ---       #912
      02004CA9H   SYMBOL    XDATA    VOID      timecount
      02004CAAH   SYMBOL    XDATA    VOID      B_Timeout
      ---         BLOCKEND  CODE     ---       LVL=1
      ---         BLOCKEND  CODE     ---       LVL=0

      01000A08H   BLOCK     CODE     ---       LVL=0
      01000A08H   LINE      ---      ---       #928
      01000A0AH   LINE      ---      ---       #929
      01000A0AH   BLOCK     CODE     NEAR LAB  LVL=1
      01000A0AH   LINE      ---      ---       #941
      01000A0EH   LINE      ---      ---       #942
      01000A0EH   LINE      ---      ---       #943
      01000A13H   LINE      ---      ---       #944
      01000A16H   LINE      ---      ---       #945
      01000A16H   LINE      ---      ---       #946
      01000A1DH   LINE      ---      ---       #947
      01000A1DH   LINE      ---      ---       #976
      01000A2AH   LINE      ---      ---       #977
      01000A3CH   LINE      ---      ---       #978
      01000A49H   LINE      ---      ---       #979
      01000A5BH   LINE      ---      ---       #980
      01000A68H   LINE      ---      ---       #981
      01000A7AH   LINE      ---      ---       #985
      01000A93H   LINE      ---      ---       #986
      01000AACH   LINE      ---      ---       #987
      01000AC5H   LINE      ---      ---       #988
      01000AC5H   LINE      ---      ---       #989
      01000ACFH   LINE      ---      ---       #990
      01000AD7H   LINE      ---      ---       #991
      01000ADFH   LINE      ---      ---       #992
      01000ADFH   LINE      ---      ---       #995
      01000AF6H   LINE      ---      ---       #996
      01000AFAH   LINE      ---      ---       #997
      01000AFAH   LINE      ---      ---       #998
      01000AFEH   LINE      ---      ---       #999
      01000AFEH   LINE      ---      ---       #1000
      01000B15H   LINE      ---      ---       #1001
      01000B19H   LINE      ---      ---       #1002
      01000B19H   LINE      ---      ---       #1004
      01000B1DH   LINE      ---      ---       #1005
      01000B26H   LINE      ---      ---       #1006
      01000B2AH   LINE      ---      ---       #1007
      01000B33H   LINE      ---      ---       #1008
      01000B37H   LINE      ---      ---       #1009
      01000B40H   LINE      ---      ---       #1010
      01000B44H   LINE      ---      ---       #1011
      01000B4DH   LINE      ---      ---       #1013
      01000B5FH   LINE      ---      ---       #1014
      01000B6EH   LINE      ---      ---       #1015
      01000B7BH   LINE      ---      ---       #1021
      01000B81H   LINE      ---      ---       #1022
      01000B81H   LINE      ---      ---       #1024
      01000B91H   LINE      ---      ---       #1025
      01000BA0H   LINE      ---      ---       #1026
      01000BA0H   LINE      ---      ---       #1027
      01000BA5H   LINE      ---      ---       #1028
      01000BB2H   LINE      ---      ---       #1029
      01000BB6H   LINE      ---      ---       #1030
      01000BBCH   LINE      ---      ---       #1031
      01000BBCH   LINE      ---      ---       #1032
      01000BC9H   LINE      ---      ---       #1033
      01000BC9H   LINE      ---      ---       #1035
      01000BD0H   LINE      ---      ---       #1036
      01000BD0H   LINE      ---      ---       #1037
      01000BDAH   LINE      ---      ---       #1038
      01000BE0H   LINE      ---      ---       #1039
      01000BE8H   LINE      ---      ---       #1040
      01000BE8H   LINE      ---      ---       #1042
      01000BF2H   LINE      ---      ---       #1043
      01000BF2H   LINE      ---      ---       #1044
      01000C00H   LINE      ---      ---       #1045
      01000C14H   LINE      ---      ---       #1047
      01000C36H   LINE      ---      ---       #1048
      01000C36H   LINE      ---      ---       #1049
      01000C45H   LINE      ---      ---       #1050
      01000C45H   LINE      ---      ---       #1051
      01000C52H   LINE      ---      ---       #1052
      01000C5FH   LINE      ---      ---       #1053
      01000C5FH   LINE      ---      ---       #1054
      01000C66H   LINE      ---      ---       #1055
      01000C68H   LINE      ---      ---       #1057
      01000C68H   LINE      ---      ---       #1058
      01000C85H   LINE      ---      ---       #1059
      01000C85H   LINE      ---      ---       #1060
      01000C89H   LINE      ---      ---       #1061
      01000C96H   LINE      ---      ---       #1062
      01000C9CH   LINE      ---      ---       #1063
      01000C9CH   LINE      ---      ---       #1064
      01000C9CH   LINE      ---      ---       #1065
      01000CA9H   LINE      ---      ---       #1067
      01000CA9H   LINE      ---      ---       #1069
      01000CB0H   LINE      ---      ---       #1070
      01000CB0H   LINE      ---      ---       #1071
      01000CBAH   LINE      ---      ---       #1072
      01000CC0H   LINE      ---      ---       #1073
      01000CC8H   LINE      ---      ---       #1074
      01000CC8H   LINE      ---      ---       #1076
      01000CD2H   LINE      ---      ---       #1077
      01000CD2H   LINE      ---      ---       #1078
      01000CE0H   LINE      ---      ---       #1079
      01000CF4H   LINE      ---      ---       #1081
      01000D17H   LINE      ---      ---       #1082
      01000D17H   LINE      ---      ---       #1083
      01000D1EH   LINE      ---      ---       #1084
      01000D20H   LINE      ---      ---       #1086
      01000D20H   LINE      ---      ---       #1087
      01000D34H   LINE      ---      ---       #1089
      01000D4AH   LINE      ---      ---       #1090
      01000D4AH   LINE      ---      ---       #1091
      01000D57H   LINE      ---      ---       #1092
      01000D5BH   LINE      ---      ---       #1093
      01000D61H   LINE      ---      ---       #1094
      01000D61H   LINE      ---      ---       #1095
      01000D61H   LINE      ---      ---       #1096
      01000D6EH   LINE      ---      ---       #1097
      01000D6EH   LINE      ---      ---       #1099
      01000D75H   LINE      ---      ---       #1100
      01000D75H   LINE      ---      ---       #1101
      01000D7FH   LINE      ---      ---       #1102
      01000D85H   LINE      ---      ---       #1103
      01000D8DH   LINE      ---      ---       #1104
      01000D8DH   LINE      ---      ---       #1106
      01000D97H   LINE      ---      ---       #1107
      01000D97H   LINE      ---      ---       #1108
      01000DA5H   LINE      ---      ---       #1109
      01000DB9H   LINE      ---      ---       #1111
      01000DDCH   LINE      ---      ---       #1112
      01000DDCH   LINE      ---      ---       #1113
      01000DE3H   LINE      ---      ---       #1114
      01000DE5H   LINE      ---      ---       #1116
      01000DE5H   LINE      ---      ---       #1117
      01000DF6H   LINE      ---      ---       #1119
      01000E04H   LINE      ---      ---       #1120
      01000E04H   LINE      ---      ---       #1121
      01000E09H   LINE      ---      ---       #1123
      01000E0BH   LINE      ---      ---       #1125
      01000E0BH   LINE      ---      ---       #1126
      01000E1FH   LINE      ---      ---       #1128
      01000E35H   LINE      ---      ---       #1129
      01000E35H   LINE      ---      ---       #1130
      01000E39H   LINE      ---      ---       #1131
      01000E3FH   LINE      ---      ---       #1132
      01000E3FH   LINE      ---      ---       #1133
      01000E3FH   LINE      ---      ---       #1134
      01000E3FH   LINE      ---      ---       #1135
      01000E4CH   LINE      ---      ---       #1136
      01000E4CH   LINE      ---      ---       #1138
      01000E53H   LINE      ---      ---       #1139
      01000E53H   LINE      ---      ---       #1140
      01000E5DH   LINE      ---      ---       #1141
      01000E63H   LINE      ---      ---       #1142
      01000E6BH   LINE      ---      ---       #1143
      01000E6BH   LINE      ---      ---       #1145
      01000E73H   LINE      ---      ---       #1146
      01000E73H   LINE      ---      ---       #1148
      01000E81H   LINE      ---      ---       #1149
      01000E8EH   LINE      ---      ---       #1150
      01000E94H   LINE      ---      ---       #1151
      01000EADH   LINE      ---      ---       #1159
      01000EB2H   LINE      ---      ---       #1160
      01000EBCH   LINE      ---      ---       #1161
      01000EC9H   LINE      ---      ---       #1162
      01000ECCH   LINE      ---      ---       #1163
      01000ED9H   LINE      ---      ---       #1164
      01000EDCH   LINE      ---      ---       #1165
      01000EE1H   LINE      ---      ---       #1169
      01000EE1H   LINE      ---      ---       #1170
      01000EE4H   LINE      ---      ---       #1172
      02004CABH   SYMBOL    XDATA    VOID      R_AD_CaliDot1
      02004CADH   SYMBOL    XDATA    VOID      R_AD_CaliDot2
      02004CAFH   SYMBOL    XDATA    VOID      R_AD_CaliDot3
      02004CB1H   SYMBOL    XDATA    VOID      R_CaliState
      02004CB2H   SYMBOL    XDATA    VOID      R_OpenWeight_Ad
      02004DF5H   SYMBOL    XDATA    VOID      R_AdFilTimes
      02004DF7H   SYMBOL    XDATA    VOID      weight_temp
      02004DF9H   SYMBOL    XDATA    VOID      R_AD_BUF
      02004DFBH   SYMBOL    XDATA    VOID      R_AD_PowerOnZero
      ---         BLOCKEND  CODE     ---       LVL=1
      ---         BLOCKEND  CODE     ---       LVL=0

      01002E8DH   BLOCK     CODE     ---       LVL=0
      01002E8DH   LINE      ---      ---       #1184
      01002E8DH   LINE      ---      ---       #1185
      01002E8DH   BLOCK     CODE     NEAR LAB  LVL=1
      01002E8DH   LINE      ---      ---       #1189
      01002E91H   LINE      ---      ---       #1190
      01002E91H   LINE      ---      ---       #1191
      01002E96H   LINE      ---      ---       #1192
      01002E9BH   LINE      ---      ---       #1194
      01002E9BH   LINE      ---      ---       #1196
      01002E9FH   LINE      ---      ---       #1197
      01002E9FH   LINE      ---      ---       #1198
      01002EA5H   LINE      ---      ---       #1199
      01002EABH   LINE      ---      ---       #1201
      01002EABH   LINE      ---      ---       #1203
      01002EB5H   LINE      ---      ---       #1204
      01002EB5H   LINE      ---      ---       #1205
      01002EB5H   LINE      ---      ---       #1206
      01002EBBH   LINE      ---      ---       #1207
      01002EBBH   LINE      ---      ---       #1208
      01002EBDH   LINE      ---      ---       #1210
      01002EC1H   LINE      ---      ---       #1212
      01002EC1H   LINE      ---      ---       #1213
      01002EC8H   LINE      ---      ---       #1214
      01002EC8H   LINE      ---      ---       #1215
      01002ECCH   LINE      ---      ---       #1216
      01002ECFH   LINE      ---      ---       #1218
      01002ED3H   LINE      ---      ---       #1219
      01002ED7H   LINE      ---      ---       #1220
      01002EE0H   LINE      ---      ---       #1228
      01002EE6H   LINE      ---      ---       #1230
      01002EE6H   LINE      ---      ---       #1231
      01002EE7H   LINE      ---      ---       #1232
      01002EE7H   LINE      ---      ---       #1233
      01002EEDH   LINE      ---      ---       #1234
      01002EEDH   LINE      ---      ---       #1235
      01002EEFH   LINE      ---      ---       #1236
      01002EF3H   LINE      ---      ---       #1237
      01002EF3H   LINE      ---      ---       #1238
      01002EF8H   LINE      ---      ---       #1239
      01002EF8H   LINE      ---      ---       #1240
      01002EFDH   LINE      ---      ---       #1241
      01002EFFH   LINE      ---      ---       #1242
      01002F05H   LINE      ---      ---       #1252
      01002F08H   LINE      ---      ---       #1253
      01002F0DH   LINE      ---      ---       #1254
      01002F12H   LINE      ---      ---       #1256
      01002F17H   LINE      ---      ---       #1258
      01002F1BH   LINE      ---      ---       #1260
      01002F1BH   LINE      ---      ---       #1261
      01002F1BH   LINE      ---      ---       #1262
      01002F1BH   LINE      ---      ---       #1263
      01002F20H   LINE      ---      ---       #1264
      01002F20H   LINE      ---      ---       #1265
      01002F20H   LINE      ---      ---       #1269
      02004CB4H   SYMBOL    XDATA    VOID      comm_doing
      02004CB5H   SYMBOL    XDATA    VOID      StandbyState
      ---         BLOCKEND  CODE     ---       LVL=1
      ---         BLOCKEND  CODE     ---       LVL=0

      01002DA4H   BLOCK     CODE     ---       LVL=0
      01002DA4H   LINE      ---      ---       #1283
      01002DA4H   LINE      ---      ---       #1284
      01002DA4H   BLOCK     CODE     NEAR LAB  LVL=1
      01002DA4H   LINE      ---      ---       #1289
      01002DA7H   LINE      ---      ---       #1290
      01002DA7H   LINE      ---      ---       #1291
      01002DACH   LINE      ---      ---       #1292
      01002DB1H   LINE      ---      ---       #1294
      01002DB1H   LINE      ---      ---       #1297
      01002DB7H   LINE      ---      ---       #1298
      01002DB7H   LINE      ---      ---       #1299
      01002DBDH   LINE      ---      ---       #1300
      01002DBDH   LINE      ---      ---       #1301
      01002DBFH   LINE      ---      ---       #1302
      01002DC3H   LINE      ---      ---       #1303
      01002DC5H   LINE      ---      ---       #1305
      01002DC5H   LINE      ---      ---       #1306
      01002DCAH   LINE      ---      ---       #1307
      01002DCDH   LINE      ---      ---       #1308
      01002DCDH   LINE      ---      ---       #1309
      01002DCDH   LINE      ---      ---       #1311
      01002DD4H   LINE      ---      ---       #1312
      01002DD4H   LINE      ---      ---       #1313
      01002DDAH   LINE      ---      ---       #1314
      01002DDAH   LINE      ---      ---       #1315
      01002DDCH   LINE      ---      ---       #1316
      01002DE0H   LINE      ---      ---       #1318
      01002DE0H   LINE      ---      ---       #1319
      01002DE5H   LINE      ---      ---       #1320
      01002DE5H   LINE      ---      ---       #1321
      01002DEAH   LINE      ---      ---       #1322
      01002DEEH   LINE      ---      ---       #1323
      01002DEEH   LINE      ---      ---       #1324
      01002DEEH   LINE      ---      ---       #1326
      01002DF5H   LINE      ---      ---       #1327
      01002DF5H   LINE      ---      ---       #1328
      01002DF8H   LINE      ---      ---       #1329
      01002DF8H   LINE      ---      ---       #1331
      01002DFFH   LINE      ---      ---       #1332
      01002DFFH   LINE      ---      ---       #1333
      01002E05H   LINE      ---      ---       #1334
      01002E05H   LINE      ---      ---       #1335
      01002E07H   LINE      ---      ---       #1336
      01002E0BH   LINE      ---      ---       #1337
      01002E0BH   LINE      ---      ---       #1338
      01002E10H   LINE      ---      ---       #1339
      01002E10H   LINE      ---      ---       #1340
      01002E15H   LINE      ---      ---       #1341
      01002E19H   LINE      ---      ---       #1342
      01002E19H   LINE      ---      ---       #1343
      01002E19H   LINE      ---      ---       #1345
      01002E20H   LINE      ---      ---       #1346
      01002E20H   LINE      ---      ---       #1347
      01002E26H   LINE      ---      ---       #1348
      01002E26H   LINE      ---      ---       #1349
      01002E28H   LINE      ---      ---       #1350
      01002E2CH   LINE      ---      ---       #1351
      01002E2CH   LINE      ---      ---       #1352
      01002E31H   LINE      ---      ---       #1353
      01002E31H   LINE      ---      ---       #1354
      01002E36H   LINE      ---      ---       #1355
      01002E3AH   LINE      ---      ---       #1356
      01002E3AH   LINE      ---      ---       #1357
      01002E3AH   LINE      ---      ---       #1359
      01002E42H   LINE      ---      ---       #1360
      01002E42H   LINE      ---      ---       #1361
      01002E48H   LINE      ---      ---       #1362
      01002E48H   LINE      ---      ---       #1363
      01002E4AH   LINE      ---      ---       #1364
      01002E53H   LINE      ---      ---       #1365
      01002E57H   LINE      ---      ---       #1366
      01002E57H   LINE      ---      ---       #1367
      01002E5CH   LINE      ---      ---       #1368
      01002E5CH   LINE      ---      ---       #1369
      01002E61H   LINE      ---      ---       #1370
      01002E65H   LINE      ---      ---       #1371
      01002E6AH   LINE      ---      ---       #1372
      01002E6AH   LINE      ---      ---       #1373
      01002E6AH   LINE      ---      ---       #1375
      01002E71H   LINE      ---      ---       #1376
      01002E71H   LINE      ---      ---       #1377
      01002E7CH   LINE      ---      ---       #1378
      01002E7CH   LINE      ---      ---       #1379
      01002E82H   LINE      ---      ---       #1380
      01002E86H   LINE      ---      ---       #1381
      01002E86H   LINE      ---      ---       #1382
      01002E86H   LINE      ---      ---       #1384
      02004CB6H   SYMBOL    XDATA    VOID      comm_doing
      02004CB7H   SYMBOL    XDATA    VOID      PowerOnState
      ---         BLOCKEND  CODE     ---       LVL=1
      ---         BLOCKEND  CODE     ---       LVL=0

      01000EE5H   BLOCK     CODE     ---       LVL=0
      01000EE5H   LINE      ---      ---       #1389
      01000EE5H   LINE      ---      ---       #1390
      01000EE5H   BLOCK     CODE     NEAR LAB  LVL=1
      01000EE5H   LINE      ---      ---       #1394
      01000EE9H   LINE      ---      ---       #1395
      01000EE9H   LINE      ---      ---       #1396
      01000EEEH   LINE      ---      ---       #1397
      01000EF0H   LINE      ---      ---       #1398
      01000EF0H   LINE      ---      ---       #1400
      01000EF4H   LINE      ---      ---       #1401
      01000EFAH   LINE      ---      ---       #1403
      01000EFDH   LINE      ---      ---       #1404
      01000EFDH   LINE      ---      ---       #1405
      01000F06H   LINE      ---      ---       #1406
      01000F09H   LINE      ---      ---       #1407
      01000F09H   LINE      ---      ---       #1410
      01000F12H   LINE      ---      ---       #1411
      01000F16H   LINE      ---      ---       #1413
      01000F1AH   LINE      ---      ---       #1414
      01000F20H   LINE      ---      ---       #1416
      01000F22H   LINE      ---      ---       #1418
      02004CB8H   SYMBOL    XDATA    VOID      timecount
      02004CB9H   SYMBOL    XDATA    VOID      B_Timeout
      ---         BLOCKEND  CODE     ---       LVL=1
      ---         BLOCKEND  CODE     ---       LVL=0

      01003587H   BLOCK     CODE     ---       LVL=0
      01003587H   LINE      ---      ---       #1437
      01003587H   LINE      ---      ---       #1438
      01003587H   BLOCK     CODE     NEAR LAB  LVL=1
      01003587H   LINE      ---      ---       #1442
      0100358BH   LINE      ---      ---       #1443
      0100358BH   LINE      ---      ---       #1444
      01003592H   LINE      ---      ---       #1446
      01003592H   LINE      ---      ---       #1448
      01003595H   LINE      ---      ---       #1449
      01003595H   LINE      ---      ---       #1450
      01003598H   LINE      ---      ---       #1451
      0100359DH   LINE      ---      ---       #1452
      010035A1H   LINE      ---      ---       #1453
      010035A6H   LINE      ---      ---       #1454
      010035AAH   LINE      ---      ---       #1455
      010035AFH   LINE      ---      ---       #1456
      010035B3H   LINE      ---      ---       #1457
      010035B8H   LINE      ---      ---       #1458
      010035BCH   LINE      ---      ---       #1459
      010035C1H   LINE      ---      ---       #1460
      010035C8H   LINE      ---      ---       #1461
      010035C8H   LINE      ---      ---       #1462
      010035CCH   LINE      ---      ---       #1463
      010035CEH   LINE      ---      ---       #1464
      010035D0H   LINE      ---      ---       #1465
      010035D2H   LINE      ---      ---       #1466
      010035D4H   LINE      ---      ---       #1467
      010035D5H   LINE      ---      ---       #1469
      010035D5H   LINE      ---      ---       #1471
      010035DFH   LINE      ---      ---       #1472
      010035DFH   LINE      ---      ---       #1473
      010035E0H   LINE      ---      ---       #1476
      010035E8H   LINE      ---      ---       #1477
      010035E8H   LINE      ---      ---       #1478
      010035EEH   LINE      ---      ---       #1480
      010035F6H   LINE      ---      ---       #1481
      010035F6H   LINE      ---      ---       #1482
      010035FCH   LINE      ---      ---       #1483
      01003601H   LINE      ---      ---       #1484
      01003606H   LINE      ---      ---       #1485
      01003607H   LINE      ---      ---       #1487
      01003607H   LINE      ---      ---       #1490
      0100360FH   LINE      ---      ---       #1491
      0100360FH   LINE      ---      ---       #1492
      01003615H   LINE      ---      ---       #1494
      0100361DH   LINE      ---      ---       #1495
      0100361DH   LINE      ---      ---       #1496
      01003623H   LINE      ---      ---       #1497
      01003628H   LINE      ---      ---       #1498
      0100362DH   LINE      ---      ---       #1499
      0100362EH   LINE      ---      ---       #1502
      0100362EH   LINE      ---      ---       #1506
      01003636H   LINE      ---      ---       #1507
      01003636H   LINE      ---      ---       #1509
      01003643H   LINE      ---      ---       #1510
      01003643H   LINE      ---      ---       #1511
      01003647H   LINE      ---      ---       #1512
      0100364DH   LINE      ---      ---       #1513
      0100364FH   LINE      ---      ---       #1515
      0100364FH   LINE      ---      ---       #1516
      01003654H   LINE      ---      ---       #1517
      0100365AH   LINE      ---      ---       #1518
      0100365AH   LINE      ---      ---       #1520
      0100366CH   LINE      ---      ---       #1521
      0100366CH   LINE      ---      ---       #1526
      01003672H   LINE      ---      ---       #1527
      01003677H   LINE      ---      ---       #1528
      0100367CH   LINE      ---      ---       #1529
      01003680H   LINE      ---      ---       #1530
      01003681H   LINE      ---      ---       #1533
      01003681H   LINE      ---      ---       #1537
      01003688H   LINE      ---      ---       #1538
      01003688H   LINE      ---      ---       #1539
      0100368DH   LINE      ---      ---       #1540
      01003693H   LINE      ---      ---       #1542
      01003699H   LINE      ---      ---       #1543
      01003699H   LINE      ---      ---       #1545
      0100369FH   LINE      ---      ---       #1546
      010036A4H   LINE      ---      ---       #1547
      010036A9H   LINE      ---      ---       #1548
      010036A9H   LINE      ---      ---       #1550
      010036A9H   LINE      ---      ---       #1553
      010036A9H   LINE      ---      ---       #1555
      02004CBAH   SYMBOL    XDATA    VOID      R_TimeOut
      02004CBFH   SYMBOL    XDATA    VOID      B_TimeBase_1s
      ---         BLOCKEND  CODE     ---       LVL=1
      ---         BLOCKEND  CODE     ---       LVL=0

      ---         MODULE    ---      ---       CS_COMMTO1186
      02004D68H   PUBLIC    XDATA    BYTE      uartTimeoutCnt
      02004D58H   PUBLIC    XDATA    ---       uartTxBuf
      02004D55H   PUBLIC    XDATA    ---       R_Weight_Com_Coo
      02004D45H   PUBLIC    XDATA    ---       uartRcvBuf
      0100192CH   PUBLIC    CODE     ---       _CS_CommTo1186_SendCmd
      01001D2CH   PUBLIC    CODE     ---       _CS_CommTo1186_Xor
      01000701H   PUBLIC    CODE     ---       CS_1186Com_Reset_Proc
      010037B5H   PUBLIC    CODE     ---       CS_1186Com_ReadAdZero_Proc
      0100071BH   PUBLIC    CODE     ---       CS_1186Com_SetOpenWeight_Proc
      0100066DH   PUBLIC    CODE     ---       CS_1186Com_SetSleepMode_Proc
      010005E2H   PUBLIC    CODE     ---       CS_1186Com_ReadTime_Proc
      0100052DH   PUBLIC    CODE     ---       CS_1186Com_SetLcd_Proc
      010036E0H   PUBLIC    CODE     ---       CS_1186Com_ReadAdc_Proc
      0100187AH   PUBLIC    CODE     ---       CS_1186Com_ReadMacAdress_Proc
      010004E5H   PUBLIC    CODE     ---       CS_Scale_1186Com
      01002E87H   PUBLIC    CODE     ---       CS_If1186ComSucess
      01002D99H   PUBLIC    CODE     ---       _CS_Scale_1186ComSend

      01002D99H   BLOCK     CODE     ---       LVL=0
      01002D99H   LINE      ---      ---       #18
      01002D99H   LINE      ---      ---       #19
      01002D99H   LINE      ---      ---       #20
      01002D9EH   LINE      ---      ---       #21
      01002DA3H   LINE      ---      ---       #22
      ---         BLOCKEND  ---      ---       LVL=0

      01002E87H   BLOCK     CODE     ---       LVL=0
      01002E87H   LINE      ---      ---       #25
      01002E87H   LINE      ---      ---       #26
      01002E87H   LINE      ---      ---       #27
      01002E8CH   LINE      ---      ---       #28
      ---         BLOCKEND  ---      ---       LVL=0

      010004E5H   BLOCK     CODE     ---       LVL=0
      010004E5H   LINE      ---      ---       #31
      010004E5H   LINE      ---      ---       #32
      010004E5H   LINE      ---      ---       #34
      010004EEH   LINE      ---      ---       #35
      010004EEH   LINE      ---      ---       #37
      010004FFH   LINE      ---      ---       #38
      010004FFH   LINE      ---      ---       #39
      010004FFH   LINE      ---      ---       #40
      01000501H   LINE      ---      ---       #41
      01000504H   LINE      ---      ---       #42
      01000506H   LINE      ---      ---       #43
      01000508H   LINE      ---      ---       #44
      0100050AH   LINE      ---      ---       #45
      0100050AH   LINE      ---      ---       #46
      0100050AH   LINE      ---      ---       #47
      0100050CH   LINE      ---      ---       #48
      0100050FH   LINE      ---      ---       #49
      01000511H   LINE      ---      ---       #50
      01000511H   LINE      ---      ---       #51
      01000511H   LINE      ---      ---       #52
      01000511H   LINE      ---      ---       #53
      01000511H   LINE      ---      ---       #54
      01000513H   LINE      ---      ---       #55
      01000516H   LINE      ---      ---       #56
      01000518H   LINE      ---      ---       #69
      01000518H   LINE      ---      ---       #70
      01000518H   LINE      ---      ---       #71
      01000518H   LINE      ---      ---       #72
      01000518H   LINE      ---      ---       #73
      01000519H   LINE      ---      ---       #75
      01000519H   LINE      ---      ---       #76
      0100051BH   LINE      ---      ---       #77
      01000520H   LINE      ---      ---       #78
      01000526H   LINE      ---      ---       #79
      0100052CH   LINE      ---      ---       #80
      0100052CH   LINE      ---      ---       #82
      ---         BLOCKEND  ---      ---       LVL=0

      0100187AH   BLOCK     CODE     ---       LVL=0
      0100187AH   LINE      ---      ---       #86
      0100187AH   LINE      ---      ---       #87
      0100187AH   BLOCK     CODE     NEAR LAB  LVL=1
      0100187AH   LINE      ---      ---       #91
      0100187FH   LINE      ---      ---       #92
      01001887H   LINE      ---      ---       #94
      0100188EH   LINE      ---      ---       #95
      0100188EH   LINE      ---      ---       #96
      01001894H   LINE      ---      ---       #97
      01001898H   LINE      ---      ---       #98
      0100189CH   LINE      ---      ---       #99
      010018A6H   LINE      ---      ---       #100
      010018ACH   LINE      ---      ---       #101
      010018B2H   LINE      ---      ---       #102
      010018B7H   LINE      ---      ---       #103
      010018BAH   LINE      ---      ---       #104
      010018BAH   LINE      ---      ---       #105
      010018C2H   LINE      ---      ---       #106
      010018C2H   LINE      ---      ---       #107
      010018D4H   LINE      ---      ---       #108
      010018D4H   LINE      ---      ---       #109
      010018F2H   LINE      ---      ---       #112
      010018F2H   LINE      ---      ---       #117
      010018FAH   LINE      ---      ---       #118
      01001900H   LINE      ---      ---       #119
      01001908H   LINE      ---      ---       #120
      0100190EH   LINE      ---      ---       #121
      01001914H   LINE      ---      ---       #122
      0100191AH   LINE      ---      ---       #135
      0100191FH   LINE      ---      ---       #136
      01001924H   LINE      ---      ---       #137
      01001925H   LINE      ---      ---       #139
      0100192BH   LINE      ---      ---       #140
      0100192BH   LINE      ---      ---       #141
      0100192BH   LINE      ---      ---       #142
      02004E4AH   SYMBOL    XDATA    VOID      i
      02004E4BH   SYMBOL    XDATA    VOID      ptr
      ---         BLOCKEND  CODE     ---       LVL=1
      ---         BLOCKEND  CODE     ---       LVL=0

      010036E0H   BLOCK     CODE     ---       LVL=0
      010036E0H   LINE      ---      ---       #145
      010036E0H   LINE      ---      ---       #146
      010036E0H   BLOCK     CODE     NEAR LAB  LVL=1
      010036E0H   LINE      ---      ---       #149
      010036E7H   LINE      ---      ---       #150
      010036E7H   LINE      ---      ---       #151
      010036F2H   LINE      ---      ---       #152
      010036F8H   LINE      ---      ---       #153
      010036FEH   LINE      ---      ---       #154
      01003703H   LINE      ---      ---       #155
      01003706H   LINE      ---      ---       #156
      01003706H   LINE      ---      ---       #157
      01003710H   LINE      ---      ---       #158
      01003710H   LINE      ---      ---       #159
      01003724H   LINE      ---      ---       #160
      01003724H   LINE      ---      ---       #161
      0100372EH   LINE      ---      ---       #162
      0100372EH   LINE      ---      ---       #165
      01003736H   LINE      ---      ---       #167
      01003739H   LINE      ---      ---       #168
      01003739H   LINE      ---      ---       #169
      0100373FH   LINE      ---      ---       #170
      01003748H   LINE      ---      ---       #171
      01003768H   LINE      ---      ---       #172
      01003788H   LINE      ---      ---       #173
      01003795H   LINE      ---      ---       #174
      01003795H   LINE      ---      ---       #176
      0100379BH   LINE      ---      ---       #177
      010037A1H   LINE      ---      ---       #179
      010037A7H   LINE      ---      ---       #180
      010037ADH   LINE      ---      ---       #182
      010037AEH   LINE      ---      ---       #184
      010037B4H   LINE      ---      ---       #185
      010037B4H   LINE      ---      ---       #186
      010037B4H   LINE      ---      ---       #187
      00000004H   SYMBOL    DATA     VOID      data_rec
      ---         BLOCKEND  CODE     ---       LVL=1
      ---         BLOCKEND  CODE     ---       LVL=0

      0100052DH   BLOCK     CODE     ---       LVL=0
      0100052DH   LINE      ---      ---       #191
      0100052DH   LINE      ---      ---       #192
      0100052DH   LINE      ---      ---       #194
      01000534H   LINE      ---      ---       #195
      01000534H   LINE      ---      ---       #196
      0100053FH   LINE      ---      ---       #197
      01000545H   LINE      ---      ---       #198
      0100054BH   LINE      ---      ---       #199
      01000550H   LINE      ---      ---       #200
      01000552H   LINE      ---      ---       #201
      01000552H   LINE      ---      ---       #202
      0100055AH   LINE      ---      ---       #203
      0100055AH   LINE      ---      ---       #204
      0100056BH   LINE      ---      ---       #205
      0100056BH   LINE      ---      ---       #206
      01000572H   LINE      ---      ---       #207
      01000572H   LINE      ---      ---       #208
      01000578H   LINE      ---      ---       #209
      0100057EH   LINE      ---      ---       #211
      01000584H   LINE      ---      ---       #212
      0100058AH   LINE      ---      ---       #213
      0100058BH   LINE      ---      ---       #215
      01000591H   LINE      ---      ---       #216
      01000591H   LINE      ---      ---       #217
      01000591H   LINE      ---      ---       #218
      ---         BLOCKEND  ---      ---       LVL=0

      010005E2H   BLOCK     CODE     ---       LVL=0
      010005E2H   LINE      ---      ---       #222
      010005E2H   LINE      ---      ---       #223
      010005E2H   LINE      ---      ---       #225
      010005E9H   LINE      ---      ---       #226
      010005E9H   LINE      ---      ---       #227
      010005F4H   LINE      ---      ---       #228
      010005FAH   LINE      ---      ---       #229
      01000600H   LINE      ---      ---       #230
      01000605H   LINE      ---      ---       #231
      01000607H   LINE      ---      ---       #232
      01000607H   LINE      ---      ---       #233
      0100060FH   LINE      ---      ---       #234
      0100060FH   LINE      ---      ---       #235
      01000620H   LINE      ---      ---       #236
      01000620H   LINE      ---      ---       #237
      01000627H   LINE      ---      ---       #238
      01000627H   LINE      ---      ---       #240
      0100062DH   LINE      ---      ---       #241
      01000635H   LINE      ---      ---       #242
      0100063DH   LINE      ---      ---       #243
      01000645H   LINE      ---      ---       #266
      0100064AH   LINE      ---      ---       #267
      0100064FH   LINE      ---      ---       #268
      01000653H   LINE      ---      ---       #270
      01000654H   LINE      ---      ---       #272
      0100065AH   LINE      ---      ---       #273
      0100065AH   LINE      ---      ---       #274
      0100065AH   LINE      ---      ---       #275
      ---         BLOCKEND  ---      ---       LVL=0

      0100066DH   BLOCK     CODE     ---       LVL=0
      0100066DH   LINE      ---      ---       #279
      0100066DH   LINE      ---      ---       #280
      0100066DH   BLOCK     CODE     NEAR LAB  LVL=1
      0100066DH   LINE      ---      ---       #283
      01000679H   LINE      ---      ---       #285
      01000681H   LINE      ---      ---       #286
      01000681H   LINE      ---      ---       #288
      01000687H   LINE      ---      ---       #289
      01000695H   LINE      ---      ---       #290
      010006A5H   LINE      ---      ---       #291
      010006ACH   LINE      ---      ---       #292
      010006AFH   LINE      ---      ---       #293
      010006BAH   LINE      ---      ---       #295
      010006BCH   LINE      ---      ---       #297
      010006C2H   LINE      ---      ---       #298
      010006C8H   LINE      ---      ---       #299
      010006CDH   LINE      ---      ---       #300
      010006CFH   LINE      ---      ---       #301
      010006CFH   LINE      ---      ---       #302
      010006D6H   LINE      ---      ---       #303
      010006D6H   LINE      ---      ---       #304
      010006E8H   LINE      ---      ---       #305
      010006E8H   LINE      ---      ---       #306
      010006EFH   LINE      ---      ---       #307
      010006EFH   LINE      ---      ---       #308
      010006F4H   LINE      ---      ---       #309
      010006F9H   LINE      ---      ---       #310
      010006FAH   LINE      ---      ---       #312
      01000700H   LINE      ---      ---       #313
      01000700H   LINE      ---      ---       #314
      01000700H   LINE      ---      ---       #315
      00000004H   SYMBOL    DATA     VOID      R_AD_Zero
      ---         BLOCKEND  CODE     ---       LVL=1
      ---         BLOCKEND  CODE     ---       LVL=0

      0100071BH   BLOCK     CODE     ---       LVL=0
      0100071BH   LINE      ---      ---       #320
      0100071BH   LINE      ---      ---       #321
      0100071BH   BLOCK     CODE     NEAR LAB  LVL=1
      0100071BH   LINE      ---      ---       #323
      01000724H   LINE      ---      ---       #324
      0100072CH   LINE      ---      ---       #325
      0100072CH   LINE      ---      ---       #326
      01000732H   LINE      ---      ---       #327
      01000741H   LINE      ---      ---       #328
      01000752H   LINE      ---      ---       #329
      01000755H   LINE      ---      ---       #330
      01000758H   LINE      ---      ---       #331
      01000763H   LINE      ---      ---       #332
      01000769H   LINE      ---      ---       #333
      0100076FH   LINE      ---      ---       #334
      01000774H   LINE      ---      ---       #335
      01000776H   LINE      ---      ---       #336
      01000776H   LINE      ---      ---       #337
      0100077DH   LINE      ---      ---       #338
      0100077DH   LINE      ---      ---       #339
      0100078FH   LINE      ---      ---       #340
      0100078FH   LINE      ---      ---       #341
      01000796H   LINE      ---      ---       #342
      01000796H   LINE      ---      ---       #346
      0100079BH   LINE      ---      ---       #347
      010007A0H   LINE      ---      ---       #350
      010007A1H   LINE      ---      ---       #352
      010007A7H   LINE      ---      ---       #353
      010007A7H   LINE      ---      ---       #354
      010007A7H   LINE      ---      ---       #355
      00000004H   SYMBOL    DATA     VOID      R_Open_Weight
      ---         BLOCKEND  CODE     ---       LVL=1
      ---         BLOCKEND  CODE     ---       LVL=0

      010037B5H   BLOCK     CODE     ---       LVL=0
      010037B5H   LINE      ---      ---       #359
      010037B5H   LINE      ---      ---       #360
      010037B5H   BLOCK     CODE     NEAR LAB  LVL=1
      010037B5H   LINE      ---      ---       #364
      010037BCH   LINE      ---      ---       #365
      010037BCH   LINE      ---      ---       #366
      010037C7H   LINE      ---      ---       #367
      010037CDH   LINE      ---      ---       #368
      010037D3H   LINE      ---      ---       #369
      010037D8H   LINE      ---      ---       #370
      010037DBH   LINE      ---      ---       #371
      010037DBH   LINE      ---      ---       #372
      010037E6H   LINE      ---      ---       #373
      010037E6H   LINE      ---      ---       #374
      010037F8H   LINE      ---      ---       #375
      010037F8H   LINE      ---      ---       #376
      01003800H   LINE      ---      ---       #377
      01003800H   LINE      ---      ---       #378
      01003807H   LINE      ---      ---       #379
      01003827H   LINE      ---      ---       #380
      01003847H   LINE      ---      ---       #381
      0100384CH   LINE      ---      ---       #382
      01003855H   LINE      ---      ---       #384
      0100385AH   LINE      ---      ---       #385
      0100385FH   LINE      ---      ---       #387
      01003860H   LINE      ---      ---       #389
      01003866H   LINE      ---      ---       #390
      01003866H   LINE      ---      ---       #391
      01003866H   LINE      ---      ---       #392
      00000004H   SYMBOL    DATA     VOID      data_rec
      00000006H   SYMBOL    DATA     VOID      R_AD_Zero
      ---         BLOCKEND  CODE     ---       LVL=1
      ---         BLOCKEND  CODE     ---       LVL=0

      01000701H   BLOCK     CODE     ---       LVL=0
      01000701H   LINE      ---      ---       #396
      01000701H   LINE      ---      ---       #397
      01000701H   LINE      ---      ---       #399
      01000708H   LINE      ---      ---       #400
      01000708H   LINE      ---      ---       #401
      01000713H   LINE      ---      ---       #402
      01000715H   LINE      ---      ---       #403
      0100071AH   LINE      ---      ---       #405
      0100071AH   LINE      ---      ---       #407
      ---         BLOCKEND  ---      ---       LVL=0

      01001D2CH   BLOCK     CODE     ---       LVL=0
      01001D2CH   LINE      ---      ---       #411
      01001D37H   LINE      ---      ---       #412
      01001D37H   BLOCK     CODE     NEAR LAB  LVL=1
      01001D37H   LINE      ---      ---       #414
      01001D3EH   LINE      ---      ---       #415
      01001D3EH   LINE      ---      ---       #416
      01001D70H   LINE      ---      ---       #417
      01001D73H   LINE      ---      ---       #418
      01001D85H   LINE      ---      ---       #419
      00000007H   SYMBOL    DATA     VOID      i
      ---         BLOCKEND  CODE     ---       LVL=1
      ---         BLOCKEND  CODE     ---       LVL=0

      0100192CH   BLOCK     CODE     ---       LVL=0
      0100192CH   LINE      ---      ---       #421
      0100193AH   LINE      ---      ---       #422
      0100193AH   BLOCK     CODE     NEAR LAB  LVL=1
      0100193AH   LINE      ---      ---       #423
      0100194DH   LINE      ---      ---       #426
      01001953H   LINE      ---      ---       #427
      01001982H   LINE      ---      ---       #428
      01001982H   LINE      ---      ---       #429
      01001982H   LINE      ---      ---       #430
      01001987H   LINE      ---      ---       #431
      01001989H   LINE      ---      ---       #432
      0100198BH   LINE      ---      ---       #433
      01001991H   LINE      ---      ---       #434
      01001993H   LINE      ---      ---       #435
      01001993H   LINE      ---      ---       #436
      01001999H   LINE      ---      ---       #437
      0100199DH   LINE      ---      ---       #438
      010019A1H   LINE      ---      ---       #439
      010019A7H   LINE      ---      ---       #440
      010019A9H   LINE      ---      ---       #441
      010019A9H   LINE      ---      ---       #442
      010019AFH   LINE      ---      ---       #443
      010019B3H   LINE      ---      ---       #444
      010019B7H   LINE      ---      ---       #445
      010019BDH   LINE      ---      ---       #446
      010019BFH   LINE      ---      ---       #447
      010019BFH   LINE      ---      ---       #448
      010019C5H   LINE      ---      ---       #449
      010019C9H   LINE      ---      ---       #450
      010019CDH   LINE      ---      ---       #451
      010019D3H   LINE      ---      ---       #452
      010019D5H   LINE      ---      ---       #453
      010019D5H   LINE      ---      ---       #454
      010019DBH   LINE      ---      ---       #455
      010019DFH   LINE      ---      ---       #456
      010019F4H   LINE      ---      ---       #457
      010019FBH   LINE      ---      ---       #458
      01001A0AH   LINE      ---      ---       #459
      01001A10H   LINE      ---      ---       #460
      01001A12H   LINE      ---      ---       #461
      01001A12H   LINE      ---      ---       #462
      01001A18H   LINE      ---      ---       #463
      01001A1CH   LINE      ---      ---       #464
      01001A31H   LINE      ---      ---       #465
      01001A3BH   LINE      ---      ---       #466
      01001A42H   LINE      ---      ---       #467
      01001A51H   LINE      ---      ---       #468
      01001A57H   LINE      ---      ---       #469
      01001A59H   LINE      ---      ---       #470
      01001A59H   LINE      ---      ---       #471
      01001A5FH   LINE      ---      ---       #472
      01001A63H   LINE      ---      ---       #473
      01001A67H   LINE      ---      ---       #474
      01001A6DH   LINE      ---      ---       #475
      01001A6FH   LINE      ---      ---       #476
      01001A6FH   LINE      ---      ---       #477
      01001A75H   LINE      ---      ---       #478
      01001A79H   LINE      ---      ---       #479
      01001A8EH   LINE      ---      ---       #480
      01001A98H   LINE      ---      ---       #481
      01001AA2H   LINE      ---      ---       #482
      01001AA9H   LINE      ---      ---       #483
      01001AB8H   LINE      ---      ---       #484
      01001ABEH   LINE      ---      ---       #485
      01001AC0H   LINE      ---      ---       #486
      01001AC0H   LINE      ---      ---       #487
      01001AC6H   LINE      ---      ---       #488
      01001ACAH   LINE      ---      ---       #489
      01001ADFH   LINE      ---      ---       #490
      01001AE9H   LINE      ---      ---       #491
      01001AF3H   LINE      ---      ---       #492
      01001AFDH   LINE      ---      ---       #493
      01001B04H   LINE      ---      ---       #494
      01001B13H   LINE      ---      ---       #495
      01001B19H   LINE      ---      ---       #496
      01001B1BH   LINE      ---      ---       #497
      01001B1BH   LINE      ---      ---       #498
      01001B21H   LINE      ---      ---       #499
      01001B25H   LINE      ---      ---       #500
      01001B3AH   LINE      ---      ---       #501
      01001B44H   LINE      ---      ---       #502
      01001B4EH   LINE      ---      ---       #503
      01001B55H   LINE      ---      ---       #504
      01001B64H   LINE      ---      ---       #505
      01001B6AH   LINE      ---      ---       #506
      01001B6CH   LINE      ---      ---       #507
      01001B6CH   LINE      ---      ---       #508
      01001B72H   LINE      ---      ---       #509
      01001B76H   LINE      ---      ---       #510
      01001B8BH   LINE      ---      ---       #511
      01001B95H   LINE      ---      ---       #512
      01001B9CH   LINE      ---      ---       #513
      01001BABH   LINE      ---      ---       #514
      01001BB1H   LINE      ---      ---       #515
      01001BB3H   LINE      ---      ---       #516
      01001BB3H   LINE      ---      ---       #517
      01001BB9H   LINE      ---      ---       #518
      01001BBDH   LINE      ---      ---       #519
      01001BD2H   LINE      ---      ---       #520
      01001BDCH   LINE      ---      ---       #521
      01001BE6H   LINE      ---      ---       #522
      01001BF0H   LINE      ---      ---       #523
      01001BFAH   LINE      ---      ---       #524
      01001C01H   LINE      ---      ---       #525
      01001C10H   LINE      ---      ---       #526
      01001C14H   LINE      ---      ---       #527
      01001C16H   LINE      ---      ---       #528
      01001C16H   LINE      ---      ---       #529
      01001C1BH   LINE      ---      ---       #530
      01001C21H   LINE      ---      ---       #531
      01001C21H   LINE      ---      ---       #532
      01001C21H   LINE      ---      ---       #533
      02004D86H   SYMBOL    XDATA    VOID      buf
      02004D90H   SYMBOL    XDATA    VOID      len
      ---         BLOCKEND  CODE     ---       LVL=1
      ---         BLOCKEND  CODE     ---       LVL=0

      ---         MODULE    ---      ---       CS_SCALEDISPLAY
      02004D2EH   PUBLIC    XDATA    ---       CS_Lcd_Table
      02004D28H   PUBLIC    XDATA    ---       CS_Lcd_Send_Data
      02004D23H   PUBLIC    XDATA    ---       CS_lcd_showbuf
      02004D1DH   PUBLIC    XDATA    ---       CS_Lcd_Send_Data_BAK
      01000F23H   PUBLIC    CODE     ---       CS_ScaleDisplay_SteadyFlash
      01000F73H   PUBLIC    CODE     ---       CS_ScaleDisplay_LcdRestore
      010039D7H   PUBLIC    CODE     ---       CS_ScaleDisplay_LcdBackup
      010039C8H   PUBLIC    CODE     ---       CS_ScaleDisplay_LcdShowAll
      01000F58H   PUBLIC    CODE     ---       CS_ScaleDisplay_LcdShowNoDigit
      010039BAH   PUBLIC    CODE     ---       CS_ScaleDisplay_LcdShowNull
      010017D5H   PUBLIC    CODE     ---       _CS_ScaleDisplay_LookUpTable
      010038B8H   PUBLIC    CODE     ---       _CS_ScaleDisplay_HexToBcd
      01003923H   PUBLIC    CODE     ---       CS_ScaleDisplay_LcdBuf_rShift4
      01001603H   PUBLIC    CODE     ---       _CS_ScaleDisplay_FreshBuf
      01003867H   PUBLIC    CODE     ---       CS_ScaleDisplay_Debug
      01001543H   PUBLIC    CODE     ---       CS_ScaleDisplay

      01001543H   BLOCK     CODE     ---       LVL=0
      01001543H   LINE      ---      ---       #14
      01001543H   LINE      ---      ---       #15
      01001543H   BLOCK     CODE     NEAR LAB  LVL=1
      01001543H   LINE      ---      ---       #18
      0100154BH   LINE      ---      ---       #19
      0100154BH   LINE      ---      ---       #20
      01001553H   LINE      ---      ---       #21
      0100155AH   LINE      ---      ---       #22
      01001562H   LINE      ---      ---       #23
      01001569H   LINE      ---      ---       #24
      01001578H   LINE      ---      ---       #25
      0100157EH   LINE      ---      ---       #27
      0100157EH   LINE      ---      ---       #28
      01001584H   LINE      ---      ---       #29
      01001584H   LINE      ---      ---       #30
      01001594H   LINE      ---      ---       #31
      01001598H   LINE      ---      ---       #32
      01001598H   LINE      ---      ---       #33
      0100159FH   LINE      ---      ---       #34
      0100159FH   LINE      ---      ---       #35
      010015AFH   LINE      ---      ---       #36
      010015B3H   LINE      ---      ---       #37
      010015B3H   LINE      ---      ---       #38
      010015BAH   LINE      ---      ---       #39
      010015BAH   LINE      ---      ---       #40
      010015D0H   LINE      ---      ---       #41
      010015D4H   LINE      ---      ---       #42
      010015D4H   LINE      ---      ---       #43
      010015DBH   LINE      ---      ---       #44
      010015DBH   LINE      ---      ---       #45
      010015EAH   LINE      ---      ---       #46
      010015FEH   LINE      ---      ---       #47
      01001602H   LINE      ---      ---       #48
      01001602H   LINE      ---      ---       #49
      00000004H   SYMBOL    DATA     VOID      weight_temp
      ---         BLOCKEND  CODE     ---       LVL=1
      ---         BLOCKEND  CODE     ---       LVL=0

      01003867H   BLOCK     CODE     ---       LVL=0
      01003867H   LINE      ---      ---       #55
      01003867H   LINE      ---      ---       #56
      01003867H   BLOCK     CODE     NEAR LAB  LVL=1
      01003867H   LINE      ---      ---       #58
      01003877H   LINE      ---      ---       #60
      01003884H   LINE      ---      ---       #61
      01003891H   LINE      ---      ---       #62
      0100389EH   LINE      ---      ---       #63
      010038ABH   LINE      ---      ---       #65
      010038ADH   LINE      ---      ---       #67
      02004E29H   SYMBOL    XDATA    VOID      buf
      ---         BLOCKEND  CODE     ---       LVL=1
      ---         BLOCKEND  CODE     ---       LVL=0

      01001603H   BLOCK     CODE     ---       LVL=0
      01001603H   LINE      ---      ---       #73
      01001608H   LINE      ---      ---       #74
      01001608H   BLOCK     CODE     NEAR LAB  LVL=1
      01001608H   LINE      ---      ---       #79
      0100160BH   LINE      ---      ---       #80
      0100160BH   LINE      ---      ---       #81
      01001611H   LINE      ---      ---       #82
      01001614H   LINE      ---      ---       #83
      01001616H   LINE      ---      ---       #84
      01001618H   LINE      ---      ---       #85
      0100161AH   LINE      ---      ---       #86
      0100161AH   LINE      ---      ---       #88
      01001622H   LINE      ---      ---       #89
      01001622H   LINE      ---      ---       #90
      01001627H   LINE      ---      ---       #91
      0100162BH   LINE      ---      ---       #92
      0100162FH   LINE      ---      ---       #93
      01001632H   LINE      ---      ---       #94
      01001636H   LINE      ---      ---       #95
      01001636H   LINE      ---      ---       #97
      0100163AH   LINE      ---      ---       #98
      0100163AH   LINE      ---      ---       #99
      01001640H   LINE      ---      ---       #100
      01001642H   LINE      ---      ---       #101
      01001646H   LINE      ---      ---       #102
      0100164AH   LINE      ---      ---       #103
      0100164CH   LINE      ---      ---       #104
      0100164CH   LINE      ---      ---       #106
      01001660H   LINE      ---      ---       #107
      01001660H   LINE      ---      ---       #108
      01001665H   LINE      ---      ---       #109
      01001669H   LINE      ---      ---       #110
      0100166DH   LINE      ---      ---       #111
      01001671H   LINE      ---      ---       #112
      01001675H   LINE      ---      ---       #113
      01001679H   LINE      ---      ---       #114
      01001680H   LINE      ---      ---       #115
      01001686H   LINE      ---      ---       #116
      0100168EH   LINE      ---      ---       #117
      01001694H   LINE      ---      ---       #118
      01001698H   LINE      ---      ---       #119
      0100169EH   LINE      ---      ---       #120
      0100169EH   LINE      ---      ---       #122
      010016BBH   LINE      ---      ---       #123
      010016BBH   LINE      ---      ---       #124
      010016C8H   LINE      ---      ---       #126
      010016D0H   LINE      ---      ---       #127
      010016D0H   LINE      ---      ---       #128
      010016D6H   LINE      ---      ---       #129
      010016DCH   LINE      ---      ---       #130
      010016E2H   LINE      ---      ---       #131
      010016E8H   LINE      ---      ---       #132
      010016EDH   LINE      ---      ---       #133
      010016EDH   LINE      ---      ---       #135
      010016F7H   LINE      ---      ---       #136
      010016FAH   LINE      ---      ---       #137
      01001705H   LINE      ---      ---       #138
      01001708H   LINE      ---      ---       #140
      0100170CH   LINE      ---      ---       #141
      0100170CH   LINE      ---      ---       #142
      01001717H   LINE      ---      ---       #143
      0100171AH   LINE      ---      ---       #144
      0100171AH   LINE      ---      ---       #145
      0100171AH   LINE      ---      ---       #147
      01001726H   LINE      ---      ---       #148
      01001732H   LINE      ---      ---       #149
      0100173EH   LINE      ---      ---       #150
      0100174AH   LINE      ---      ---       #152
      0100174DH   LINE      ---      ---       #158
      01001754H   LINE      ---      ---       #159
      0100175BH   LINE      ---      ---       #162
      01001763H   LINE      ---      ---       #163
      01001763H   LINE      ---      ---       #164
      0100176AH   LINE      ---      ---       #165
      01001770H   LINE      ---      ---       #166
      01001777H   LINE      ---      ---       #167
      01001777H   LINE      ---      ---       #169
      0100177BH   LINE      ---      ---       #170
      0100177BH   LINE      ---      ---       #171
      01001782H   LINE      ---      ---       #172
      01001787H   LINE      ---      ---       #173
      01001787H   LINE      ---      ---       #175
      0100178EH   LINE      ---      ---       #176
      0100178EH   LINE      ---      ---       #177
      01001795H   LINE      ---      ---       #178
      0100179AH   LINE      ---      ---       #179
      0100179AH   LINE      ---      ---       #180
      010017A2H   LINE      ---      ---       #181
      010017A2H   LINE      ---      ---       #182
      010017A9H   LINE      ---      ---       #183
      010017AEH   LINE      ---      ---       #184
      010017AEH   LINE      ---      ---       #186
      010017B2H   LINE      ---      ---       #187
      010017B2H   LINE      ---      ---       #188
      010017B9H   LINE      ---      ---       #189
      010017BEH   LINE      ---      ---       #190
      010017BEH   LINE      ---      ---       #199
      010017C5H   LINE      ---      ---       #200
      010017CDH   LINE      ---      ---       #202
      010017D4H   LINE      ---      ---       #204
      02004D18H   SYMBOL    XDATA    VOID      data_buf
      ---         BLOCKEND  CODE     ---       LVL=1
      ---         BLOCKEND  CODE     ---       LVL=0

      01003923H   BLOCK     CODE     ---       LVL=0
      01003923H   LINE      ---      ---       #242
      01003923H   LINE      ---      ---       #243
      01003923H   LINE      ---      ---       #244
      01003930H   LINE      ---      ---       #245
      0100393DH   LINE      ---      ---       #246
      0100394AH   LINE      ---      ---       #247
      01003957H   LINE      ---      ---       #248
      01003960H   LINE      ---      ---       #251
      01003967H   LINE      ---      ---       #252
      0100396CH   LINE      ---      ---       #253
      01003971H   LINE      ---      ---       #254
      01003976H   LINE      ---      ---       #255
      0100397BH   LINE      ---      ---       #258
      01003981H   LINE      ---      ---       #259
      0100398FH   LINE      ---      ---       #260
      0100399DH   LINE      ---      ---       #261
      010039ABH   LINE      ---      ---       #262
      010039B9H   LINE      ---      ---       #264
      ---         BLOCKEND  ---      ---       LVL=0

      010038B8H   BLOCK     CODE     ---       LVL=0
      010038B8H   LINE      ---      ---       #267
      010038C9H   LINE      ---      ---       #268
      010038C9H   BLOCK     CODE     NEAR LAB  LVL=1
      010038C9H   LINE      ---      ---       #270
      010038D6H   LINE      ---      ---       #271
      010038D6H   LINE      ---      ---       #272
      01003903H   LINE      ---      ---       #273
      0100391AH   LINE      ---      ---       #274
      01003922H   LINE      ---      ---       #275
      02004E1DH   SYMBOL    XDATA    VOID      i
      ---         BLOCKEND  CODE     ---       LVL=1
      ---         BLOCKEND  CODE     ---       LVL=0

      010017D5H   BLOCK     CODE     ---       LVL=0
      010017D5H   LINE      ---      ---       #287
      010017D5H   LINE      ---      ---       #288
      010017D5H   BLOCK     CODE     NEAR LAB  LVL=1
      010017D5H   LINE      ---      ---       #290
      010017DBH   LINE      ---      ---       #291
      010017E4H   LINE      ---      ---       #292
      00000001H   SYMBOL    DATA     VOID      data_ptr
      ---         BLOCKEND  CODE     ---       LVL=1
      ---         BLOCKEND  CODE     ---       LVL=0

      010039BAH   BLOCK     CODE     ---       LVL=0
      010039BAH   LINE      ---      ---       #297
      010039BAH   LINE      ---      ---       #298
      010039BAH   LINE      ---      ---       #299
      010039BFH   LINE      ---      ---       #300
      010039C1H   LINE      ---      ---       #301
      010039C3H   LINE      ---      ---       #302
      010039C5H   LINE      ---      ---       #303
      010039C7H   LINE      ---      ---       #304
      ---         BLOCKEND  ---      ---       LVL=0

      01000F58H   BLOCK     CODE     ---       LVL=0
      01000F58H   LINE      ---      ---       #306
      01000F58H   LINE      ---      ---       #307
      01000F58H   LINE      ---      ---       #308
      01000F5FH   LINE      ---      ---       #309
      01000F63H   LINE      ---      ---       #310
      01000F68H   LINE      ---      ---       #311
      01000F6DH   LINE      ---      ---       #312
      01000F72H   LINE      ---      ---       #313
      ---         BLOCKEND  ---      ---       LVL=0

      010039C8H   BLOCK     CODE     ---       LVL=0
      010039C8H   LINE      ---      ---       #315
      010039C8H   LINE      ---      ---       #316
      010039C8H   LINE      ---      ---       #317
      010039CEH   LINE      ---      ---       #318
      010039D0H   LINE      ---      ---       #319
      010039D2H   LINE      ---      ---       #320
      010039D4H   LINE      ---      ---       #321
      010039D6H   LINE      ---      ---       #322
      ---         BLOCKEND  ---      ---       LVL=0

      010039D7H   BLOCK     CODE     ---       LVL=0
      010039D7H   LINE      ---      ---       #325
      010039D7H   LINE      ---      ---       #326
      010039D7H   LINE      ---      ---       #327
      010039DFH   LINE      ---      ---       #328
      010039E7H   LINE      ---      ---       #329
      010039EFH   LINE      ---      ---       #330
      010039F7H   LINE      ---      ---       #331
      010039FFH   LINE      ---      ---       #332
      ---         BLOCKEND  ---      ---       LVL=0

      01000F73H   BLOCK     CODE     ---       LVL=0
      01000F73H   LINE      ---      ---       #335
      01000F73H   LINE      ---      ---       #336
      01000F73H   LINE      ---      ---       #337
      01000F7BH   LINE      ---      ---       #338
      01000F83H   LINE      ---      ---       #339
      01000F8BH   LINE      ---      ---       #340
      01000F93H   LINE      ---      ---       #341
      01000F9BH   LINE      ---      ---       #342
      ---         BLOCKEND  ---      ---       LVL=0

      01000F23H   BLOCK     CODE     ---       LVL=0
      01000F23H   LINE      ---      ---       #345
      01000F23H   LINE      ---      ---       #346
      01000F23H   BLOCK     CODE     NEAR LAB  LVL=1
      01000F23H   LINE      ---      ---       #351
      01000F2AH   LINE      ---      ---       #352
      01000F2AH   LINE      ---      ---       #353
      01000F2EH   LINE      ---      ---       #354
      01000F34H   LINE      ---      ---       #355
      01000F37H   LINE      ---      ---       #356
      01000F3DH   LINE      ---      ---       #357
      01000F3FH   LINE      ---      ---       #358
      01000F45H   LINE      ---      ---       #359
      01000F47H   LINE      ---      ---       #360
      01000F4DH   LINE      ---      ---       #361
      01000F4FH   LINE      ---      ---       #362
      01000F55H   LINE      ---      ---       #363
      01000F57H   LINE      ---      ---       #364
      01000F57H   LINE      ---      ---       #365
      00000007H   SYMBOL    DATA     VOID      R_Weight_FlashTime
      ---         BLOCKEND  CODE     ---       LVL=1
      ---         BLOCKEND  CODE     ---       LVL=0

      ---         MODULE    ---      ---       CS_SCALEKEY
      01000937H   PUBLIC    CODE     ---       CS_KeyScan

      01000937H   BLOCK     CODE     ---       LVL=0
      01000937H   LINE      ---      ---       #17
      01000937H   LINE      ---      ---       #18
      01000937H   BLOCK     CODE     NEAR LAB  LVL=1
      01000937H   LINE      ---      ---       #29
      0100093FH   LINE      ---      ---       #31
      01000948H   LINE      ---      ---       #32
      0100094BH   LINE      ---      ---       #34
      01000950H   LINE      ---      ---       #35
      01000950H   LINE      ---      ---       #36
      01000955H   LINE      ---      ---       #37
      01000958H   LINE      ---      ---       #39
      0100095FH   LINE      ---      ---       #40
      01000964H   LINE      ---      ---       #42
      01000969H   LINE      ---      ---       #43
      0100096BH   LINE      ---      ---       #45
      01000975H   LINE      ---      ---       #46
      01000975H   LINE      ---      ---       #47
      01000976H   LINE      ---      ---       #50
      0100097FH   LINE      ---      ---       #51
      01000985H   LINE      ---      ---       #53
      01000985H   LINE      ---      ---       #54
      0100098AH   LINE      ---      ---       #55
      0100098DH   LINE      ---      ---       #56
      0100098DH   LINE      ---      ---       #57
      01000992H   LINE      ---      ---       #58
      01000992H   LINE      ---      ---       #59
      01000993H   LINE      ---      ---       #61
      01000993H   LINE      ---      ---       #62
      01000999H   LINE      ---      ---       #63
      01000999H   LINE      ---      ---       #64
      010009A0H   LINE      ---      ---       #65
      010009A3H   LINE      ---      ---       #66
      010009ADH   LINE      ---      ---       #67
      010009ADH   LINE      ---      ---       #68
      010009B3H   LINE      ---      ---       #69
      010009B9H   LINE      ---      ---       #70
      010009B9H   LINE      ---      ---       #71
      010009BBH   LINE      ---      ---       #73
      010009C4H   LINE      ---      ---       #74
      010009C7H   LINE      ---      ---       #75
      010009CCH   LINE      ---      ---       #76
      010009CCH   LINE      ---      ---       #77
      010009CCH   LINE      ---      ---       #78
      010009D2H   LINE      ---      ---       #79
      010009D2H   LINE      ---      ---       #80
      010009D8H   LINE      ---      ---       #81
      010009D8H   LINE      ---      ---       #83
      010009DAH   LINE      ---      ---       #84
      010009E1H   LINE      ---      ---       #85
      010009E1H   LINE      ---      ---       #86
      010009E7H   LINE      ---      ---       #87
      010009EBH   LINE      ---      ---       #88
      010009F0H   LINE      ---      ---       #89
      010009F4H   LINE      ---      ---       #90
      010009F4H   LINE      ---      ---       #91
      010009F9H   LINE      ---      ---       #92
      010009FDH   LINE      ---      ---       #93
      010009FDH   LINE      ---      ---       #94
      010009FDH   LINE      ---      ---       #95
      010009FEH   LINE      ---      ---       #97
      010009FEH   LINE      ---      ---       #98
      01000A03H   LINE      ---      ---       #99
      01000A07H   LINE      ---      ---       #100
      01000A07H   LINE      ---      ---       #101
      01000A07H   LINE      ---      ---       #102
      00000007H   SYMBOL    DATA     VOID      keyState
      02004E0BH   SYMBOL    XDATA    VOID      keyState_prev
      02004E0CH   SYMBOL    XDATA    VOID      keyStateCnt
      02004E0DH   SYMBOL    XDATA    VOID      KeyPressDeal
      02004E0EH   SYMBOL    XDATA    VOID      KeyLongPressDeal
      02004E0FH   SYMBOL    XDATA    VOID      ShortPressCount
      02004E10H   SYMBOL    XDATA    VOID      PressTimesCount
      02004E11H   SYMBOL    XDATA    VOID      Press
      ---         BLOCKEND  CODE     ---       LVL=1
      ---         BLOCKEND  CODE     ---       LVL=0

      ---         MODULE    ---      ---       RETATION_VARIABLE
      02004E5BH   PUBLIC    XDATA    BYTE      sys_state
      02004C62H   PUBLIC    XDATA    BYTE      R_Test
      02004C5BH   PUBLIC    XDATA    BYTE      bleConnStatus
      02004C5DH   PUBLIC    XDATA    BYTE      handleIndicationConfirm
      02004A02H   PUBLIC    XDATA    WORD      BT_CmdWptr
      02004A00H   PUBLIC    XDATA    WORD      BT_CmdRptr
      02004C5AH   PUBLIC    XDATA    BYTE      notifyValueUUIDA625
      02004C10H   PUBLIC    XDATA    ---       historyUserData
      02004C59H   PUBLIC    XDATA    BYTE      notifyValueUUIDA621
      02004A06H   PUBLIC    XDATA    WORD      BT_EventWptr
      02004A04H   PUBLIC    XDATA    WORD      BT_EventRptr
      02004C5CH   PUBLIC    XDATA    BYTE      lxOptStatus
      02004C00H   PUBLIC    XDATA    ---       sensor_data
      02004C63H   PUBLIC    XDATA    ---       btCmdBuf
      02004C06H   PUBLIC    XDATA    ---       deviceInfo
      02004C5EH   PUBLIC    XDATA    LONG      UTCTime

      ---         MODULE    ---      ---       LXPROTOCOL
      01003E62H   PUBLIC    CODE     ---       _QueuePush
      010017E5H   PUBLIC    CODE     ---       QueueInit
      01001F3BH   PUBLIC    CODE     ---       _SpiFlashOperator
      01003ABBH   PUBLIC    CODE     ---       lxOptProcess
      01001EFFH   PUBLIC    CODE     ---       _changeLxOptStatus
      01001DBDH   PUBLIC    CODE     ---       _lxRecvDataFromApp

      01003A00H   BLOCK     CODE     ---       LVL=0
      01003A00H   LINE      ---      ---       #17
      01003A11H   LINE      ---      ---       #18
      01003A11H   BLOCK     CODE     NEAR LAB  LVL=1
      01003A11H   LINE      ---      ---       #22
      01003A1EH   LINE      ---      ---       #23
      01003A3DH   LINE      ---      ---       #24
      01003A3DH   LINE      ---      ---       #25
      01003A5AH   LINE      ---      ---       #26
      01003A85H   LINE      ---      ---       #27
      01003AAAH   LINE      ---      ---       #28
      01003ABAH   LINE      ---      ---       #29
      02004DBDH   SYMBOL    XDATA    VOID      i
      02004DBFH   SYMBOL    XDATA    VOID      size
      02004DC1H   SYMBOL    XDATA    VOID      temp
      ---         BLOCKEND  CODE     ---       LVL=1
      ---         BLOCKEND  CODE     ---       LVL=0

      01001F08H   BLOCK     CODE     ---       LVL=0
      01001F08H   LINE      ---      ---       #31
      01001F0CH   LINE      ---      ---       #32
      01001F0CH   LINE      ---      ---       #33
      01001F14H   LINE      ---      ---       #34
      01001F14H   LINE      ---      ---       #36
      01001F14H   LINE      ---      ---       #38
      01001F1AH   LINE      ---      ---       #39
      01001F1EH   LINE      ---      ---       #40
      01001F21H   LINE      ---      ---       #41
      01001F24H   LINE      ---      ---       #42
      01001F27H   LINE      ---      ---       #43
      01001F2AH   LINE      ---      ---       #44
      01001F2DH   LINE      ---      ---       #46
      01001F36H   LINE      ---      ---       #47
      01001F3AH   LINE      ---      ---       #48
      ---         BLOCKEND  ---      ---       LVL=0

      01001DBDH   BLOCK     CODE     ---       LVL=0
      01001DBDH   LINE      ---      ---       #50
      01001DC8H   LINE      ---      ---       #51
      01001DC8H   BLOCK     CODE     NEAR LAB  LVL=1
      01001DC8H   LINE      ---      ---       #54
      01001DDDH   LINE      ---      ---       #57
      01001E02H   LINE      ---      ---       #58
      01001E26H   LINE      ---      ---       #61
      01001E30H   LINE      ---      ---       #62
      01001E30H   LINE      ---      ---       #64
      01001E37H   LINE      ---      ---       #67
      01001E67H   LINE      ---      ---       #69
      01001E97H   LINE      ---      ---       #70
      01001E97H   LINE      ---      ---       #71
      01001E97H   LINE      ---      ---       #72
      01001E9BH   LINE      ---      ---       #73
      01001E9BH   LINE      ---      ---       #74
      01001E9BH   LINE      ---      ---       #75
      01001E9FH   LINE      ---      ---       #76
      01001E9FH   LINE      ---      ---       #77
      01001E9FH   LINE      ---      ---       #78
      01001EA3H   LINE      ---      ---       #79
      01001EA3H   LINE      ---      ---       #80
      01001EA3H   LINE      ---      ---       #81
      01001EA7H   LINE      ---      ---       #82
      01001EA7H   LINE      ---      ---       #84
      01001EA7H   LINE      ---      ---       #85
      01001EABH   LINE      ---      ---       #86
      01001EABH   LINE      ---      ---       #87
      01001EABH   LINE      ---      ---       #88
      01001EAFH   LINE      ---      ---       #89
      01001EAFH   LINE      ---      ---       #90
      01001EAFH   LINE      ---      ---       #91
      01001EB3H   LINE      ---      ---       #92
      01001EB3H   LINE      ---      ---       #94
      01001EB3H   LINE      ---      ---       #95
      01001EB7H   LINE      ---      ---       #96
      01001EB7H   LINE      ---      ---       #97
      01001EB7H   LINE      ---      ---       #99
      01001EB8H   LINE      ---      ---       #101
      01001EBEH   LINE      ---      ---       #102
      01001EBEH   LINE      ---      ---       #103
      01001ED2H   LINE      ---      ---       #104
      01001ED2H   LINE      ---      ---       #105
      01001ED9H   LINE      ---      ---       #106
      01001ED9H   LINE      ---      ---       #107
      01001EDDH   LINE      ---      ---       #108
      01001EDDH   LINE      ---      ---       #110
      01001EE2H   LINE      ---      ---       #111
      01001EE3H   LINE      ---      ---       #113
      01001EE3H   LINE      ---      ---       #114
      01001EEAH   LINE      ---      ---       #115
      01001EEAH   LINE      ---      ---       #116
      01001EF4H   LINE      ---      ---       #118
      01001EF9H   LINE      ---      ---       #119
      01001EF9H   LINE      ---      ---       #120
      01001EFEH   LINE      ---      ---       #121
      01001EFEH   LINE      ---      ---       #122
      01001EFEH   LINE      ---      ---       #123
      02004E21H   SYMBOL    XDATA    VOID      frameControl
      02004E22H   SYMBOL    XDATA    VOID      cmd
      ---         BLOCKEND  CODE     ---       LVL=1
      ---         BLOCKEND  CODE     ---       LVL=0

      01001EFFH   BLOCK     CODE     ---       LVL=0
      01001EFFH   LINE      ---      ---       #125
      01001EFFH   LINE      ---      ---       #126
      01001EFFH   LINE      ---      ---       #127
      01001F05H   LINE      ---      ---       #128
      01001F05H   LINE      ---      ---       #129
      01001F07H   LINE      ---      ---       #130
      01001F07H   LINE      ---      ---       #131
      ---         BLOCKEND  ---      ---       LVL=0

      01003ABBH   BLOCK     CODE     ---       LVL=0
      01003ABBH   LINE      ---      ---       #133
      01003ABBH   LINE      ---      ---       #134
      01003ABBH   BLOCK     CODE     NEAR LAB  LVL=1
      01003ABBH   LINE      ---      ---       #137
      01003AC1H   LINE      ---      ---       #138
      01003AC5H   LINE      ---      ---       #139
      01003AC8H   LINE      ---      ---       #140
      01003AF4H   LINE      ---      ---       #141
      01003AF4H   LINE      ---      ---       #143
      01003AF4H   LINE      ---      ---       #145
      01003B00H   LINE      ---      ---       #146
      01003B00H   LINE      ---      ---       #148
      01003B15H   LINE      ---      ---       #150
      01003B1BH   LINE      ---      ---       #152
      01003B1FH   LINE      ---      ---       #153
      01003B21H   LINE      ---      ---       #155
      01003B21H   LINE      ---      ---       #156
      01003B26H   LINE      ---      ---       #157
      01003B26H   LINE      ---      ---       #159
      01003B2CH   LINE      ---      ---       #160
      01003B32H   LINE      ---      ---       #161
      01003B36H   LINE      ---      ---       #162
      01003B39H   LINE      ---      ---       #163
      01003B3CH   LINE      ---      ---       #164
      01003B44H   LINE      ---      ---       #165
      01003B50H   LINE      ---      ---       #166
      01003B59H   LINE      ---      ---       #167
      01003B5FH   LINE      ---      ---       #168
      01003B60H   LINE      ---      ---       #170
      01003B60H   LINE      ---      ---       #172
      01003B74H   LINE      ---      ---       #173
      01003B74H   LINE      ---      ---       #175
      01003B7CH   LINE      ---      ---       #177
      01003B82H   LINE      ---      ---       #178
      01003B84H   LINE      ---      ---       #180
      01003B84H   LINE      ---      ---       #181
      01003B8AH   LINE      ---      ---       #182
      01003B8AH   LINE      ---      ---       #184
      01003B90H   LINE      ---      ---       #185
      01003B94H   LINE      ---      ---       #186
      01003B98H   LINE      ---      ---       #187
      01003B9BH   LINE      ---      ---       #188
      01003B9FH   LINE      ---      ---       #189
      01003BA3H   LINE      ---      ---       #190
      01003BA6H   LINE      ---      ---       #191
      01003BA9H   LINE      ---      ---       #192
      01003BB1H   LINE      ---      ---       #194
      01003BBDH   LINE      ---      ---       #195
      01003BC6H   LINE      ---      ---       #196
      01003BCCH   LINE      ---      ---       #197
      01003BCDH   LINE      ---      ---       #199
      01003BCDH   LINE      ---      ---       #200
      01003BD3H   LINE      ---      ---       #201
      01003BD8H   LINE      ---      ---       #202
      01003BDCH   LINE      ---      ---       #203
      01003BE0H   LINE      ---      ---       #204
      01003BE3H   LINE      ---      ---       #206
      01003BF1H   LINE      ---      ---       #207
      01003BF1H   LINE      ---      ---       #208
      01003C17H   LINE      ---      ---       #209
      01003C1FH   LINE      ---      ---       #212
      01003C27H   LINE      ---      ---       #214
      01003C2FH   LINE      ---      ---       #215
      01003C37H   LINE      ---      ---       #217
      01003C3DH   LINE      ---      ---       #219
      01003C49H   LINE      ---      ---       #220
      01003C52H   LINE      ---      ---       #221
      01003C57H   LINE      ---      ---       #222
      01003C5DH   LINE      ---      ---       #223
      01003C5EH   LINE      ---      ---       #224
      01003C5EH   LINE      ---      ---       #225
      01003C66H   LINE      ---      ---       #226
      01003C6BH   LINE      ---      ---       #227
      01003C6BH   LINE      ---      ---       #229
      01003C6FH   LINE      ---      ---       #230
      01003C6FH   LINE      ---      ---       #231
      01003CA4H   LINE      ---      ---       #232
      01003CA4H   LINE      ---      ---       #234
      01003CAAH   LINE      ---      ---       #238
      01003CAAH   LINE      ---      ---       #239
      01003CB4H   LINE      ---      ---       #241
      01003CBAH   LINE      ---      ---       #242
      01003CBBH   LINE      ---      ---       #244
      01003CBBH   LINE      ---      ---       #245
      01003CC0H   LINE      ---      ---       #247
      01003CC5H   LINE      ---      ---       #248
      01003CC9H   LINE      ---      ---       #249
      01003CD2H   LINE      ---      ---       #251
      01003CD2H   LINE      ---      ---       #252
      01003CD2H   LINE      ---      ---       #254
      01003CD2H   LINE      ---      ---       #255
      01003CD8H   LINE      ---      ---       #256
      01003CDCH   LINE      ---      ---       #257
      01003CE0H   LINE      ---      ---       #258
      01003CE3H   LINE      ---      ---       #259
      01003CE7H   LINE      ---      ---       #260
      01003CEBH   LINE      ---      ---       #261
      01003CEFH   LINE      ---      ---       #262
      01003CF2H   LINE      ---      ---       #263
      01003CF6H   LINE      ---      ---       #265
      01003D02H   LINE      ---      ---       #266
      01003D0BH   LINE      ---      ---       #267
      01003D11H   LINE      ---      ---       #268
      01003D12H   LINE      ---      ---       #269
      01003D12H   LINE      ---      ---       #270
      01003D19H   LINE      ---      ---       #271
      01003D19H   LINE      ---      ---       #273
      01003D31H   LINE      ---      ---       #274
      01003D31H   LINE      ---      ---       #275
      01003D36H   LINE      ---      ---       #276
      01003D37H   LINE      ---      ---       #278
      01003D37H   LINE      ---      ---       #279
      01003D3EH   LINE      ---      ---       #280
      01003D3EH   LINE      ---      ---       #281
      01003D56H   LINE      ---      ---       #282
      01003D56H   LINE      ---      ---       #289
      01003D5EH   LINE      ---      ---       #290
      01003D64H   LINE      ---      ---       #291
      01003D65H   LINE      ---      ---       #293
      01003D65H   LINE      ---      ---       #295
      01003D6EH   LINE      ---      ---       #296
      01003D6EH   LINE      ---      ---       #297
      01003D73H   LINE      ---      ---       #298
      01003D7BH   LINE      ---      ---       #299
      01003D7DH   LINE      ---      ---       #301
      01003D7DH   LINE      ---      ---       #302
      01003D85H   LINE      ---      ---       #303
      01003D85H   LINE      ---      ---       #304
      01003D8BH   LINE      ---      ---       #305
      01003D8CH   LINE      ---      ---       #307
      01003D8CH   LINE      ---      ---       #308
      01003D93H   LINE      ---      ---       #309
      01003D93H   LINE      ---      ---       #310
      01003D96H   LINE      ---      ---       #311
      01003D96H   LINE      ---      ---       #312
      01003D96H   LINE      ---      ---       #313
      01003D96H   LINE      ---      ---       #314
      01003D96H   LINE      ---      ---       #315
      01003D96H   LINE      ---      ---       #316
      01003D96H   LINE      ---      ---       #317
      01003D96H   LINE      ---      ---       #318
      01003D96H   LINE      ---      ---       #319
      01003D96H   LINE      ---      ---       #320
      01003D96H   LINE      ---      ---       #322
      01003D9EH   LINE      ---      ---       #323
      01003DA4H   LINE      ---      ---       #324
      01003DA5H   LINE      ---      ---       #326
      01003DA5H   LINE      ---      ---       #328
      01003DABH   LINE      ---      ---       #329
      01003DABH   LINE      ---      ---       #330
      01003DAFH   LINE      ---      ---       #331
      01003DB0H   LINE      ---      ---       #333
      01003DB0H   LINE      ---      ---       #334
      01003DB6H   LINE      ---      ---       #335
      01003DB6H   LINE      ---      ---       #336
      01003DB7H   LINE      ---      ---       #337
      01003DB7H   LINE      ---      ---       #339
      01003DBAH   LINE      ---      ---       #340
      01003DC0H   LINE      ---      ---       #341
      01003DC0H   LINE      ---      ---       #348
      01003DC0H   LINE      ---      ---       #349
      02004E5CH   SYMBOL    XDATA    VOID      i
      ---         BLOCKEND  CODE     ---       LVL=1
      ---         BLOCKEND  CODE     ---       LVL=0

      01003DC1H   BLOCK     CODE     ---       LVL=0
      01003DC1H   LINE      ---      ---       #351
      01003DC5H   LINE      ---      ---       #352
      01003DC5H   LINE      ---      ---       #353
      01003DCBH   LINE      ---      ---       #354
      01003DCFH   LINE      ---      ---       #355
      01003DD3H   LINE      ---      ---       #356
      01003DD6H   LINE      ---      ---       #357
      01003DDAH   LINE      ---      ---       #358
      01003DDEH   LINE      ---      ---       #359
      01003DE1H   LINE      ---      ---       #360
      01003DE5H   LINE      ---      ---       #361
      01003DE8H   LINE      ---      ---       #362
      01003DEBH   LINE      ---      ---       #363
      01003DEEH   LINE      ---      ---       #365
      01003DFAH   LINE      ---      ---       #366
      01003E03H   LINE      ---      ---       #367
      ---         BLOCKEND  ---      ---       LVL=0

      01001FBAH   BLOCK     CODE     ---       LVL=0
      01001FBAH   LINE      ---      ---       #370
      01001FBAH   LINE      ---      ---       #371
      01001FBAH   LINE      ---      ---       #374
      01001FC4H   LINE      ---      ---       #375
      01001FC7H   LINE      ---      ---       #376
      01001FCCH   LINE      ---      ---       #377
      01001FD6H   LINE      ---      ---       #378
      ---         BLOCKEND  ---      ---       LVL=0

      01002569H   BLOCK     CODE     ---       LVL=0
      01002569H   LINE      ---      ---       #383
      01002569H   LINE      ---      ---       #384
      01002569H   BLOCK     CODE     NEAR LAB  LVL=1
      01002569H   LINE      ---      ---       #386
      01002572H   LINE      ---      ---       #388
      01002576H   LINE      ---      ---       #402
      0100257EH   LINE      ---      ---       #403
      010025BDH   LINE      ---      ---       #404
      010025C8H   LINE      ---      ---       #406
      010025CEH   LINE      ---      ---       #407
      010025D2H   LINE      ---      ---       #408
      010025D5H   LINE      ---      ---       #410
      010025DBH   LINE      ---      ---       #411
      010025DFH   LINE      ---      ---       #412
      010025E9H   LINE      ---      ---       #413
      010025ECH   LINE      ---      ---       #414
      010025F0H   LINE      ---      ---       #415
      010025F3H   LINE      ---      ---       #416
      010025F5H   LINE      ---      ---       #417
      010025F7H   LINE      ---      ---       #418
      010025FFH   LINE      ---      ---       #419
      010025FFH   LINE      ---      ---       #420
      01002611H   LINE      ---      ---       #421
      01002611H   LINE      ---      ---       #422
      0100261FH   LINE      ---      ---       #423
      01002650H   LINE      ---      ---       #424
      01002658H   LINE      ---      ---       #425
      01002682H   LINE      ---      ---       #426
      010026A7H   LINE      ---      ---       #427
      010026B7H   LINE      ---      ---       #429
      010026CCH   LINE      ---      ---       #430
      010026CCH   LINE      ---      ---       #431
      010026D9H   LINE      ---      ---       #432
      010026DEH   LINE      ---      ---       #433
      010026DEH   LINE      ---      ---       #434
      010026E6H   LINE      ---      ---       #435
      010026E8H   LINE      ---      ---       #437
      010026E8H   LINE      ---      ---       #438
      010026EEH   LINE      ---      ---       #439
      010026F5H   LINE      ---      ---       #441
      010026F5H   LINE      ---      ---       #442
      01002703H   LINE      ---      ---       #443
      0100270DH   LINE      ---      ---       #444
      01002730H   LINE      ---      ---       #445
      01002738H   LINE      ---      ---       #446
      0100273DH   LINE      ---      ---       #447
      01002745H   LINE      ---      ---       #448
      01002745H   LINE      ---      ---       #450
      01002745H   LINE      ---      ---       #451
      0100274BH   LINE      ---      ---       #452
      01002751H   LINE      ---      ---       #453
      01002755H   LINE      ---      ---       #454
      01002763H   LINE      ---      ---       #455
      01002766H   LINE      ---      ---       #456
      01002766H   LINE      ---      ---       #457
      01002781H   LINE      ---      ---       #458
      01002783H   LINE      ---      ---       #460
      01002783H   LINE      ---      ---       #461
      0100278EH   LINE      ---      ---       #462
      0100278EH   LINE      ---      ---       #463
      010027A5H   LINE      ---      ---       #464
      010027B5H   LINE      ---      ---       #465
      010027BDH   LINE      ---      ---       #466
      010027BDH   LINE      ---      ---       #467
      02004E5DH   SYMBOL    XDATA    VOID      total_len
      02004DC2H   SYMBOL    XDATA    VOID      temp
      02004DC5H   SYMBOL    XDATA    VOID      crc32
      02004DC9H   SYMBOL    XDATA    VOID      i
      02004DCAH   SYMBOL    XDATA    VOID      pkgCnt
      02004DCBH   SYMBOL    XDATA    VOID      size
      ---         BLOCKEND  CODE     ---       LVL=1
      ---         BLOCKEND  CODE     ---       LVL=0

      01001F3BH   BLOCK     CODE     ---       LVL=0
      01001F3BH   LINE      ---      ---       #469
      01001F40H   LINE      ---      ---       #470
      01001F40H   LINE      ---      ---       #472
      01001F43H   LINE      ---      ---       #473
      01001F43H   LINE      ---      ---       #474
      01001F5AH   LINE      ---      ---       #475
      01001F5AH   LINE      ---      ---       #476
      01001F61H   LINE      ---      ---       #477
      01001F61H   LINE      ---      ---       #478
      01001F6CH   LINE      ---      ---       #479
      01001F83H   LINE      ---      ---       #480
      01001F83H   LINE      ---      ---       #487
      ---         BLOCKEND  ---      ---       LVL=0

      010017E5H   BLOCK     CODE     ---       LVL=0
      010017E5H   LINE      ---      ---       #496
      010017E5H   LINE      ---      ---       #497
      010017E5H   LINE      ---      ---       #498
      010017EAH   LINE      ---      ---       #499
      010017ECH   LINE      ---      ---       #500
      010017EEH   LINE      ---      ---       #501
      ---         BLOCKEND  ---      ---       LVL=0

      01003E08H   BLOCK     CODE     ---       LVL=0
      01003E08H   LINE      ---      ---       #503
      01003E08H   LINE      ---      ---       #504
      01003E08H   BLOCK     CODE     NEAR LAB  LVL=1
      01003E08H   LINE      ---      ---       #505
      01003E11H   LINE      ---      ---       #507
      01003E1AH   LINE      ---      ---       #508
      01003E21H   LINE      ---      ---       #510
      01003E3DH   LINE      ---      ---       #511
      01003E50H   LINE      ---      ---       #512
      01003E56H   LINE      ---      ---       #514
      01003E61H   LINE      ---      ---       #515
      02004E50H   SYMBOL    XDATA    VOID      temp
      ---         BLOCKEND  CODE     ---       LVL=1
      ---         BLOCKEND  CODE     ---       LVL=0

      01003E62H   BLOCK     CODE     ---       LVL=0
      01003E62H   LINE      ---      ---       #517
      01003E6DH   LINE      ---      ---       #518
      01003E6DH   LINE      ---      ---       #519
      01003E76H   LINE      ---      ---       #520
      01003E78H   LINE      ---      ---       #522
      01003EA8H   LINE      ---      ---       #523
      01003EBBH   LINE      ---      ---       #524
      01003EBFH   LINE      ---      ---       #525
      ---         BLOCKEND  ---      ---       LVL=0

      ---         MODULE    ---      ---       CRC32
      02004D91H   PUBLIC    XDATA    BYTE      ?_cal_crc32_multiple?BYTE
      0100246EH   PUBLIC    CODE     ---       _cal_crc32_multiple

      0100246EH   BLOCK     CODE     ---       LVL=0
      0100246EH   LINE      ---      ---       #80
      0100247FH   LINE      ---      ---       #81
      0100247FH   BLOCK     CODE     NEAR LAB  LVL=1
      0100247FH   LINE      ---      ---       #83
      010024ABH   LINE      ---      ---       #84
      010024ABH   LINE      ---      ---       #85
      01002508H   LINE      ---      ---       #86
      01002539H   LINE      ---      ---       #87
      0100255AH   LINE      ---      ---       #89
      01002568H   LINE      ---      ---       #90
      02004D9CH   SYMBOL    XDATA    VOID      i
      ---         BLOCKEND  CODE     ---       LVL=1
      ---         BLOCKEND  CODE     ---       LVL=0

      ---         MODULE    ---      ---       ?C_STARTUP
      01000000H   PUBLIC    CODE     ---       ?C_STARTUP

      ---         MODULE    ---      ---       ?C?COPY
      010000D3H   PUBLIC    CODE     ---       ?C?COPY

      ---         MODULE    ---      ---       ?C?CLDPTR
      010000F9H   PUBLIC    CODE     ---       ?C?CLDPTR

      ---         MODULE    ---      ---       ?C?CLDOPTR
      01000112H   PUBLIC    CODE     ---       ?C?CLDOPTR

      ---         MODULE    ---      ---       ?C?CSTPTR
      0100013FH   PUBLIC    CODE     ---       ?C?CSTPTR

      ---         MODULE    ---      ---       ?C?CSTOPTR
      01000151H   PUBLIC    CODE     ---       ?C?CSTOPTR

      ---         MODULE    ---      ---       ?C?UIDIV
      01000173H   PUBLIC    CODE     ---       ?C?UIDIV

      ---         MODULE    ---      ---       ?C?ILDIX
      010001C8H   PUBLIC    CODE     ---       ?C?ILDIX

      ---         MODULE    ---      ---       ?C?LMUL
      010001DEH   PUBLIC    CODE     ---       ?C?LMUL

      ---         MODULE    ---      ---       ?C?ULDIV
      01000269H   PUBLIC    CODE     ---       ?C?ULDIV

      ---         MODULE    ---      ---       ?C?ULCMP
      010002FBH   PUBLIC    CODE     ---       ?C?ULCMP

      ---         MODULE    ---      ---       ?C?ULSHR
      0100030CH   PUBLIC    CODE     ---       ?C?ULSHR

      ---         MODULE    ---      ---       ?C?LSHL
      0100031FH   PUBLIC    CODE     ---       ?C?LSHL

      ---         MODULE    ---      ---       ?C?LSTXDATA
      01000332H   PUBLIC    CODE     ---       ?C?LSTXDATA

      ---         MODULE    ---      ---       ?C?LSTKXDATA
      0100033EH   PUBLIC    CODE     ---       ?C?LSTKXDATA

      ---         MODULE    ---      ---       ?C?CCASE
      0100036FH   PUBLIC    CODE     ---       ?C?CCASE

      ---         MODULE    ---      ---       ?C?ICASE
      01000395H   PUBLIC    CODE     ---       ?C?ICASE

      ---         MODULE    ---      ---       ?C?ICALL
      010003C2H   PUBLIC    CODE     ---       ?C?ICALL
      010003C6H   PUBLIC    CODE     ---       ?C?ICALL2

      ---         MODULE    ---      ---       ?C?LIMUL
      010003C8H   PUBLIC    CODE     ---       ?C?LIMUL

      ---         MODULE    ---      ---       ?C_INIT
      0100043CH   PUBLIC    CODE     ---       ?C_START

Program Size: data=31.2 xdata=601 const=10 code=16054
LX51 RUN COMPLETE.  0 WARNING(S),  0 ERROR(S)
