LX51 LINKER/LOCATER V4.41                                                               04/19/2017  12:00:50  PAGE 1


LX51 LINKER/LOCATER V4.41, INVOKED BY:
C:\KEIL\C51\BIN\LX51.EXE OUT/MAIN.OBJ, OUT/SYSTEM.OBJ, OUT/YC_SYS.OBJ, OUT/YC_PERIPHERAL.OBJ, OUT/SPIFLASH.OBJ, OUT/BT_I
>> PC.OBJ, OUT/YC_UTILITIES.OBJ, OUT/CS_SCALE_PROC.OBJ, OUT/CS_COMMTO1186.OBJ, OUT/CS_SCALEDISPLAY.OBJ, OUT/CS_SCALEKEY.
>> OBJ, OUT/RETATION_VARIABLE.OBJ, OUT/LXPROTOCOL.OBJ, OUT/CRC32.OBJ TO OUT\FW CLASSES (XDATA (X:0X4C80-X:0X4EFF), CODE 
>> (C:0-C:0XFFFF), DATA (D:0X10-0X7F), IDATA (I:0X80-0XCF)) SEGMENTS (?STACK (D:0XD0)) NOOVERLAY PAGELENGTH (60000) CODE
>> 


CPU MODE:     8051 MODE
MEMORY MODEL: LARGE


INPUT MODULES INCLUDED:
  OUT/MAIN.OBJ (MAIN)
         COMMENT TYPE 0: C51 V9.01
  OUT/SYSTEM.OBJ (SYSTEM)
         COMMENT TYPE 0: C51 V9.01
  OUT/YC_SYS.OBJ (YC_SYS)
         COMMENT TYPE 0: C51 V9.01
  OUT/YC_PERIPHERAL.OBJ (YC_PERIPHERAL)
         COMMENT TYPE 0: C51 V9.01
  OUT/SPIFLASH.OBJ (SPIFLASH)
         COMMENT TYPE 0: C51 V9.01
  OUT/BT_IPC.OBJ (BT_IPC)
         COMMENT TYPE 0: C51 V9.01
  OUT/YC_UTILITIES.OBJ (YC_UTILITIES)
         COMMENT TYPE 0: C51 V9.01
  OUT/CS_SCALE_PROC.OBJ (CS_SCALE_PROC)
         COMMENT TYPE 0: C51 V9.01
  OUT/CS_COMMTO1186.OBJ (CS_COMMTO1186)
         COMMENT TYPE 0: C51 V9.01
  OUT/CS_SCALEDISPLAY.OBJ (CS_SCALEDISPLAY)
         COMMENT TYPE 0: C51 V9.01
  OUT/CS_SCALEKEY.OBJ (CS_SCALEKEY)
         COMMENT TYPE 0: C51 V9.01
  OUT/RETATION_VARIABLE.OBJ (RETATION_VARIABLE)
         COMMENT TYPE 0: C51 V9.01
  OUT/LXPROTOCOL.OBJ (LXPROTOCOL)
         COMMENT TYPE 0: C51 V9.01
  OUT/CRC32.OBJ (CRC32)
         COMMENT TYPE 0: C51 V9.01
  C:\KEIL\C51\LIB\C51L.LIB (?C_STARTUP)
         COMMENT TYPE 1: A51 / ASM51 Assembler
  C:\KEIL\C51\LIB\C51L.LIB (?C?COPY)
         COMMENT TYPE 1: A51 / ASM51 Assembler
  C:\KEIL\C51\LIB\C51L.LIB (?C?CLDPTR)
         COMMENT TYPE 1: A51 / ASM51 Assembler
  C:\KEIL\C51\LIB\C51L.LIB (?C?CLDOPTR)
         COMMENT TYPE 1: A51 / ASM51 Assembler
  C:\KEIL\C51\LIB\C51L.LIB (?C?CSTPTR)
         COMMENT TYPE 1: A51 / ASM51 Assembler
  C:\KEIL\C51\LIB\C51L.LIB (?C?CSTOPTR)
         COMMENT TYPE 1: A51 / ASM51 Assembler
  C:\KEIL\C51\LIB\C51L.LIB (?C?UIDIV)
         COMMENT TYPE 1: A51 / ASM51 Assembler
  C:\KEIL\C51\LIB\C51L.LIB (?C?ILDIX)
         COMMENT TYPE 1: A51 / ASM51 Assembler
  C:\KEIL\C51\LIB\C51L.LIB (?C?LMUL)
         COMMENT TYPE 1: A51 / ASM51 Assembler
  C:\KEIL\C51\LIB\C51L.LIB (?C?ULDIV)
         COMMENT TYPE 1: A51 / ASM51 Assembler
  C:\KEIL\C51\LIB\C51L.LIB (?C?ULCMP)
         COMMENT TYPE 1: A51 / ASM51 Assembler
  C:\KEIL\C51\LIB\C51L.LIB (?C?ULSHR)
         COMMENT TYPE 1: A51 / ASM51 Assembler
  C:\KEIL\C51\LIB\C51L.LIB (?C?LSHL)
         COMMENT TYPE 1: A51 / ASM51 Assembler
  C:\KEIL\C51\LIB\C51L.LIB (?C?LSTXDATA)
         COMMENT TYPE 1: A51 / ASM51 Assembler
  C:\KEIL\C51\LIB\C51L.LIB (?C?LSTKXDATA)
         COMMENT TYPE 1: A51 / ASM51 Assembler
  C:\KEIL\C51\LIB\C51L.LIB (?C?CCASE)
         COMMENT TYPE 1: A51 / ASM51 Assembler
  C:\KEIL\C51\LIB\C51L.LIB (?C?ICASE)
         COMMENT TYPE 1: A51 / ASM51 Assembler
  C:\KEIL\C51\LIB\C51L.LIB (?C?ICALL)
         COMMENT TYPE 1: A51 / ASM51 Assembler
  C:\KEIL\C51\LIB\C51L.LIB (?C?LIMUL)
         COMMENT TYPE 1: A51 / ASM51 Assembler
  C:\KEIL\C51\LIB\C51L.LIB (?C_INIT)
         COMMENT TYPE 1: A51 / ASM51 Assembler


ACTIVE MEMORY CLASSES OF MODULE:  OUT\FW (MAIN)

BASE        START       END         USED      MEMORY CLASS
==========================================================
X:000000H   X:004C80H   X:004EFFH   00025AH   XDATA
C:000000H   C:000000H   C:00FFFFH   003EE0H   CODE
I:000000H   I:000010H   I:00007FH   00001EH   DATA
I:000000H   I:000080H   I:0000CFH   000001H   IDATA
I:000020H.0 I:000020H.0 I:00002FH.7 000000H.2 BIT
C:000000H   C:000000H   C:00FFFFH   00000AH   CONST


MEMORY MAP OF MODULE:  OUT\FW (MAIN)


START     STOP      LENGTH    ALIGN  RELOC    MEMORY CLASS   SEGMENT NAME
=========================================================================

* * * * * * * * * * *   D A T A   M E M O R Y   * * * * * * * * * * * * *
000000H   000007H   000008H   ---    AT..     DATA           "REG BANK 0"
000008H   00000FH   000008H   ---    ---      **GAP**
000010H   000016H   000007H   BYTE   UNIT     DATA           ?DT?_DMEMCPY?YC_UTILITIES
000017H   00001CH   000006H   BYTE   UNIT     DATA           ?DT?_XMEMCPY?YC_UTILITIES
00001DH   00001EH   000002H   BYTE   UNIT     DATA           ?DT?_XMEMSET?YC_UTILITIES
00001FH   00001FH   000001H   BYTE   UNIT     DATA           ?DT?YC_UTILTIMERPROCESS?YC_SYS
000020H.0 000020H.0 000000H.1 BIT    UNIT     BIT            ?BI?CS_SCALE_POWERONPROC?CS_SCALE_PROC
000020H.1 000020H.1 000000H.1 BIT    UNIT     BIT            ?BI?CS_SCALE_PROC
000020H.2 000020H   000000H.6 ---    ---      **GAP**
000021H   000026H   000006H   BYTE   UNIT     DATA           ?DT?_CMEMCPY?YC_UTILITIES
000027H   0000CFH   0000A9H   ---    ---      **GAP**
0000D0H   0000D0H   000001H   BYTE   UNIT     IDATA          ?STACK

* * * * * * * * * * *   C O D E   M E M O R Y   * * * * * * * * * * * * *
000000H   000002H   000003H   ---    OFFS..   CODE           ?CO??C_STARTUP?0
000003H   0003F4H   0003F2H   BYTE   UNIT     CODE           ?C?LIB_CODE
0003F5H   000480H   00008CH   BYTE   UNIT     CODE           ?C_C51STARTUP
000481H   0004B7H   000037H   BYTE   UNIT     CODE           ?C_INITSEG
0004B8H   0004C1H   00000AH   BYTE   UNIT     CONST          ?CO?CS_COMMTO1186
0004C2H   0004E4H   000023H   BYTE   UNIT     CODE           ?PR?MAIN?MAIN
0004E5H   00052CH   000048H   BYTE   UNIT     CODE           ?PR?CS_SCALE_1186COM?CS_COMMTO1186
00052DH   000591H   000065H   BYTE   UNIT     CODE           ?PR?CS_1186COM_SETLCD_PROC?CS_COMMTO1186
000592H   0005A1H   000010H   BYTE   UNIT     CODE           ?PR?YC_UARTCLEARBUFFER?YC_PERIPHERAL
0005A2H   0005E1H   000040H   BYTE   UNIT     CODE           ?PR?SYSSTATUSPROCESS?SYSTEM
0005E2H   00065AH   000079H   BYTE   UNIT     CODE           ?PR?CS_1186COM_READTIME_PROC?CS_COMMTO1186
00065BH   00066CH   000012H   BYTE   UNIT     CODE           ?PR?YC_UARTWAITSENDDATA?YC_PERIPHERAL
00066DH   000700H   000094H   BYTE   UNIT     CODE           ?PR?CS_1186COM_SETSLEEPMODE_PROC?CS_COMMTO1186
000701H   00071AH   00001AH   BYTE   UNIT     CODE           ?PR?CS_1186COM_RESET_PROC?CS_COMMTO1186
00071BH   0007A7H   00008DH   BYTE   UNIT     CODE           ?PR?CS_1186COM_SETOPENWEIGHT_PROC?CS_COMMTO1186
0007A8H   0008F2H   00014BH   BYTE   UNIT     CODE           ?PR?_YC_UARTRECIVEDATAEXPECTED?YC_PERIPHERAL
0008F3H   000936H   000044H   BYTE   UNIT     CODE           ?PR?SOFTTIMER_10MSCALLBACK?SYSTEM
000937H   000A37H   000101H   BYTE   UNIT     CODE           ?PR?CS_KEYSCAN?CS_SCALEKEY
000A38H   000F14H   0004DDH   BYTE   UNIT     CODE           ?PR?_CS_SCALE_CALIPROC?CS_SCALE_PROC
000F15H   000F52H   00003EH   BYTE   UNIT     CODE           ?PR?_CS_SOFTTIMER?CS_SCALE_PROC
000F53H   000F72H   000020H   BYTE   UNIT     CODE           ?PR?CS_SCALE_CHANGEUNIT?CS_SCALE_PROC
000F73H   000FA7H   000035H   BYTE   UNIT     CODE           ?PR?CS_SCALEDISPLAY_STEADYFLASH?CS_SCALEDISPLAY
000FA8H   000FC2H   00001BH   BYTE   UNIT     CODE           ?PR?CS_SCALEDISPLAY_LCDSHOWNODIGIT?CS_SCALEDISPLAY
000FC3H   000FEBH   000029H   BYTE   UNIT     CODE           ?PR?CS_SCALEDISPLAY_LCDRESTORE?CS_SCALEDISPLAY
000FECH   001082H   000097H   BYTE   UNIT     CODE           ?PR?SYSTEMINIT?SYSTEM
001083H   0010B7H   000035H   BYTE   UNIT     CODE           ?PR?_YC_GPIOGETINPUTSTATUS?YC_PERIPHERAL
0010B8H   00117AH   0000C3H   BYTE   UNIT     CODE           ?PR?YC_UTILTIMERINIT?YC_SYS
00117BH   0012B9H   00013FH   BYTE   UNIT     CODE           ?PR?_YC_UTILTIMERSTARTMS?YC_SYS
0012BAH   0012EFH   000036H   BYTE   UNIT     CODE           ?PR?CS_SCALE_POWERON?CS_SCALE_PROC
0012F0H   001538H   000249H   BYTE   UNIT     CODE           ?PR?_CS_SCALE_ZEROPROC?CS_SCALE_PROC
001539H   0015F7H   0000BFH   BYTE   UNIT     CODE           ?PR?CS_SCALEDISPLAY?CS_SCALEDISPLAY
0015F8H   0017CAH   0001D3H   BYTE   UNIT     CODE           ?PR?_CS_SCALEDISPLAY_FRESHBUF?CS_SCALEDISPLAY
0017CBH   0017DAH   000010H   BYTE   UNIT     CODE           ?PR?_CS_SCALEDISPLAY_LOOKUPTABLE?CS_SCALEDISPLAY
0017DBH   0017E4H   00000AH   BYTE   UNIT     CODE           ?PR?QUEUEINIT?LXPROTOCOL
0017E5H   0017F6H   000012H   BYTE   UNIT     CODE           ?PR?_CS_SCALE_JUDGELOWBAT?CS_SCALE_PROC
0017F7H   001821H   00002BH   BYTE   UNIT     CODE           ?PR?_GENERATECHECKSUM?SYSTEM
001822H   0018A6H   000085H   BYTE   UNIT     CODE           ?PR?BTCONTROLPROCESS?SYSTEM
0018A7H   0019E8H   000142H   BYTE   UNIT     CODE           ?PR?_LXRECVDATAFROMAPP?LXPROTOCOL
0019E9H   0019F1H   000009H   BYTE   UNIT     CODE           ?PR?_CHANGELXOPTSTATUS?LXPROTOCOL
0019F2H   001AACH   0000BBH   BYTE   UNIT     CODE           ?PR?_BIGLITTLEENDIANSWAP?LXPROTOCOL
001AADH   001DA8H   0002FCH   BYTE   UNIT     CODE           ?PR?LXOPTPROCESS?LXPROTOCOL
001DA9H   001DEBH   000043H   BYTE   UNIT     CODE           ?PR?_LXSETTINGDEVICERESPONE?LXPROTOCOL
001DECH   001E03H   000018H   BYTE   UNIT     CODE           ?PR?_YC_DELAY10MS?YC_UTILITIES
001E04H   001F24H   000121H   BYTE   UNIT     CODE           ?PR?_BT_CMDFIFOIN?BT_IPC
001F25H   001F58H   000034H   BYTE   UNIT     CODE           ?PR?_DMEMCPY?YC_UTILITIES
001F59H   001F8AH   000032H   BYTE   UNIT     CODE           ?PR?_LXSENDRECVDATAACK?LXPROTOCOL
001F8BH   001FA8H   00001EH   BYTE   UNIT     CODE           ?PR?_XMEMSET?YC_UTILITIES
001FA9H   001FC6H   00001EH   BYTE   UNIT     CODE           ?PR?DELUSERDATA?LXPROTOCOL
001FC7H   00200EH   000048H   BYTE   UNIT     CODE           ?PR?_SPIFLASHOPERATOR?LXPROTOCOL
00200FH   0020CFH   0000C1H   BYTE   UNIT     CODE           ?PR?_SPIFLASHWRITE?SPIFLASH
0020D0H   0020E1H   000012H   BYTE   UNIT     CODE           ?PR?SPIFLASHWAITBUSY?SPIFLASH
0020E2H   002157H   000076H   BYTE   UNIT     CODE           ?PR?_SPIFLASHERASESECTOR?SPIFLASH
002158H   002183H   00002CH   BYTE   UNIT     CODE           ?PR?SPIFLASHWRITEENABLE?SPIFLASH
002184H   00219BH   000018H   BYTE   UNIT     CODE           ?PR?_YC_DELAY1MS?YC_UTILITIES
00219CH   0021E5H   00004AH   BYTE   UNIT     CODE           ?PR?SPIFLASHREADSR?SPIFLASH
0021E6H   00223EH   000059H   BYTE   UNIT     CODE           ?PR?_YC_UTILTIMERSTOP?YC_SYS
00223FH   002381H   000143H   BYTE   UNIT     CODE           ?PR?YC_UTILTIMERPROCESS?YC_SYS
002382H   002480H   0000FFH   BYTE   UNIT     CODE           ?PR?_YC_UARTSENDDATA?YC_PERIPHERAL
002481H   002784H   000304H   BYTE   UNIT     CODE           ?PR?_CS_COMMTO1186_SENDCMD?CS_COMMTO1186
002785H   0027DEH   00005AH   BYTE   UNIT     CODE           ?PR?_CS_COMMTO1186_XOR?CS_COMMTO1186
0027DFH   002879H   00009BH   BYTE   UNIT     CODE           ?PR?_SPIFLASHREAD?SPIFLASH
00287AH   00297CH   000103H   BYTE   UNIT     CODE           ?PR?_BT_EVENTFIFOOUT?BT_IPC
00297DH   0029AAH   00002EH   BYTE   UNIT     CODE           ?PR?BT_GETEVTFIFODEPTH?BT_IPC
0029ABH   0029D8H   00002EH   BYTE   UNIT     CODE           ?PR?BT_GETCMDFIFODEPTH?BT_IPC
0029D9H   0029E1H   000009H   BYTE   UNIT     CODE           ?PR?BT_CMDFIFOEMPTY?BT_IPC
0029E2H   002A16H   000035H   BYTE   UNIT     CODE           ?PR?_BT_CMDFIFOFULL?BT_IPC
002A17H   002A1DH   000007H   BYTE   UNIT     CODE           ?PR?YC_ICE_BREAK?YC_UTILITIES
002A1EH   002A54H   000037H   BYTE   UNIT     CODE           ?PR?_XMEMCPY?YC_UTILITIES
002A55H   002A8BH   000037H   BYTE   UNIT     CODE           ?PR?_CMEMCPY?YC_UTILITIES
002A8CH   002AE1H   000056H   BYTE   UNIT     CODE           ?PR?_YC_MEMCHECKEMPTY?YC_UTILITIES
002AE2H   002B07H   000026H   BYTE   UNIT     CODE           ?PR?_YC_DELAY1S?YC_UTILITIES
002B08H   002B6DH   000066H   BYTE   UNIT     CODE           ?PR?CS_SCALE_PROC?CS_SCALE_PROC
002B6EH   002C01H   000094H   BYTE   UNIT     CODE           ?PR?_CS_SCALE_STANDBYPROC?CS_SCALE_PROC
002C02H   002D20H   00011FH   BYTE   UNIT     CODE           ?PR?_CS_SCALE_TIMEOUTPROC?CS_SCALE_PROC
002D21H   002D2BH   00000BH   BYTE   UNIT     CODE           ?PR?_CS_SCALE_1186COMSEND?CS_COMMTO1186
002D2CH   002E0EH   0000E3H   BYTE   UNIT     CODE           ?PR?CS_SCALE_POWERONPROC?CS_SCALE_PROC
002E0FH   002E14H   000006H   BYTE   UNIT     CODE           ?PR?CS_IF1186COMSUCESS?CS_COMMTO1186
002E15H   002EBBH   0000A7H   BYTE   UNIT     CODE           ?PR?_CS_SCALE_STEADYPROC?CS_SCALE_PROC
002EBCH   002F23H   000068H   BYTE   UNIT     CODE           ?PR?CS_SCALE_RETURNLOCK?CS_SCALE_PROC
002F24H   002F4DH   00002AH   BYTE   UNIT     CODE           ?PR?CS_SCALE_WEIGHTPROC?CS_SCALE_PROC
002F4EH   0030B6H   000169H   BYTE   UNIT     CODE           ?PR?_CS_SCALE_JUDGESTEADY?CS_SCALE_PROC
0030B7H   003117H   000061H   BYTE   UNIT     CODE           ?PR?_CS_SCALE_GETDELTAAD?CS_SCALE_PROC
003118H   0034C7H   0003B0H   BYTE   UNIT     CODE           ?PR?_CS_SCALE_ADCFILTER?CS_SCALE_PROC
0034C8H   003618H   000151H   BYTE   UNIT     CODE           ?PR?_CS_SCALE_GETWEIGHT?CS_SCALE_PROC
003619H   003686H   00006EH   BYTE   UNIT     CODE           ?PR?_CS_SCALE_LOCKPROC?CS_SCALE_PROC
003687H   0036D1H   00004BH   BYTE   UNIT     CODE           ?PR?_CS_SCALE_JUDGEOVERLOAD?CS_SCALE_PROC
0036D2H   003707H   000036H   BYTE   UNIT     CODE           ?PR?_CS_MEMORYWEIGHTCLEAR_TIMER?CS_SCALE_PROC
003708H   0037BBH   0000B4H   BYTE   UNIT     CODE           ?PR?CS_1186COM_READMACADRESS_PROC?CS_COMMTO1186
0037BCH   003891H   0000D6H   BYTE   UNIT     CODE           ?PR?CS_1186COM_READADC_PROC?CS_COMMTO1186
003892H   003942H   0000B1H   BYTE   UNIT     CODE           ?PR?CS_1186COM_READADZERO_PROC?CS_COMMTO1186
003943H   003993H   000051H   BYTE   UNIT     CODE           ?PR?CS_SCALEDISPLAY_DEBUG?CS_SCALEDISPLAY
003994H   0039FEH   00006BH   BYTE   UNIT     CODE           ?PR?_CS_SCALEDISPLAY_HEXTOBCD?CS_SCALEDISPLAY
0039FFH   003A95H   000097H   BYTE   UNIT     CODE           ?PR?CS_SCALEDISPLAY_LCDBUF_RSHIFT4?CS_SCALEDISPLAY
003A96H   003AA3H   00000EH   BYTE   UNIT     CODE           ?PR?CS_SCALEDISPLAY_LCDSHOWNULL?CS_SCALEDISPLAY
003AA4H   003AB2H   00000FH   BYTE   UNIT     CODE           ?PR?CS_SCALEDISPLAY_LCDSHOWALL?CS_SCALEDISPLAY
003AB3H   003ADBH   000029H   BYTE   UNIT     CODE           ?PR?CS_SCALEDISPLAY_LCDBACKUP?CS_SCALEDISPLAY
003ADCH   003D35H   00025AH   BYTE   UNIT     CODE           ?PR?SENDHISTORYDATA?LXPROTOCOL
003D36H   003D8FH   00005AH   BYTE   UNIT     CODE           ?PR?QUEUEPOP?LXPROTOCOL
003D90H   003DEDH   00005EH   BYTE   UNIT     CODE           ?PR?_QUEUEPUSH?LXPROTOCOL
003DEEH   003EE9H   0000FCH   BYTE   UNIT     CODE           ?PR?_CAL_CRC32_MULTIPLE?CRC32

* * * * * * * * * * *  X D A T A   M E M O R Y  * * * * * * * * * * * * *
004A00H   004A01H   000002H   BYTE   OFFS..   XDATA          ?XD?RETATION_VARIABLE?10
004A02H   004A03H   000002H   BYTE   OFFS..   XDATA          ?XD?RETATION_VARIABLE?11
004A04H   004A05H   000002H   BYTE   OFFS..   XDATA          ?XD?RETATION_VARIABLE?5
004A06H   004A07H   000002H   BYTE   OFFS..   XDATA          ?XD?RETATION_VARIABLE?6
004A08H   004BFFH   0001F8H   ---    ---      **GAP**
004C00H   004C05H   000006H   BYTE   OFFS..   XDATA          ?XD?RETATION_VARIABLE?3
004C06H   004C0FH   00000AH   BYTE   OFFS..   XDATA          ?XD?RETATION_VARIABLE?1
004C10H   004C4EH   00003FH   BYTE   OFFS..   XDATA          ?XD?RETATION_VARIABLE?8
004C4FH   004C58H   00000AH   ---    ---      **GAP**
004C59H   004C59H   000001H   BYTE   OFFS..   XDATA          ?XD?RETATION_VARIABLE?7
004C5AH   004C5AH   000001H   BYTE   OFFS..   XDATA          ?XD?RETATION_VARIABLE?9
004C5BH   004C5BH   000001H   BYTE   OFFS..   XDATA          ?XD?RETATION_VARIABLE?13
004C5CH   004C5CH   000001H   BYTE   OFFS..   XDATA          ?XD?RETATION_VARIABLE?4
004C5DH   004C5DH   000001H   BYTE   OFFS..   XDATA          ?XD?RETATION_VARIABLE?12
004C5EH   004C61H   000004H   BYTE   OFFS..   XDATA          ?XD?RETATION_VARIABLE?0
004C62H   004C62H   000001H   BYTE   OFFS..   XDATA          ?XD?RETATION_VARIABLE?14
004C63H   004C7BH   000019H   BYTE   OFFS..   XDATA          ?XD?RETATION_VARIABLE?2
004C7CH   004C7FH   000004H   ---    ---      **GAP**
004C80H   004CDAH   00005BH   BYTE   UNIT     XDATA          ?XD?CS_SCALE_PROC
004CDBH   004D17H   00003DH   BYTE   UNIT     XDATA          ?XD?YC_SYS
004D18H   004D44H   00002DH   BYTE   UNIT     XDATA          ?XD?CS_SCALEDISPLAY
004D45H   004D68H   000024H   BYTE   UNIT     XDATA          ?XD?CS_COMMTO1186
004D69H   004D81H   000019H   BYTE   UNIT     XDATA          ?XD?BTCONTROLPROCESS?SYSTEM
004D82H   004D90H   00000FH   BYTE   UNIT     XDATA          ?XD?_CS_COMMTO1186_SENDCMD?CS_COMMTO1186
004D91H   004D9FH   00000FH   BYTE   UNIT     XDATA          ?XD?_CAL_CRC32_MULTIPLE?CRC32
004DA0H   004DADH   00000EH   BYTE   UNIT     XDATA          ?XD?_CS_SCALE_GETWEIGHT?CS_SCALE_PROC
004DAEH   004DB7H   00000AH   BYTE   UNIT     XDATA          ?XD?_YC_UARTSENDDATA?YC_PERIPHERAL
004DB8H   004DC1H   00000AH   BYTE   UNIT     XDATA          ?XD?_BIGLITTLEENDIANSWAP?LXPROTOCOL
004DC2H   004DCBH   00000AH   BYTE   UNIT     XDATA          ?XD?SENDHISTORYDATA?LXPROTOCOL
004DCCH   004DD4H   000009H   BYTE   UNIT     XDATA          ?XD?_YC_UARTRECIVEDATAEXPECTED?YC_PERIPHERAL
004DD5H   004DDCH   000008H   BYTE   UNIT     XDATA          ?XD?_YC_UTILTIMERSTARTMS?YC_SYS
004DDDH   004DE4H   000008H   BYTE   UNIT     XDATA          ?XD?_SPIFLASHWRITE?SPIFLASH
004DE5H   004DECH   000008H   BYTE   UNIT     XDATA          ?XD?_SPIFLASHREAD?SPIFLASH
004DEDH   004DF4H   000008H   BYTE   UNIT     XDATA          ?XD?_CS_SCALE_ZEROPROC?CS_SCALE_PROC
004DF5H   004DFCH   000008H   BYTE   UNIT     XDATA          ?XD?_CS_SCALE_CALIPROC?CS_SCALE_PROC
004DFDH   004E04H   000008H   BYTE   UNIT     XDATA          ?XD?CS_SCALEKEY
004E05H   004E0BH   000007H   BYTE   UNIT     XDATA          ?XD?_BT_CMDFIFOIN?BT_IPC
004E0CH   004E12H   000007H   BYTE   UNIT     XDATA          ?XD?_CS_SCALE_ADCFILTER?CS_SCALE_PROC
004E13H   004E18H   000006H   BYTE   UNIT     XDATA          ?XD?_CS_SCALE_STEADYPROC?CS_SCALE_PROC
004E19H   004E1EH   000006H   BYTE   UNIT     XDATA          ?XD?_CS_SCALEDISPLAY_HEXTOBCD?CS_SCALEDISPLAY
004E1FH   004E24H   000006H   BYTE   UNIT     XDATA          ?XD?_LXRECVDATAFROMAPP?LXPROTOCOL
004E25H   004E29H   000005H   BYTE   UNIT     XDATA          ?XD?_BT_EVENTFIFOOUT?BT_IPC
004E2AH   004E2EH   000005H   BYTE   UNIT     XDATA          ?XD?CS_SCALEDISPLAY_DEBUG?CS_SCALEDISPLAY
004E2FH   004E32H   000004H   BYTE   UNIT     XDATA          ?XD?_SPIFLASHERASESECTOR?SPIFLASH
004E33H   004E36H   000004H   BYTE   UNIT     XDATA          ?XD?_YC_MEMCHECKEMPTY?YC_UTILITIES
004E37H   004E3AH   000004H   BYTE   UNIT     XDATA          ?XD?_CS_SCALE_JUDGESTEADY?CS_SCALE_PROC
004E3BH   004E3EH   000004H   BYTE   UNIT     XDATA          ?XD?CRC32
004E3FH   004E41H   000003H   BYTE   UNIT     XDATA          ?XD?SYSTEM
004E42H   004E44H   000003H   BYTE   UNIT     XDATA          ?XD?_GENERATECHECKSUM?SYSTEM
004E45H   004E47H   000003H   BYTE   UNIT     XDATA          ?XD?_BT_CMDFIFOFULL?BT_IPC
004E48H   004E4AH   000003H   BYTE   UNIT     XDATA          ?XD?_CS_SCALE_GETDELTAAD?CS_SCALE_PROC
004E4BH   004E4DH   000003H   BYTE   UNIT     XDATA          ?XD?CS_1186COM_READMACADRESS_PROC?CS_COMMTO1186
004E4EH   004E50H   000003H   BYTE   UNIT     XDATA          ?XD?_CS_COMMTO1186_XOR?CS_COMMTO1186
004E51H   004E53H   000003H   BYTE   UNIT     XDATA          ?XD?QUEUEPOP?LXPROTOCOL
004E54H   004E56H   000003H   BYTE   UNIT     XDATA          ?XD?_QUEUEPUSH?LXPROTOCOL
004E57H   004E58H   000002H   BYTE   UNIT     XDATA          ?XD?CS_SCALE_RETURNLOCK?CS_SCALE_PROC
004E59H   004E59H   000001H   BYTE   UNIT     XDATA          ?XD?YC_UTILTIMERINIT?YC_SYS
004E5AH   004E5AH   000001H   BYTE   UNIT     XDATA          ?XD?SPIFLASHREADSR?SPIFLASH
004E5BH   004E5BH   000001H   BYTE   UNIT     XDATA          ?XD?_CS_SCALEDISPLAY_FRESHBUF?CS_SCALEDISPLAY
004E5CH   004E5CH   000001H   BYTE   UNIT     XDATA          ?XD?RETATION_VARIABLE
004E5DH   004E5DH   000001H   BYTE   UNIT     XDATA          ?XD?LXOPTPROCESS?LXPROTOCOL
004E5EH   004E5EH   000001H   BYTE   UNIT     XDATA          ?XD?LXPROTOCOL
004E5FH   004E5FH   000001H   BYTE   UNIT     XDATA          ?XD?_SPIFLASHOPERATOR?LXPROTOCOL



PUBLIC SYMBOLS OF MODULE:  OUT\FW (MAIN)


      VALUE       CLASS    TYPE      PUBLIC SYMBOL NAME
      =================================================
      02004D91H   XDATA    BYTE      ?_cal_crc32_multiple?BYTE
      00000021H   DATA     BYTE      ?_cmemcpy?BYTE
      00000010H   DATA     BYTE      ?_dmemcpy?BYTE
      02004DE5H   XDATA    BYTE      ?_SPIFlashRead?BYTE
      02004DDDH   XDATA    BYTE      ?_SPIFlashWrite?BYTE
      00000017H   DATA     BYTE      ?_xmemcpy?BYTE
      02004DD5H   XDATA    BYTE      ?_YC_UtilTimerStartMs?BYTE
      0100036FH   CODE     ---       ?C?CCASE
      01000112H   CODE     ---       ?C?CLDOPTR
      010000F9H   CODE     ---       ?C?CLDPTR
      00000000H   NUMBER   ---       ?C?CODESEG
      010000D3H   CODE     ---       ?C?COPY
      01000151H   CODE     ---       ?C?CSTOPTR
      0100013FH   CODE     ---       ?C?CSTPTR
      010003C2H   CODE     ---       ?C?ICALL
      010003C6H   CODE     ---       ?C?ICALL2
      01000395H   CODE     ---       ?C?ICASE
      010001C8H   CODE     ---       ?C?ILDIX
      010003C8H   CODE     ---       ?C?LIMUL
      010001DEH   CODE     ---       ?C?LMUL
      0100031FH   CODE     ---       ?C?LSHL
      0100033EH   CODE     ---       ?C?LSTKXDATA
      01000332H   CODE     ---       ?C?LSTXDATA
      01000173H   CODE     ---       ?C?UIDIV
      010002FBH   CODE     ---       ?C?ULCMP
      01000269H   CODE     ---       ?C?ULDIV
      0100030CH   CODE     ---       ?C?ULSHR
      00000000H   NUMBER   ---       ?C?XDATASEG
      0100043CH   CODE     ---       ?C_START
      01000000H   CODE     ---       ?C_STARTUP
      00000020H.0 BIT      BIT       ?CS_Scale_PowerOnProc?BIT
      010029E2H   CODE     ---       _BT_CmdFifoFull
      01001E04H   CODE     ---       _BT_CmdFifoIn
      0100287AH   CODE     ---       _BT_EventFifoOut
      01003DEEH   CODE     ---       _cal_crc32_multiple
      010019E9H   CODE     ---       _changeLxOptStatus
      01002A55H   CODE     ---       _cmemcpy
      01002481H   CODE     ---       _CS_CommTo1186_SendCmd
      01002785H   CODE     ---       _CS_CommTo1186_Xor
      010036D2H   CODE     ---       _CS_MemoryWeightClear_Timer
      01002D21H   CODE     ---       _CS_Scale_1186ComSend
      01003118H   CODE     ---       _CS_Scale_AdcFilter
      01000A38H   CODE     ---       _CS_Scale_CaliProc
      010030B7H   CODE     ---       _CS_Scale_GetDeltaAD
      010034C8H   CODE     ---       _CS_Scale_GetWeight
      010017E5H   CODE     ---       _CS_Scale_JudgeLowBat
      01003687H   CODE     ---       _CS_Scale_JudgeOverLoad
      01002F4EH   CODE     ---       _CS_Scale_JudgeSteady
      01003619H   CODE     ---       _CS_Scale_LockProc
      01002B6EH   CODE     ---       _CS_Scale_StandbyProc
      01002E15H   CODE     ---       _CS_Scale_SteadyProc
      01002C02H   CODE     ---       _CS_Scale_TimeOutProc
      010012F0H   CODE     ---       _CS_Scale_ZeroProc
      010015F8H   CODE     ---       _CS_ScaleDisplay_FreshBuf
      01003994H   CODE     ---       _CS_ScaleDisplay_HexToBcd
      010017CBH   CODE     ---       _CS_ScaleDisplay_LookUpTable
      01000F15H   CODE     ---       _CS_SoftTimer
      01001F25H   CODE     ---       _dmemcpy
      010017F7H   CODE     ---       _generateChecksum
      010018A7H   CODE     ---       _lxRecvDataFromApp
      01003D90H   CODE     ---       _QueuePush
      010020E2H   CODE     ---       _SPIFlashEraseSector
      01001FC7H   CODE     ---       _SpiFlashOperator
      010027DFH   CODE     ---       _SPIFlashRead
      0100200FH   CODE     ---       _SPIFlashWrite
      01002A1EH   CODE     ---       _xmemcpy
      01001F8BH   CODE     ---       _xmemset
      01001DECH   CODE     ---       _YC_Delay10ms
      01002184H   CODE     ---       _YC_Delay1ms
      01002AE2H   CODE     ---       _YC_Delay1S
      01001083H   CODE     ---       _YC_GPIOGetInputStatus
      01002A8CH   CODE     ---       _YC_MemCheckEmpty
      010007A8H   CODE     ---       _YC_UARTReciveDataExpected
      01002382H   CODE     ---       _YC_UARTSendData
      0100117BH   CODE     ---       _YC_UtilTimerStartMs
      010021E6H   CODE     ---       _YC_UtilTimerStop
      00000020H.1 BIT      BIT       B_Debug_Test
      02004CD7H   XDATA    BYTE      B_Weight_AdOk
      02004C5BH   XDATA    BYTE      bleConnStatus
      010029D9H   CODE     ---       BT_CmdFifoEmpty
      02004A00H   XDATA    WORD      BT_CmdRptr
      02004A02H   XDATA    WORD      BT_CmdWptr
      02004A04H   XDATA    WORD      BT_EventRptr
      02004A06H   XDATA    WORD      BT_EventWptr
      010029ABH   CODE     ---       BT_GetCmdFifoDepth
      0100297DH   CODE     ---       BT_GetEvtFifoDepth
      02004C63H   XDATA    ---       btCmdBuf
      01001822H   CODE     ---       BTControlProcess
      010037BCH   CODE     ---       CS_1186Com_ReadAdc_Proc
      01003892H   CODE     ---       CS_1186Com_ReadAdZero_Proc
      01003708H   CODE     ---       CS_1186Com_ReadMacAdress_Proc
      010005E2H   CODE     ---       CS_1186Com_ReadTime_Proc
      01000701H   CODE     ---       CS_1186Com_Reset_Proc
      0100052DH   CODE     ---       CS_1186Com_SetLcd_Proc
      0100071BH   CODE     ---       CS_1186Com_SetOpenWeight_Proc
      0100066DH   CODE     ---       CS_1186Com_SetSleepMode_Proc
      01002E0FH   CODE     ---       CS_If1186ComSucess
      01000937H   CODE     ---       CS_KeyScan
      02004D28H   XDATA    ---       CS_Lcd_Send_Data
      02004D1DH   XDATA    ---       CS_Lcd_Send_Data_BAK
      02004D23H   XDATA    ---       CS_lcd_showbuf
      02004D2EH   XDATA    ---       CS_Lcd_Table
      010004E5H   CODE     ---       CS_Scale_1186Com
      01000F53H   CODE     ---       CS_Scale_ChangeUnit
      010012BAH   CODE     ---       CS_Scale_PowerOn
      01002D2CH   CODE     ---       CS_Scale_PowerOnProc
      01002B08H   CODE     ---       CS_Scale_Proc
      01002EBCH   CODE     ---       CS_Scale_ReturnLock
      01002F24H   CODE     ---       CS_Scale_WeightProc
      01001539H   CODE     ---       CS_ScaleDisplay
      01003943H   CODE     ---       CS_ScaleDisplay_Debug
      01003AB3H   CODE     ---       CS_ScaleDisplay_LcdBackup
      010039FFH   CODE     ---       CS_ScaleDisplay_LcdBuf_rShift4
      01000FC3H   CODE     ---       CS_ScaleDisplay_LcdRestore
      01003AA4H   CODE     ---       CS_ScaleDisplay_LcdShowAll
      01000FA8H   CODE     ---       CS_ScaleDisplay_LcdShowNoDigit
      01003A96H   CODE     ---       CS_ScaleDisplay_LcdShowNull
      01000F73H   CODE     ---       CS_ScaleDisplay_SteadyFlash
      02004C06H   XDATA    ---       deviceInfo
      02004C5DH   XDATA    BYTE      handleIndicationConfirm
      02004C10H   XDATA    ---       historyUserData
      01001AADH   CODE     ---       lxOptProcess
      02004C5CH   XDATA    BYTE      lxOptStatus
      010004C2H   CODE     ---       main
      02004C59H   XDATA    BYTE      notifyValueUUIDA621
      02004C5AH   XDATA    BYTE      notifyValueUUIDA625
      010017DBH   CODE     ---       QueueInit
      02004CD3H   XDATA    ---       R_1186_RTC
      02004CDAH   XDATA    BYTE      R_1186sys_state
      02004CD8H   XDATA    WORD      R_AD_Original
      02004CC7H   XDATA    WORD      R_Debug_temp
      02004CC2H   XDATA    BYTE      R_Display_Err
      02004CC5H   XDATA    BYTE      R_Scale_state
      02004CC6H   XDATA    BYTE      R_Selet_Unit
      02004C62H   XDATA    BYTE      R_Test
      02004CC9H   XDATA    ---       R_UnitWeight
      02004D55H   XDATA    ---       R_Weight_Com_Coo
      02004CC0H   XDATA    WORD      R_Weight_Lock
      02004CC3H   XDATA    WORD      R_Weight_Mem
      02004C00H   XDATA    ---       sensor_data
      010008F3H   CODE     ---       SoftTimer_10mSCallback
      02004E41H   XDATA    BYTE      SoftTimer_10msTimerID
      02004E40H   XDATA    BYTE      SoftTimer_1STimerID
      0100219CH   CODE     ---       SPIFlashReadSR
      010020D5H   CODE     ---       SPIFlashWaitBusy
      01002158H   CODE     ---       SPIFlashWriteEnable
      02004E5CH   XDATA    BYTE      sys_state
      010005A2H   CODE     ---       SysStatusProcess
      01000FECH   CODE     ---       systemInit
      02004D45H   XDATA    ---       uartRcvBuf
      02004D68H   XDATA    BYTE      uartTimeoutCnt
      02004D58H   XDATA    ---       uartTxBuf
      02004C5EH   XDATA    LONG      UTCTime
      01002A17H   CODE     ---       YC_Ice_break
      01000592H   CODE     ---       YC_UARTClearBuffer
      0100065BH   CODE     ---       YC_UARTWaitSendData
      02004CDBH   XDATA    ---       YC_UtilTimer
      010010B8H   CODE     ---       YC_UtilTimerInit
      0100223FH   CODE     ---       YC_UtilTimerProcess



SYMBOL TABLE OF MODULE:  OUT\FW (MAIN)

      VALUE       REP       CLASS    TYPE      SYMBOL NAME
      ====================================================
      ---         MODULE    ---      ---       MAIN
      010004C2H   PUBLIC    CODE     ---       main

      010004C2H   BLOCK     CODE     ---       LVL=0
      010004C2H   LINE      ---      ---       #20
      010004C2H   LINE      ---      ---       #21
      010004C2H   LINE      ---      ---       #22
      010004C8H   LINE      ---      ---       #23
      010004CBH   LINE      ---      ---       #24
      010004CBH   LINE      ---      ---       #25
      010004CEH   LINE      ---      ---       #26
      010004D1H   LINE      ---      ---       #28
      010004D3H   LINE      ---      ---       #29
      010004DAH   LINE      ---      ---       #30
      010004DDH   LINE      ---      ---       #31
      010004DFH   LINE      ---      ---       #32
      010004E2H   LINE      ---      ---       #33
      010004E2H   LINE      ---      ---       #34
      ---         BLOCKEND  ---      ---       LVL=0

      ---         MODULE    ---      ---       SYSTEM
      02004E41H   PUBLIC    XDATA    BYTE      SoftTimer_10msTimerID
      02004E40H   PUBLIC    XDATA    BYTE      SoftTimer_1STimerID
      010005A2H   PUBLIC    CODE     ---       SysStatusProcess
      01001822H   PUBLIC    CODE     ---       BTControlProcess
      010017F7H   PUBLIC    CODE     ---       _generateChecksum
      01000FECH   PUBLIC    CODE     ---       systemInit
      010008F3H   PUBLIC    CODE     ---       SoftTimer_10mSCallback

      010008F3H   BLOCK     CODE     ---       LVL=0
      010008F3H   LINE      ---      ---       #44
      010008F3H   LINE      ---      ---       #45
      010008F3H   BLOCK     CODE     NEAR LAB  LVL=1
      010008F3H   LINE      ---      ---       #47
      0100090AH   LINE      ---      ---       #49
      01000913H   LINE      ---      ---       #50
      01000916H   LINE      ---      ---       #51
      01000916H   LINE      ---      ---       #54
      0100091FH   LINE      ---      ---       #55
      01000924H   LINE      ---      ---       #57
      01000924H   LINE      ---      ---       #58
      01000929H   LINE      ---      ---       #59
      0100092EH   LINE      ---      ---       #60
      01000933H   LINE      ---      ---       #61
      01000933H   LINE      ---      ---       #63
      02004E3FH   SYMBOL    XDATA    VOID      count
      ---         BLOCKEND  CODE     ---       LVL=1
      ---         BLOCKEND  CODE     ---       LVL=0

      01000FECH   BLOCK     CODE     ---       LVL=0
      01000FECH   LINE      ---      ---       #69
      01000FECH   LINE      ---      ---       #70
      01000FECH   LINE      ---      ---       #71
      01000FF1H   LINE      ---      ---       #72
      01000FF9H   LINE      ---      ---       #73
      01000FF9H   LINE      ---      ---       #74
      01000FFFH   LINE      ---      ---       #75
      01001004H   LINE      ---      ---       #77
      01001006H   LINE      ---      ---       #79
      0100100BH   LINE      ---      ---       #80
      01001010H   LINE      ---      ---       #81
      01001018H   LINE      ---      ---       #82
      01001018H   LINE      ---      ---       #83
      01001023H   LINE      ---      ---       #84
      01001023H   LINE      ---      ---       #85
      0100102BH   LINE      ---      ---       #87
      0100102DH   LINE      ---      ---       #89
      01001043H   LINE      ---      ---       #90
      01001045H   LINE      ---      ---       #92
      01001047H   LINE      ---      ---       #93
      01001047H   LINE      ---      ---       #94
      01001053H   LINE      ---      ---       #95
      01001053H   LINE      ---      ---       #96
      01001059H   LINE      ---      ---       #97
      0100105DH   LINE      ---      ---       #98
      0100105FH   LINE      ---      ---       #100
      01001075H   LINE      ---      ---       #106
      01001077H   LINE      ---      ---       #107
      01001077H   LINE      ---      ---       #108
      0100107DH   LINE      ---      ---       #109
      0100107DH   LINE      ---      ---       #110
      0100107DH   LINE      ---      ---       #111
      01001082H   LINE      ---      ---       #112
      ---         BLOCKEND  ---      ---       LVL=0

      010017F7H   BLOCK     CODE     ---       LVL=0
      010017F7H   LINE      ---      ---       #114
      01001802H   LINE      ---      ---       #115
      01001802H   BLOCK     CODE     NEAR LAB  LVL=1
      01001802H   LINE      ---      ---       #117
      01001804H   LINE      ---      ---       #118
      0100180AH   LINE      ---      ---       #119
      0100181FH   LINE      ---      ---       #120
      01001821H   LINE      ---      ---       #121
      01001821H   LINE      ---      ---       #122
      00000007H   SYMBOL    DATA     VOID      result
      ---         BLOCKEND  CODE     ---       LVL=1
      ---         BLOCKEND  CODE     ---       LVL=0

      01001822H   BLOCK     CODE     ---       LVL=0
      01001822H   LINE      ---      ---       #124
      01001822H   LINE      ---      ---       #125
      01001822H   BLOCK     CODE     NEAR LAB  LVL=1
      01001822H   LINE      ---      ---       #128
      0100182BH   LINE      ---      ---       #129
      01001831H   LINE      ---      ---       #130
      01001831H   LINE      ---      ---       #132
      01001845H   LINE      ---      ---       #133
      01001845H   LINE      ---      ---       #134
      01001845H   LINE      ---      ---       #135
      01001845H   LINE      ---      ---       #136
      0100184AH   LINE      ---      ---       #137
      0100184EH   LINE      ---      ---       #138
      01001852H   LINE      ---      ---       #139
      01001853H   LINE      ---      ---       #140
      01001853H   LINE      ---      ---       #141
      01001858H   LINE      ---      ---       #142
      0100185DH   LINE      ---      ---       #143
      0100185EH   LINE      ---      ---       #144
      0100185EH   LINE      ---      ---       #145
      01001866H   LINE      ---      ---       #146
      01001866H   LINE      ---      ---       #147
      01001866H   LINE      ---      ---       #148
      0100186EH   LINE      ---      ---       #149
      0100186EH   LINE      ---      ---       #150
      01001876H   LINE      ---      ---       #151
      01001878H   LINE      ---      ---       #152
      0100187CH   LINE      ---      ---       #153
      0100187CH   LINE      ---      ---       #154
      01001884H   LINE      ---      ---       #155
      01001884H   LINE      ---      ---       #157
      01001899H   LINE      ---      ---       #160
      01001899H   LINE      ---      ---       #161
      0100189FH   LINE      ---      ---       #162
      0100189FH   LINE      ---      ---       #163
      010018A0H   LINE      ---      ---       #164
      010018A0H   LINE      ---      ---       #165
      010018A0H   LINE      ---      ---       #166
      010018A0H   LINE      ---      ---       #167
      010018A6H   LINE      ---      ---       #168
      010018A6H   LINE      ---      ---       #169
      010018A6H   LINE      ---      ---       #170
      010018A6H   LINE      ---      ---       #171
      02004D69H   SYMBOL    XDATA    VOID      event
      ---         BLOCKEND  CODE     ---       LVL=1
      ---         BLOCKEND  CODE     ---       LVL=0

      010005A2H   BLOCK     CODE     ---       LVL=0
      010005A2H   LINE      ---      ---       #174
      010005A2H   LINE      ---      ---       #175
      010005A2H   LINE      ---      ---       #176
      010005A9H   LINE      ---      ---       #177
      010005AFH   LINE      ---      ---       #178
      010005AFH   LINE      ---      ---       #179
      010005B1H   LINE      ---      ---       #180
      010005B3H   LINE      ---      ---       #181
      010005B9H   LINE      ---      ---       #183
      010005BDH   LINE      ---      ---       #184
      010005C1H   LINE      ---      ---       #185
      010005CAH   LINE      ---      ---       #188
      010005CAH   LINE      ---      ---       #189
      010005CAH   LINE      ---      ---       #190
      010005D1H   LINE      ---      ---       #191
      010005D3H   LINE      ---      ---       #192
      010005D5H   LINE      ---      ---       #193
      010005DBH   LINE      ---      ---       #194
      010005DCH   LINE      ---      ---       #195
      010005DCH   LINE      ---      ---       #196
      010005E1H   LINE      ---      ---       #197
      010005E1H   LINE      ---      ---       #198
      ---         BLOCKEND  ---      ---       LVL=0

      ---         MODULE    ---      ---       YC_SYS
      02004CDBH   PUBLIC    XDATA    ---       YC_UtilTimer
      0100223FH   PUBLIC    CODE     ---       YC_UtilTimerProcess
      010021E6H   PUBLIC    CODE     ---       _YC_UtilTimerStop
      02004DD5H   PUBLIC    XDATA    BYTE      ?_YC_UtilTimerStartMs?BYTE
      0100117BH   PUBLIC    CODE     ---       _YC_UtilTimerStartMs
      010010B8H   PUBLIC    CODE     ---       YC_UtilTimerInit

      010010B8H   BLOCK     CODE     ---       LVL=0
      010010B8H   LINE      ---      ---       #8
      010010B8H   LINE      ---      ---       #9
      010010B8H   BLOCK     CODE     NEAR LAB  LVL=1
      010010B8H   LINE      ---      ---       #12
      010010BDH   LINE      ---      ---       #13
      0100113AH   LINE      ---      ---       #14
      01001149H   LINE      ---      ---       #15
      0100115DH   LINE      ---      ---       #16
      01001172H   LINE      ---      ---       #17
      0100117AH   LINE      ---      ---       #19
      02004E59H   SYMBOL    XDATA    VOID      i
      ---         BLOCKEND  CODE     ---       LVL=1
      ---         BLOCKEND  CODE     ---       LVL=0

      0100117BH   BLOCK     CODE     ---       LVL=0
      0100117BH   LINE      ---      ---       #44
      01001183H   LINE      ---      ---       #45
      01001183H   BLOCK     CODE     NEAR LAB  LVL=1
      01001183H   LINE      ---      ---       #46
      01001188H   LINE      ---      ---       #49
      0100118FH   LINE      ---      ---       #50
      01001191H   LINE      ---      ---       #51
      01001191H   LINE      ---      ---       #52
      0100119BH   LINE      ---      ---       #53
      010011ACH   LINE      ---      ---       #54
      010011B7H   LINE      ---      ---       #55
      010011BEH   LINE      ---      ---       #56
      010011C0H   LINE      ---      ---       #57
      010011C0H   LINE      ---      ---       #58
      010011C6H   LINE      ---      ---       #59
      010011C8H   LINE      ---      ---       #60
      010011E2H   LINE      ---      ---       #61
      010011F8H   LINE      ---      ---       #62
      010012B8H   LINE      ---      ---       #63
      010012B9H   LINE      ---      ---       #64
      02004DDCH   SYMBOL    XDATA    VOID      i
      ---         BLOCKEND  CODE     ---       LVL=1
      ---         BLOCKEND  CODE     ---       LVL=0

      010021E6H   BLOCK     CODE     ---       LVL=0
      010021E6H   LINE      ---      ---       #66
      010021E8H   LINE      ---      ---       #68
      010021FFH   LINE      ---      ---       #69
      01002201H   LINE      ---      ---       #70
      01002214H   LINE      ---      ---       #71
      01002228H   LINE      ---      ---       #72
      0100223DH   LINE      ---      ---       #73
      0100223EH   LINE      ---      ---       #74
      ---         BLOCKEND  ---      ---       LVL=0

      0100223FH   BLOCK     CODE     ---       LVL=0
      0100223FH   LINE      ---      ---       #76
      0100223FH   BLOCK     CODE     NEAR LAB  LVL=1
      0100223FH   LINE      ---      ---       #97
      010022BCH   LINE      ---      ---       #98
      010022BFH   LINE      ---      ---       #99
      010022D4H   LINE      ---      ---       #100
      01002340H   LINE      ---      ---       #101
      01002340H   LINE      ---      ---       #102
      01002358H   LINE      ---      ---       #103
      01002376H   LINE      ---      ---       #104
      01002376H   LINE      ---      ---       #105
      01002376H   LINE      ---      ---       #106
      01002381H   LINE      ---      ---       #109
      0000001FH   SYMBOL    DATA     VOID      i
      ---         BLOCKEND  CODE     ---       LVL=1
      ---         BLOCKEND  CODE     ---       LVL=0

      ---         MODULE    ---      ---       YC_PERIPHERAL
      01000592H   PUBLIC    CODE     ---       YC_UARTClearBuffer
      010007A8H   PUBLIC    CODE     ---       _YC_UARTReciveDataExpected
      0100065BH   PUBLIC    CODE     ---       YC_UARTWaitSendData
      01002382H   PUBLIC    CODE     ---       _YC_UARTSendData
      01001083H   PUBLIC    CODE     ---       _YC_GPIOGetInputStatus

      01001083H   BLOCK     CODE     ---       LVL=0
      01001083H   LINE      ---      ---       #140
      01001083H   LINE      ---      ---       #141
      01001083H   BLOCK     CODE     NEAR LAB  LVL=1
      01001083H   LINE      ---      ---       #144
      01001087H   LINE      ---      ---       #145
      0100108EH   LINE      ---      ---       #147
      010010B7H   LINE      ---      ---       #148
      00000006H   SYMBOL    DATA     VOID      queue
      00000007H   SYMBOL    DATA     VOID      group
      ---         BLOCKEND  CODE     ---       LVL=1
      ---         BLOCKEND  CODE     ---       LVL=0

      01002382H   BLOCK     CODE     ---       LVL=0
      01002382H   LINE      ---      ---       #351
      01002393H   LINE      ---      ---       #352
      01002393H   BLOCK     CODE     NEAR LAB  LVL=1
      01002393H   LINE      ---      ---       #354
      010023AFH   LINE      ---      ---       #356
      010023CDH   LINE      ---      ---       #357
      010023CDH   LINE      ---      ---       #358
      010023F2H   LINE      ---      ---       #360
      01002418H   LINE      ---      ---       #361
      01002418H   LINE      ---      ---       #362
      01002425H   LINE      ---      ---       #363
      01002436H   LINE      ---      ---       #365
      01002452H   LINE      ---      ---       #366
      01002452H   LINE      ---      ---       #367
      01002462H   LINE      ---      ---       #369
      01002480H   LINE      ---      ---       #371
      02004DB3H   SYMBOL    XDATA    VOID      i
      02004DB5H   SYMBOL    XDATA    VOID      twptr
      ---         BLOCKEND  CODE     ---       LVL=1
      ---         BLOCKEND  CODE     ---       LVL=0

      0100065BH   BLOCK     CODE     ---       LVL=0
      0100065BH   LINE      ---      ---       #373
      0100065BH   LINE      ---      ---       #374
      0100065BH   LINE      ---      ---       #375
      0100066CH   LINE      ---      ---       #376
      ---         BLOCKEND  ---      ---       LVL=0

      010007A8H   BLOCK     CODE     ---       LVL=0
      010007A8H   LINE      ---      ---       #378
      010007B9H   LINE      ---      ---       #379
      010007B9H   BLOCK     CODE     NEAR LAB  LVL=1
      010007B9H   LINE      ---      ---       #380
      010007BEH   LINE      ---      ---       #381
      010007D4H   LINE      ---      ---       #383
      010007EFH   LINE      ---      ---       #384
      010007EFH   LINE      ---      ---       #385
      010007F3H   LINE      ---      ---       #386
      010007F3H   LINE      ---      ---       #388
      01000811H   LINE      ---      ---       #389
      01000811H   LINE      ---      ---       #390
      0100083DH   LINE      ---      ---       #392
      0100085FH   LINE      ---      ---       #393
      0100085FH   LINE      ---      ---       #394
      01000875H   LINE      ---      ---       #395
      01000875H   LINE      ---      ---       #397
      01000893H   LINE      ---      ---       #398
      01000893H   LINE      ---      ---       #399
      010008ADH   LINE      ---      ---       #400
      010008BCH   LINE      ---      ---       #401
      010008BCH   LINE      ---      ---       #402
      010008CDH   LINE      ---      ---       #404
      010008EAH   LINE      ---      ---       #406
      010008F2H   LINE      ---      ---       #407
      02004DD1H   SYMBOL    XDATA    VOID      i
      02004DD3H   SYMBOL    XDATA    VOID      rrptr
      ---         BLOCKEND  CODE     ---       LVL=1
      ---         BLOCKEND  CODE     ---       LVL=0

      01000592H   BLOCK     CODE     ---       LVL=0
      01000592H   LINE      ---      ---       #409
      01000592H   LINE      ---      ---       #410
      01000592H   LINE      ---      ---       #411
      010005A1H   LINE      ---      ---       #413
      ---         BLOCKEND  ---      ---       LVL=0

      ---         MODULE    ---      ---       SPIFLASH
      02004DE5H   PUBLIC    XDATA    BYTE      ?_SPIFlashRead?BYTE
      010027DFH   PUBLIC    CODE     ---       _SPIFlashRead
      02004DDDH   PUBLIC    XDATA    BYTE      ?_SPIFlashWrite?BYTE
      0100200FH   PUBLIC    CODE     ---       _SPIFlashWrite
      010020E2H   PUBLIC    CODE     ---       _SPIFlashEraseSector
      010020D5H   PUBLIC    CODE     ---       SPIFlashWaitBusy
      01002158H   PUBLIC    CODE     ---       SPIFlashWriteEnable
      0100219CH   PUBLIC    CODE     ---       SPIFlashReadSR

      0100219CH   BLOCK     CODE     ---       LVL=0
      0100219CH   LINE      ---      ---       #21
      0100219CH   LINE      ---      ---       #22
      0100219CH   BLOCK     CODE     NEAR LAB  LVL=1
      0100219CH   LINE      ---      ---       #24
      010021A2H   LINE      ---      ---       #25
      010021ABH   LINE      ---      ---       #26
      010021B3H   LINE      ---      ---       #27
      010021B9H   LINE      ---      ---       #28
      010021C3H   LINE      ---      ---       #29
      010021D3H   LINE      ---      ---       #30
      010021D9H   LINE      ---      ---       #31
      010021E0H   LINE      ---      ---       #33
      010021E5H   LINE      ---      ---       #34
      02004E5AH   SYMBOL    XDATA    VOID      status
      ---         BLOCKEND  CODE     ---       LVL=1
      ---         BLOCKEND  CODE     ---       LVL=0

      01002158H   BLOCK     CODE     ---       LVL=0
      01002158H   LINE      ---      ---       #35
      01002158H   LINE      ---      ---       #36
      01002158H   LINE      ---      ---       #37
      0100215FH   LINE      ---      ---       #38
      01002167H   LINE      ---      ---       #39
      0100216DH   LINE      ---      ---       #40
      01002177H   LINE      ---      ---       #41
      0100217CH   LINE      ---      ---       #42
      01002183H   LINE      ---      ---       #43
      ---         BLOCKEND  ---      ---       LVL=0

      010020D0H   BLOCK     CODE     ---       LVL=0
      010020D5H   LINE      ---      ---       #44
      010020D5H   LINE      ---      ---       #45
      010020D5H   LINE      ---      ---       #46
      010020DBH   LINE      ---      ---       #47
      010020DFH   LINE      ---      ---       #48
      010020E1H   LINE      ---      ---       #49
      ---         BLOCKEND  ---      ---       LVL=0

      010020E2H   BLOCK     CODE     ---       LVL=0
      010020E2H   LINE      ---      ---       #50
      010020E7H   LINE      ---      ---       #54
      010020EDH   LINE      ---      ---       #55
      01002105H   LINE      ---      ---       #56
      0100211DH   LINE      ---      ---       #57
      01002131H   LINE      ---      ---       #58
      0100213AH   LINE      ---      ---       #59
      01002142H   LINE      ---      ---       #60
      01002149H   LINE      ---      ---       #61
      0100214FH   LINE      ---      ---       #62
      01002156H   LINE      ---      ---       #63
      ---         BLOCKEND  ---      ---       LVL=0

      0100200FH   BLOCK     CODE     ---       LVL=0
      0100200FH   LINE      ---      ---       #65
      0100201BH   BLOCK     CODE     NEAR LAB  LVL=1
      0100201DH   LINE      ---      ---       #70
      01002029H   LINE      ---      ---       #71
      01002049H   LINE      ---      ---       #72
      0100204CH   LINE      ---      ---       #73
      01002052H   LINE      ---      ---       #74
      0100206AH   LINE      ---      ---       #75
      01002082H   LINE      ---      ---       #76
      01002096H   LINE      ---      ---       #77
      010020B2H   LINE      ---      ---       #78
      010020BAH   LINE      ---      ---       #79
      010020C1H   LINE      ---      ---       #80
      010020C7H   LINE      ---      ---       #81
      010020CEH   LINE      ---      ---       #82
      00000007H   SYMBOL    DATA     VOID      i
      ---         BLOCKEND  CODE     ---       LVL=1
      ---         BLOCKEND  CODE     ---       LVL=0

      010027DFH   BLOCK     CODE     ---       LVL=0
      010027DFH   LINE      ---      ---       #84
      010027E5H   LINE      ---      ---       #85
      010027E5H   LINE      ---      ---       #86
      010027F4H   LINE      ---      ---       #87
      010027FDH   LINE      ---      ---       #88
      01002803H   LINE      ---      ---       #89
      0100281BH   LINE      ---      ---       #90
      01002833H   LINE      ---      ---       #91
      01002847H   LINE      ---      ---       #92
      01002851H   LINE      ---      ---       #93
      0100285EH   LINE      ---      ---       #94
      01002865H   LINE      ---      ---       #95
      0100286BH   LINE      ---      ---       #97
      01002872H   LINE      ---      ---       #98
      01002879H   LINE      ---      ---       #100
      ---         BLOCKEND  ---      ---       LVL=0

      ---         MODULE    ---      ---       BT_IPC
      010029E2H   PUBLIC    CODE     ---       _BT_CmdFifoFull
      010029D9H   PUBLIC    CODE     ---       BT_CmdFifoEmpty
      0100297DH   PUBLIC    CODE     ---       BT_GetEvtFifoDepth
      010029ABH   PUBLIC    CODE     ---       BT_GetCmdFifoDepth
      0100287AH   PUBLIC    CODE     ---       _BT_EventFifoOut
      01001E04H   PUBLIC    CODE     ---       _BT_CmdFifoIn

      01001E04H   BLOCK     CODE     ---       LVL=0
      01001E04H   LINE      ---      ---       #7
      01001E0FH   LINE      ---      ---       #8
      01001E0FH   BLOCK     CODE     NEAR LAB  LVL=1
      01001E0FH   LINE      ---      ---       #10
      01001E14H   LINE      ---      ---       #11
      01001E16H   LINE      ---      ---       #12
      01001E33H   LINE      ---      ---       #13
      01001E3EH   LINE      ---      ---       #14
      01001E3EH   LINE      ---      ---       #15
      01001E53H   LINE      ---      ---       #16
      01001E65H   LINE      ---      ---       #17
      01001E71H   LINE      ---      ---       #18
      01001E71H   LINE      ---      ---       #19
      01001E7AH   LINE      ---      ---       #20
      01001E7AH   LINE      ---      ---       #21
      01001E8BH   LINE      ---      ---       #22
      01001E97H   LINE      ---      ---       #23
      01001E97H   LINE      ---      ---       #24
      01001EA0H   LINE      ---      ---       #25
      01001EA0H   LINE      ---      ---       #26
      01001EC5H   LINE      ---      ---       #27
      01001EC5H   LINE      ---      ---       #28
      01001EE7H   LINE      ---      ---       #29
      01001EF3H   LINE      ---      ---       #30
      01001EF3H   LINE      ---      ---       #31
      01001EFCH   LINE      ---      ---       #32
      01001EFCH   LINE      ---      ---       #33
      01001F0CH   LINE      ---      ---       #34
      01001F21H   LINE      ---      ---       #35
      01001F23H   LINE      ---      ---       #36
      01001F23H   LINE      ---      ---       #38
      01001F23H   LINE      ---      ---       #39
      01001F24H   LINE      ---      ---       #40
      01001F24H   LINE      ---      ---       #41
      02004E08H   SYMBOL    XDATA    VOID      new_wprt
      00000006H   SYMBOL    DATA     VOID      new_cmd_len
      02004E0AH   SYMBOL    XDATA    VOID      i
      ---         BLOCKEND  CODE     ---       LVL=1
      ---         BLOCKEND  CODE     ---       LVL=0

      0100287AH   BLOCK     CODE     ---       LVL=0
      0100287AH   LINE      ---      ---       #43
      01002885H   LINE      ---      ---       #44
      01002885H   BLOCK     CODE     NEAR LAB  LVL=1
      01002885H   LINE      ---      ---       #47
      0100288FH   LINE      ---      ---       #48
      0100288FH   LINE      ---      ---       #49
      010028A4H   LINE      ---      ---       #50
      010028B5H   LINE      ---      ---       #51
      010028BBH   LINE      ---      ---       #52
      010028DAH   LINE      ---      ---       #53
      010028E6H   LINE      ---      ---       #54
      010028E6H   LINE      ---      ---       #55
      010028F0H   LINE      ---      ---       #56
      010028F0H   LINE      ---      ---       #57
      0100290AH   LINE      ---      ---       #58
      0100290AH   LINE      ---      ---       #59
      0100292CH   LINE      ---      ---       #60
      01002938H   LINE      ---      ---       #61
      01002938H   LINE      ---      ---       #62
      01002942H   LINE      ---      ---       #63
      01002942H   LINE      ---      ---       #64
      01002949H   LINE      ---      ---       #65
      01002949H   LINE      ---      ---       #66
      01002949H   LINE      ---      ---       #67
      01002958H   LINE      ---      ---       #68
      01002958H   LINE      ---      ---       #69
      0100296DH   LINE      ---      ---       #70
      0100296EH   LINE      ---      ---       #72
      0100296EH   LINE      ---      ---       #73
      02004E28H   SYMBOL    XDATA    VOID      new_rprt
      00000006H   SYMBOL    DATA     VOID      i
      00000007H   SYMBOL    DATA     VOID      event_prefix
      ---         BLOCKEND  CODE     ---       LVL=1
      ---         BLOCKEND  CODE     ---       LVL=0

      010029ABH   BLOCK     CODE     ---       LVL=0
      010029ABH   LINE      ---      ---       #78
      010029ABH   LINE      ---      ---       #79
      010029ABH   BLOCK     CODE     NEAR LAB  LVL=1
      010029ABH   LINE      ---      ---       #81
      010029B8H   LINE      ---      ---       #82
      010029C5H   LINE      ---      ---       #83
      010029D8H   LINE      ---      ---       #84
      010029D8H   LINE      ---      ---       #85
      00000004H   SYMBOL    DATA     VOID      wptr
      00000006H   SYMBOL    DATA     VOID      rptr
      00000006H   SYMBOL    DATA     VOID      len
      ---         BLOCKEND  CODE     ---       LVL=1
      ---         BLOCKEND  CODE     ---       LVL=0

      0100297DH   BLOCK     CODE     ---       LVL=0
      0100297DH   LINE      ---      ---       #87
      0100297DH   LINE      ---      ---       #88
      0100297DH   BLOCK     CODE     NEAR LAB  LVL=1
      0100297DH   LINE      ---      ---       #90
      0100298AH   LINE      ---      ---       #91
      01002997H   LINE      ---      ---       #92
      010029AAH   LINE      ---      ---       #93
      010029AAH   LINE      ---      ---       #94
      00000004H   SYMBOL    DATA     VOID      wptr
      00000006H   SYMBOL    DATA     VOID      rptr
      00000006H   SYMBOL    DATA     VOID      len
      ---         BLOCKEND  CODE     ---       LVL=1
      ---         BLOCKEND  CODE     ---       LVL=0

      010029D9H   BLOCK     CODE     ---       LVL=0
      010029D9H   LINE      ---      ---       #96
      010029D9H   LINE      ---      ---       #97
      010029D9H   LINE      ---      ---       #98
      010029DEH   LINE      ---      ---       #99
      010029DEH   LINE      ---      ---       #100
      010029E0H   LINE      ---      ---       #101
      010029E0H   LINE      ---      ---       #102
      010029E1H   LINE      ---      ---       #103
      ---         BLOCKEND  ---      ---       LVL=0

      010029E2H   BLOCK     CODE     ---       LVL=0
      010029E2H   LINE      ---      ---       #105
      010029EDH   LINE      ---      ---       #106
      010029EDH   LINE      ---      ---       #107
      01002A13H   LINE      ---      ---       #108
      01002A15H   LINE      ---      ---       #109
      01002A16H   LINE      ---      ---       #110
      ---         BLOCKEND  ---      ---       LVL=0

      ---         MODULE    ---      ---       YC_UTILITIES
      01002AE2H   PUBLIC    CODE     ---       _YC_Delay1S
      01001DECH   PUBLIC    CODE     ---       _YC_Delay10ms
      01002184H   PUBLIC    CODE     ---       _YC_Delay1ms
      01002A8CH   PUBLIC    CODE     ---       _YC_MemCheckEmpty
      00000021H   PUBLIC    DATA     BYTE      ?_cmemcpy?BYTE
      01002A55H   PUBLIC    CODE     ---       _cmemcpy
      00000010H   PUBLIC    DATA     BYTE      ?_dmemcpy?BYTE
      01001F25H   PUBLIC    CODE     ---       _dmemcpy
      00000017H   PUBLIC    DATA     BYTE      ?_xmemcpy?BYTE
      01002A1EH   PUBLIC    CODE     ---       _xmemcpy
      01001F8BH   PUBLIC    CODE     ---       _xmemset
      01002A17H   PUBLIC    CODE     ---       YC_Ice_break

      01002A17H   BLOCK     CODE     ---       LVL=0
      01002A17H   LINE      ---      ---       #4
      01002A17H   LINE      ---      ---       #5
      01002A17H   LINE      ---      ---       #6
      01002A1DH   LINE      ---      ---       #8
      ---         BLOCKEND  ---      ---       LVL=0

      01001F8BH   BLOCK     CODE     ---       LVL=0
      01001F8BH   LINE      ---      ---       #10
      01001F8FH   LINE      ---      ---       #12
      01001F95H   LINE      ---      ---       #13
      01001FA8H   LINE      ---      ---       #15
      ---         BLOCKEND  ---      ---       LVL=0

      01002A1EH   BLOCK     CODE     ---       LVL=0
      01002A1EH   LINE      ---      ---       #16
      01002A28H   LINE      ---      ---       #18
      01002A2FH   LINE      ---      ---       #19
      01002A54H   LINE      ---      ---       #21
      ---         BLOCKEND  ---      ---       LVL=0

      01001F25H   BLOCK     CODE     ---       LVL=0
      01001F25H   LINE      ---      ---       #22
      01001F2BH   LINE      ---      ---       #24
      01001F32H   LINE      ---      ---       #25
      01001F58H   LINE      ---      ---       #27
      ---         BLOCKEND  ---      ---       LVL=0

      01002A55H   BLOCK     CODE     ---       LVL=0
      01002A55H   LINE      ---      ---       #28
      01002A5FH   LINE      ---      ---       #30
      01002A66H   LINE      ---      ---       #31
      01002A8BH   LINE      ---      ---       #33
      ---         BLOCKEND  ---      ---       LVL=0

      01002A8CH   BLOCK     CODE     ---       LVL=0
      01002A8CH   LINE      ---      ---       #34
      01002A9AH   LINE      ---      ---       #35
      01002A9AH   BLOCK     CODE     NEAR LAB  LVL=1
      01002A9AH   LINE      ---      ---       #37
      01002AACH   LINE      ---      ---       #38
      01002AACH   LINE      ---      ---       #39
      01002AC1H   LINE      ---      ---       #40
      01002AC1H   LINE      ---      ---       #41
      01002AC1H   LINE      ---      ---       #42
      01002AC1H   LINE      ---      ---       #43
      01002AD7H   LINE      ---      ---       #44
      01002AD7H   LINE      ---      ---       #45
      01002AD9H   LINE      ---      ---       #46
      01002AD9H   LINE      ---      ---       #47
      01002AE0H   LINE      ---      ---       #48
      01002AE1H   LINE      ---      ---       #49
      00000006H   SYMBOL    DATA     VOID      i
      ---         BLOCKEND  CODE     ---       LVL=1
      ---         BLOCKEND  CODE     ---       LVL=0

      01002184H   BLOCK     CODE     ---       LVL=0
      01002184H   LINE      ---      ---       #51
      01002184H   LINE      ---      ---       #52
      01002184H   BLOCK     CODE     NEAR LAB  LVL=1
      01002184H   LINE      ---      ---       #54
      0100218AH   LINE      ---      ---       #55
      0100218AH   LINE      ---      ---       #56
      01002198H   LINE      ---      ---       #57
      0100219BH   LINE      ---      ---       #58
      00000004H   SYMBOL    DATA     VOID      j
      ---         BLOCKEND  CODE     ---       LVL=1
      ---         BLOCKEND  CODE     ---       LVL=0

      01001DECH   BLOCK     CODE     ---       LVL=0
      01001DECH   LINE      ---      ---       #60
      01001DECH   LINE      ---      ---       #61
      01001DECH   BLOCK     CODE     NEAR LAB  LVL=1
      01001DECH   LINE      ---      ---       #63
      01001DF2H   LINE      ---      ---       #64
      01001DF2H   LINE      ---      ---       #65
      01001E00H   LINE      ---      ---       #66
      01001E03H   LINE      ---      ---       #67
      00000004H   SYMBOL    DATA     VOID      j
      ---         BLOCKEND  CODE     ---       LVL=1
      ---         BLOCKEND  CODE     ---       LVL=0

      01002AE2H   BLOCK     CODE     ---       LVL=0
      01002AE2H   LINE      ---      ---       #69
      01002AE2H   LINE      ---      ---       #70
      01002AE2H   BLOCK     CODE     NEAR LAB  LVL=1
      01002AE2H   LINE      ---      ---       #72
      01002AE8H   LINE      ---      ---       #73
      01002AE8H   LINE      ---      ---       #74
      01002AEBH   LINE      ---      ---       #75
      01002AEBH   LINE      ---      ---       #76
      01002AF9H   LINE      ---      ---       #77
      01002B04H   LINE      ---      ---       #78
      01002B07H   LINE      ---      ---       #79
      00000004H   SYMBOL    DATA     VOID      j
      00000002H   SYMBOL    DATA     VOID      k
      ---         BLOCKEND  CODE     ---       LVL=1
      ---         BLOCKEND  CODE     ---       LVL=0

      ---         MODULE    ---      ---       CS_SCALE_PROC
      02004CDAH   PUBLIC    XDATA    BYTE      R_1186sys_state
      02004CD8H   PUBLIC    XDATA    WORD      R_AD_Original
      02004CD7H   PUBLIC    XDATA    BYTE      B_Weight_AdOk
      02004CD3H   PUBLIC    XDATA    ---       R_1186_RTC
      02004CC9H   PUBLIC    XDATA    ---       R_UnitWeight
      02004CC7H   PUBLIC    XDATA    WORD      R_Debug_temp
      02004CC6H   PUBLIC    XDATA    BYTE      R_Selet_Unit
      02004CC5H   PUBLIC    XDATA    BYTE      R_Scale_state
      02004CC3H   PUBLIC    XDATA    WORD      R_Weight_Mem
      02004CC2H   PUBLIC    XDATA    BYTE      R_Display_Err
      00000020H.1 PUBLIC    BIT      BIT       B_Debug_Test
      02004CC0H   PUBLIC    XDATA    WORD      R_Weight_Lock
      01002C02H   PUBLIC    CODE     ---       _CS_Scale_TimeOutProc
      01000F15H   PUBLIC    CODE     ---       _CS_SoftTimer
      00000020H.0 PUBLIC    BIT      BIT       ?CS_Scale_PowerOnProc?BIT
      01002D2CH   PUBLIC    CODE     ---       CS_Scale_PowerOnProc
      01002B6EH   PUBLIC    CODE     ---       _CS_Scale_StandbyProc
      01000A38H   PUBLIC    CODE     ---       _CS_Scale_CaliProc
      010036D2H   PUBLIC    CODE     ---       _CS_MemoryWeightClear_Timer
      01002EBCH   PUBLIC    CODE     ---       CS_Scale_ReturnLock
      01002E15H   PUBLIC    CODE     ---       _CS_Scale_SteadyProc
      01002F4EH   PUBLIC    CODE     ---       _CS_Scale_JudgeSteady
      01003687H   PUBLIC    CODE     ---       _CS_Scale_JudgeOverLoad
      010017E5H   PUBLIC    CODE     ---       _CS_Scale_JudgeLowBat
      01003619H   PUBLIC    CODE     ---       _CS_Scale_LockProc
      010012F0H   PUBLIC    CODE     ---       _CS_Scale_ZeroProc
      01000F53H   PUBLIC    CODE     ---       CS_Scale_ChangeUnit
      010034C8H   PUBLIC    CODE     ---       _CS_Scale_GetWeight
      01003118H   PUBLIC    CODE     ---       _CS_Scale_AdcFilter
      010030B7H   PUBLIC    CODE     ---       _CS_Scale_GetDeltaAD
      01002F24H   PUBLIC    CODE     ---       CS_Scale_WeightProc
      010012BAH   PUBLIC    CODE     ---       CS_Scale_PowerOn
      01002B08H   PUBLIC    CODE     ---       CS_Scale_Proc

      01002B08H   BLOCK     CODE     ---       LVL=0
      01002B08H   LINE      ---      ---       #121
      01002B08H   LINE      ---      ---       #122
      01002B08H   LINE      ---      ---       #123
      01002B0EH   LINE      ---      ---       #124
      01002B0EH   LINE      ---      ---       #125
      01002B12H   LINE      ---      ---       #126
      01002B12H   LINE      ---      ---       #127
      01002B19H   LINE      ---      ---       #128
      01002B19H   LINE      ---      ---       #129
      01002B1DH   LINE      ---      ---       #130
      01002B1DH   LINE      ---      ---       #132
      01002B25H   LINE      ---      ---       #133
      01002B25H   LINE      ---      ---       #134
      01002B26H   LINE      ---      ---       #136
      01002B31H   LINE      ---      ---       #137
      01002B31H   LINE      ---      ---       #138
      01002B38H   LINE      ---      ---       #139
      01002B38H   LINE      ---      ---       #141
      01002B38H   LINE      ---      ---       #143
      01002B3FH   LINE      ---      ---       #144
      01002B3FH   LINE      ---      ---       #145
      01002B41H   LINE      ---      ---       #146
      01002B44H   LINE      ---      ---       #147
      01002B44H   LINE      ---      ---       #148
      01002B4BH   LINE      ---      ---       #149
      01002B4BH   LINE      ---      ---       #150
      01002B4EH   LINE      ---      ---       #151
      01002B56H   LINE      ---      ---       #152
      01002B56H   LINE      ---      ---       #153
      01002B5AH   LINE      ---      ---       #154
      01002B5DH   LINE      ---      ---       #155
      01002B5DH   LINE      ---      ---       #156
      01002B5DH   LINE      ---      ---       #157
      01002B64H   LINE      ---      ---       #158
      01002B64H   LINE      ---      ---       #159
      01002B69H   LINE      ---      ---       #160
      01002B69H   LINE      ---      ---       #162
      01002B6DH   LINE      ---      ---       #163
      01002B6DH   LINE      ---      ---       #164
      01002B6DH   LINE      ---      ---       #165
      ---         BLOCKEND  ---      ---       LVL=0

      010012BAH   BLOCK     CODE     ---       LVL=0
      010012BAH   LINE      ---      ---       #173
      010012BAH   LINE      ---      ---       #174
      010012BAH   LINE      ---      ---       #176
      010012C0H   LINE      ---      ---       #177
      010012C0H   LINE      ---      ---       #178
      010012C4H   LINE      ---      ---       #179
      010012C8H   LINE      ---      ---       #180
      010012CCH   LINE      ---      ---       #182
      010012D2H   LINE      ---      ---       #184
      010012D7H   LINE      ---      ---       #185
      010012D9H   LINE      ---      ---       #187
      010012DEH   LINE      ---      ---       #188
      010012E5H   LINE      ---      ---       #190
      010012EAH   LINE      ---      ---       #191
      010012EFH   LINE      ---      ---       #192
      010012EFH   LINE      ---      ---       #193
      ---         BLOCKEND  ---      ---       LVL=0

      01002F24H   BLOCK     CODE     ---       LVL=0
      01002F24H   LINE      ---      ---       #202
      01002F24H   LINE      ---      ---       #203
      01002F24H   BLOCK     CODE     NEAR LAB  LVL=1
      01002F24H   LINE      ---      ---       #206
      01002F29H   LINE      ---      ---       #207
      01002F32H   LINE      ---      ---       #208
      01002F35H   LINE      ---      ---       #209
      01002F3DH   LINE      ---      ---       #210
      01002F42H   LINE      ---      ---       #211
      01002F47H   LINE      ---      ---       #212
      01002F4CH   LINE      ---      ---       #213
      00000006H   SYMBOL    DATA     VOID      R_AD_BUF
      ---         BLOCKEND  CODE     ---       LVL=1
      ---         BLOCKEND  CODE     ---       LVL=0

      010030B7H   BLOCK     CODE     ---       LVL=0
      010030B7H   LINE      ---      ---       #219
      010030BCH   LINE      ---      ---       #220
      010030BCH   BLOCK     CODE     NEAR LAB  LVL=1
      010030BCH   LINE      ---      ---       #224
      010030C4H   LINE      ---      ---       #225
      010030D2H   LINE      ---      ---       #226
      010030D2H   LINE      ---      ---       #227
      010030DEH   LINE      ---      ---       #228
      010030E4H   LINE      ---      ---       #230
      010030E6H   LINE      ---      ---       #232
      010030E6H   LINE      ---      ---       #233
      010030FBH   LINE      ---      ---       #234
      01003100H   LINE      ---      ---       #235
      01003100H   LINE      ---      ---       #238
      01003107H   LINE      ---      ---       #239
      01003107H   LINE      ---      ---       #240
      0100310FH   LINE      ---      ---       #241
      0100310FH   LINE      ---      ---       #242
      01003117H   LINE      ---      ---       #243
      02004C80H   SYMBOL    XDATA    VOID      B_Weight_Pos
      02004E49H   SYMBOL    XDATA    VOID      ad_temp
      00000006H   SYMBOL    DATA     VOID      R_AD_Zero
      ---         BLOCKEND  CODE     ---       LVL=1
      ---         BLOCKEND  CODE     ---       LVL=0

      01003118H   BLOCK     CODE     ---       LVL=0
      01003118H   LINE      ---      ---       #248
      01003125H   LINE      ---      ---       #249
      01003125H   BLOCK     CODE     NEAR LAB  LVL=1
      01003125H   LINE      ---      ---       #262
      01003128H   LINE      ---      ---       #263
      01003128H   LINE      ---      ---       #264
      01003131H   LINE      ---      ---       #265
      01003131H   LINE      ---      ---       #268
      01003147H   LINE      ---      ---       #269
      0100315EH   LINE      ---      ---       #271
      0100317CH   LINE      ---      ---       #273
      0100318BH   LINE      ---      ---       #275
      010031ACH   LINE      ---      ---       #276
      010031ACH   LINE      ---      ---       #277
      010031B3H   LINE      ---      ---       #278
      010031B9H   LINE      ---      ---       #279
      010031BDH   LINE      ---      ---       #280
      010031C1H   LINE      ---      ---       #281
      010031C5H   LINE      ---      ---       #282
      010031C9H   LINE      ---      ---       #283
      010031CDH   LINE      ---      ---       #284
      010031D1H   LINE      ---      ---       #285
      010031D5H   LINE      ---      ---       #286
      010031D7H   LINE      ---      ---       #288
      010031D7H   LINE      ---      ---       #289
      010031E6H   LINE      ---      ---       #290
      010031F2H   LINE      ---      ---       #292
      01003202H   LINE      ---      ---       #293
      01003211H   LINE      ---      ---       #294
      0100321AH   LINE      ---      ---       #295
      01003229H   LINE      ---      ---       #296
      01003238H   LINE      ---      ---       #297
      01003247H   LINE      ---      ---       #298
      01003257H   LINE      ---      ---       #299
      01003266H   LINE      ---      ---       #300
      0100326FH   LINE      ---      ---       #301
      0100327EH   LINE      ---      ---       #302
      0100328DH   LINE      ---      ---       #303
      0100329CH   LINE      ---      ---       #304
      010032ACH   LINE      ---      ---       #305
      010032BBH   LINE      ---      ---       #306
      010032C4H   LINE      ---      ---       #307
      010032D3H   LINE      ---      ---       #308
      010032E2H   LINE      ---      ---       #309
      010032E2H   LINE      ---      ---       #310
      010032F1H   LINE      ---      ---       #311
      01003300H   LINE      ---      ---       #312
      0100330FH   LINE      ---      ---       #313
      0100331EH   LINE      ---      ---       #314
      0100332DH   LINE      ---      ---       #315
      0100333CH   LINE      ---      ---       #316
      0100334BH   LINE      ---      ---       #317
      0100335AH   LINE      ---      ---       #318
      0100335AH   LINE      ---      ---       #320
      0100336BH   LINE      ---      ---       #321
      01003396H   LINE      ---      ---       #322
      010033C1H   LINE      ---      ---       #323
      010033ECH   LINE      ---      ---       #324
      01003417H   LINE      ---      ---       #325
      01003442H   LINE      ---      ---       #326
      0100346DH   LINE      ---      ---       #327
      01003498H   LINE      ---      ---       #329
      010034B7H   LINE      ---      ---       #330
      010034BFH   LINE      ---      ---       #331
      010034BFH   LINE      ---      ---       #332
      010034C7H   LINE      ---      ---       #333
      02004E0FH   SYMBOL    XDATA    VOID      ad_temp
      02004C81H   SYMBOL    XDATA    VOID      R_AD_FilTimes
      02004C83H   SYMBOL    XDATA    VOID      R_AD_BUF_OLD
      02004C85H   SYMBOL    XDATA    VOID      R_AD_F1
      02004C87H   SYMBOL    XDATA    VOID      R_AD_F2
      02004C89H   SYMBOL    XDATA    VOID      R_AD_F3
      02004C8BH   SYMBOL    XDATA    VOID      R_AD_F4
      02004C8DH   SYMBOL    XDATA    VOID      R_AD_F5
      02004C8FH   SYMBOL    XDATA    VOID      R_AD_F6
      02004C91H   SYMBOL    XDATA    VOID      R_AD_F7
      02004C93H   SYMBOL    XDATA    VOID      R_AD_F8
      ---         BLOCKEND  CODE     ---       LVL=1
      ---         BLOCKEND  CODE     ---       LVL=0

      010034C8H   BLOCK     CODE     ---       LVL=0
      010034C8H   LINE      ---      ---       #338
      010034D0H   LINE      ---      ---       #339
      010034D0H   BLOCK     CODE     NEAR LAB  LVL=1
      010034D0H   LINE      ---      ---       #344
      010034DDH   LINE      ---      ---       #345
      010034EAH   LINE      ---      ---       #346
      010034F7H   LINE      ---      ---       #348
      0100350DH   LINE      ---      ---       #349
      0100350DH   LINE      ---      ---       #350
      01003518H   LINE      ---      ---       #351
      01003540H   LINE      ---      ---       #353
      01003540H   LINE      ---      ---       #354
      0100355CH   LINE      ---      ---       #356
      01003569H   LINE      ---      ---       #357
      01003569H   LINE      ---      ---       #358
      0100357EH   LINE      ---      ---       #359
      010035ACH   LINE      ---      ---       #361
      010035ACH   LINE      ---      ---       #363
      010035D6H   LINE      ---      ---       #364
      010035EBH   LINE      ---      ---       #365
      01003618H   LINE      ---      ---       #368
      02004DA2H   SYMBOL    XDATA    VOID      ad_temp
      02004DA6H   SYMBOL    XDATA    VOID      ad_cal
      02004DA8H   SYMBOL    XDATA    VOID      CaliDot1
      02004DAAH   SYMBOL    XDATA    VOID      CaliDot2
      02004DACH   SYMBOL    XDATA    VOID      CaliDot3
      ---         BLOCKEND  CODE     ---       LVL=1
      ---         BLOCKEND  CODE     ---       LVL=0

      01000F53H   BLOCK     CODE     ---       LVL=0
      01000F53H   LINE      ---      ---       #371
      01000F53H   LINE      ---      ---       #372
      01000F53H   LINE      ---      ---       #373
      01000F5EH   LINE      ---      ---       #374
      01000F5EH   LINE      ---      ---       #383
      01000F5EH   LINE      ---      ---       #384
      01000F64H   LINE      ---      ---       #385
      01000F65H   LINE      ---      ---       #386
      01000F65H   LINE      ---      ---       #387
      01000F6BH   LINE      ---      ---       #388
      01000F6CH   LINE      ---      ---       #389
      01000F6CH   LINE      ---      ---       #390
      01000F72H   LINE      ---      ---       #391
      01000F72H   LINE      ---      ---       #392
      01000F72H   LINE      ---      ---       #393
      ---         BLOCKEND  ---      ---       LVL=0

      010012F0H   BLOCK     CODE     ---       LVL=0
      010012F0H   LINE      ---      ---       #397
      010012F5H   LINE      ---      ---       #398
      010012F5H   BLOCK     CODE     NEAR LAB  LVL=1
      010012F5H   LINE      ---      ---       #415
      010012F8H   LINE      ---      ---       #416
      010012F8H   LINE      ---      ---       #417
      010012FDH   LINE      ---      ---       #418
      01001300H   LINE      ---      ---       #419
      01001300H   LINE      ---      ---       #420
      01001308H   LINE      ---      ---       #421
      01001308H   LINE      ---      ---       #422
      01001310H   LINE      ---      ---       #423
      01001314H   LINE      ---      ---       #424
      01001314H   LINE      ---      ---       #425
      01001318H   LINE      ---      ---       #426
      01001318H   LINE      ---      ---       #427
      01001322H   LINE      ---      ---       #428
      01001326H   LINE      ---      ---       #429
      01001326H   LINE      ---      ---       #430
      0100132EH   LINE      ---      ---       #431
      0100132EH   LINE      ---      ---       #432
      01001333H   LINE      ---      ---       #433
      01001336H   LINE      ---      ---       #434
      01001336H   LINE      ---      ---       #436
      0100133BH   LINE      ---      ---       #437
      0100133BH   LINE      ---      ---       #440
      01001344H   LINE      ---      ---       #441
      01001344H   LINE      ---      ---       #442
      01001347H   LINE      ---      ---       #444
      01001359H   LINE      ---      ---       #445
      01001368H   LINE      ---      ---       #446
      0100136DH   LINE      ---      ---       #448
      01001376H   LINE      ---      ---       #449
      01001376H   LINE      ---      ---       #450
      01001386H   LINE      ---      ---       #451
      0100138EH   LINE      ---      ---       #452
      01001394H   LINE      ---      ---       #453
      01001394H   LINE      ---      ---       #454
      01001396H   LINE      ---      ---       #456
      01001396H   LINE      ---      ---       #457
      010013A0H   LINE      ---      ---       #458
      010013AAH   LINE      ---      ---       #459
      010013B0H   LINE      ---      ---       #460
      010013B0H   LINE      ---      ---       #462
      010013B0H   LINE      ---      ---       #464
      010013BAH   LINE      ---      ---       #465
      010013BAH   LINE      ---      ---       #466
      010013BEH   LINE      ---      ---       #468
      010013C8H   LINE      ---      ---       #469
      010013D5H   LINE      ---      ---       #471
      010013EBH   LINE      ---      ---       #472
      010013F1H   LINE      ---      ---       #474
      01001402H   LINE      ---      ---       #475
      01001402H   LINE      ---      ---       #476
      0100140EH   LINE      ---      ---       #477
      0100140EH   LINE      ---      ---       #479
      01001413H   LINE      ---      ---       #482
      0100141BH   LINE      ---      ---       #483
      0100141BH   LINE      ---      ---       #484
      01001431H   LINE      ---      ---       #485
      01001431H   LINE      ---      ---       #486
      0100143EH   LINE      ---      ---       #487
      0100144DH   LINE      ---      ---       #488
      0100145CH   LINE      ---      ---       #489
      0100145EH   LINE      ---      ---       #491
      0100146DH   LINE      ---      ---       #492
      0100146FH   LINE      ---      ---       #495
      0100146FH   LINE      ---      ---       #496
      01001475H   LINE      ---      ---       #497
      01001475H   LINE      ---      ---       #498
      0100148BH   LINE      ---      ---       #499
      01001499H   LINE      ---      ---       #501
      010014B4H   LINE      ---      ---       #506
      010014C3H   LINE      ---      ---       #507
      010014D2H   LINE      ---      ---       #508
      010014D2H   LINE      ---      ---       #510
      010014D8H   LINE      ---      ---       #511
      010014DEH   LINE      ---      ---       #512
      010014E3H   LINE      ---      ---       #513
      010014E3H   LINE      ---      ---       #514
      010014E9H   LINE      ---      ---       #517
      010014E9H   LINE      ---      ---       #518
      010014E9H   LINE      ---      ---       #520
      010014E9H   LINE      ---      ---       #521
      010014E9H   LINE      ---      ---       #522
      010014EDH   LINE      ---      ---       #523
      010014EDH   LINE      ---      ---       #525
      010014F4H   LINE      ---      ---       #526
      010014FDH   LINE      ---      ---       #527
      01001501H   LINE      ---      ---       #528
      01001509H   LINE      ---      ---       #529
      01001511H   LINE      ---      ---       #530
      0100151AH   LINE      ---      ---       #531
      0100151EH   LINE      ---      ---       #532
      01001526H   LINE      ---      ---       #533
      0100152DH   LINE      ---      ---       #534
      01001535H   LINE      ---      ---       #536
      01001538H   LINE      ---      ---       #537
      02004C95H   SYMBOL    XDATA    VOID      R_Weight_GetZeroTimeOut
      02004C96H   SYMBOL    XDATA    VOID      R_AD_PowerOnZero
      02004C98H   SYMBOL    XDATA    VOID      R_AD_Zero
      02004C9AH   SYMBOL    XDATA    VOID      B_Weight_Zero
      02004C9BH   SYMBOL    XDATA    VOID      B_Weight_ZeroOk
      02004C9CH   SYMBOL    XDATA    VOID      B_LockDownCheck
      02004C9DH   SYMBOL    XDATA    VOID      B_WeightZeroErr
      00000006H   SYMBOL    DATA     VOID      R_AdFilTimes
      02004DEEH   SYMBOL    XDATA    VOID      R_AD_BUF
      02004DF0H   SYMBOL    XDATA    VOID      weight_temp
      02004DF2H   SYMBOL    XDATA    VOID      R_Open_Weight
      02004DF4H   SYMBOL    XDATA    VOID      B_Weight_Pos
      ---         BLOCKEND  CODE     ---       LVL=1
      ---         BLOCKEND  CODE     ---       LVL=0

      01003619H   BLOCK     CODE     ---       LVL=0
      01003619H   LINE      ---      ---       #548
      01003619H   LINE      ---      ---       #549
      01003619H   BLOCK     CODE     NEAR LAB  LVL=1
      01003619H   LINE      ---      ---       #552
      0100361DH   LINE      ---      ---       #553
      0100361DH   LINE      ---      ---       #554
      01003623H   LINE      ---      ---       #555
      01003626H   LINE      ---      ---       #556
      01003626H   LINE      ---      ---       #558
      0100362AH   LINE      ---      ---       #559
      0100362AH   LINE      ---      ---       #560
      01003630H   LINE      ---      ---       #561
      01003630H   LINE      ---      ---       #562
      01003634H   LINE      ---      ---       #563
      01003634H   LINE      ---      ---       #564
      01003639H   LINE      ---      ---       #565
      0100363BH   LINE      ---      ---       #566
      0100363BH   LINE      ---      ---       #568
      01003649H   LINE      ---      ---       #569
      01003649H   LINE      ---      ---       #570
      01003650H   LINE      ---      ---       #572
      01003653H   LINE      ---      ---       #573
      01003662H   LINE      ---      ---       #574
      01003664H   LINE      ---      ---       #576
      01003664H   LINE      ---      ---       #577
      0100366CH   LINE      ---      ---       #578
      0100367DH   LINE      ---      ---       #580
      01003684H   LINE      ---      ---       #581
      01003684H   LINE      ---      ---       #583
      01003686H   LINE      ---      ---       #584
      02004C9EH   SYMBOL    XDATA    VOID      B_Weight_Downing_Lock
      ---         BLOCKEND  CODE     ---       LVL=1
      ---         BLOCKEND  CODE     ---       LVL=0

      010017E5H   BLOCK     CODE     ---       LVL=0
      010017E5H   LINE      ---      ---       #627
      010017E5H   LINE      ---      ---       #628
      010017E5H   BLOCK     CODE     NEAR LAB  LVL=1
      010017E5H   LINE      ---      ---       #631
      010017E5H   LINE      ---      ---       #632
      010017E5H   LINE      ---      ---       #633
      010017E5H   LINE      ---      ---       #634
      010017E5H   LINE      ---      ---       #635
      010017E5H   LINE      ---      ---       #637
      010017EAH   LINE      ---      ---       #639
      010017EEH   LINE      ---      ---       #640
      010017F4H   LINE      ---      ---       #642
      010017F6H   LINE      ---      ---       #643
      02004C9FH   SYMBOL    XDATA    VOID      B_Weight_LowBat
      ---         BLOCKEND  CODE     ---       LVL=1
      ---         BLOCKEND  CODE     ---       LVL=0

      01003687H   BLOCK     CODE     ---       LVL=0
      01003687H   LINE      ---      ---       #646
      01003687H   LINE      ---      ---       #647
      01003687H   BLOCK     CODE     NEAR LAB  LVL=1
      01003687H   LINE      ---      ---       #651
      0100368BH   LINE      ---      ---       #652
      0100368BH   LINE      ---      ---       #653
      01003690H   LINE      ---      ---       #654
      01003692H   LINE      ---      ---       #655
      01003694H   LINE      ---      ---       #656
      01003694H   LINE      ---      ---       #658
      010036A3H   LINE      ---      ---       #659
      010036A9H   LINE      ---      ---       #660
      010036B2H   LINE      ---      ---       #661
      010036B2H   LINE      ---      ---       #662
      010036B5H   LINE      ---      ---       #663
      010036B8H   LINE      ---      ---       #664
      010036BEH   LINE      ---      ---       #665
      010036C0H   LINE      ---      ---       #667
      010036C5H   LINE      ---      ---       #669
      010036C9H   LINE      ---      ---       #670
      010036CFH   LINE      ---      ---       #672
      010036D1H   LINE      ---      ---       #673
      02004CA0H   SYMBOL    XDATA    VOID      R_Weight_OverLoadTimes
      02004CA1H   SYMBOL    XDATA    VOID      B_Weight_OverLoad
      ---         BLOCKEND  CODE     ---       LVL=1
      ---         BLOCKEND  CODE     ---       LVL=0

      01002F4EH   BLOCK     CODE     ---       LVL=0
      01002F4EH   LINE      ---      ---       #678
      01002F4EH   LINE      ---      ---       #679
      01002F4EH   BLOCK     CODE     NEAR LAB  LVL=1
      01002F4EH   LINE      ---      ---       #688
      01002F52H   LINE      ---      ---       #689
      01002F52H   LINE      ---      ---       #690
      01002F57H   LINE      ---      ---       #691
      01002F59H   LINE      ---      ---       #692
      01002F5BH   LINE      ---      ---       #693
      01002F5DH   LINE      ---      ---       #694
      01002F5DH   LINE      ---      ---       #696
      01002F61H   LINE      ---      ---       #697
      01002F67H   LINE      ---      ---       #699
      01002F6BH   LINE      ---      ---       #700
      01002F71H   LINE      ---      ---       #702
      01002F7CH   LINE      ---      ---       #703
      01002F7CH   LINE      ---      ---       #705
      01002F92H   LINE      ---      ---       #706
      01002FA0H   LINE      ---      ---       #708
      01002FBBH   LINE      ---      ---       #710
      01002FCAH   LINE      ---      ---       #711
      01002FCAH   LINE      ---      ---       #712
      01002FD3H   LINE      ---      ---       #713
      01002FD6H   LINE      ---      ---       #714
      01002FD8H   LINE      ---      ---       #716
      01002FDDH   LINE      ---      ---       #719
      01002FEDH   LINE      ---      ---       #721
      01002FF2H   LINE      ---      ---       #722
      01002FF4H   LINE      ---      ---       #724
      01002FFDH   LINE      ---      ---       #725
      01002FFDH   LINE      ---      ---       #726
      01003007H   LINE      ---      ---       #727
      0100300BH   LINE      ---      ---       #728
      0100300DH   LINE      ---      ---       #730
      0100300DH   LINE      ---      ---       #731
      01003018H   LINE      ---      ---       #732
      01003018H   LINE      ---      ---       #733
      0100301EH   LINE      ---      ---       #735
      01003034H   LINE      ---      ---       #736
      01003042H   LINE      ---      ---       #738
      0100305DH   LINE      ---      ---       #741
      0100306CH   LINE      ---      ---       #742
      0100306CH   LINE      ---      ---       #743
      0100307AH   LINE      ---      ---       #744
      01003089H   LINE      ---      ---       #745
      01003089H   LINE      ---      ---       #747
      01003099H   LINE      ---      ---       #748
      010030A1H   LINE      ---      ---       #750
      010030A5H   LINE      ---      ---       #751
      010030AAH   LINE      ---      ---       #752
      010030AFH   LINE      ---      ---       #753
      010030B4H   LINE      ---      ---       #754
      010030B4H   LINE      ---      ---       #755
      010030B4H   LINE      ---      ---       #756
      010030B4H   LINE      ---      ---       #757
      010030B6H   LINE      ---      ---       #758
      02004E37H   SYMBOL    XDATA    VOID      weight_temp
      02004E39H   SYMBOL    XDATA    VOID      R_Weight_Temp
      02004CA2H   SYMBOL    XDATA    VOID      R_Weight_kg_old
      02004CA4H   SYMBOL    XDATA    VOID      R_Weight_SameTimes
      02004CA5H   SYMBOL    XDATA    VOID      B_Weight_SmallSteady
      02004CA6H   SYMBOL    XDATA    VOID      B_Weight_HeavySteady
      ---         BLOCKEND  CODE     ---       LVL=1
      ---         BLOCKEND  CODE     ---       LVL=0

      01002E15H   BLOCK     CODE     ---       LVL=0
      01002E15H   LINE      ---      ---       #767
      01002E15H   LINE      ---      ---       #768
      01002E15H   BLOCK     CODE     NEAR LAB  LVL=1
      01002E15H   LINE      ---      ---       #775
      01002E18H   LINE      ---      ---       #776
      01002E18H   LINE      ---      ---       #777
      01002E1DH   LINE      ---      ---       #779
      01002E1DH   LINE      ---      ---       #782
      01002E24H   LINE      ---      ---       #783
      01002E24H   LINE      ---      ---       #785
      01002E28H   LINE      ---      ---       #787
      01002E30H   LINE      ---      ---       #788
      01002E35H   LINE      ---      ---       #789
      01002E36H   LINE      ---      ---       #791
      01002E36H   LINE      ---      ---       #800
      01002E3CH   LINE      ---      ---       #801
      01002E3CH   LINE      ---      ---       #803
      01002E40H   LINE      ---      ---       #804
      01002E40H   LINE      ---      ---       #805
      01002E42H   LINE      ---      ---       #806
      01002E46H   LINE      ---      ---       #807
      01002E46H   LINE      ---      ---       #809
      01002E4DH   LINE      ---      ---       #810
      01002E4DH   LINE      ---      ---       #813
      01002E51H   LINE      ---      ---       #815
      01002E59H   LINE      ---      ---       #816
      01002E61H   LINE      ---      ---       #817
      01002E69H   LINE      ---      ---       #818
      01002E71H   LINE      ---      ---       #819
      01002E86H   LINE      ---      ---       #820
      01002E8FH   LINE      ---      ---       #821
      01002E95H   LINE      ---      ---       #823
      01002E99H   LINE      ---      ---       #827
      01002E99H   LINE      ---      ---       #829
      01002E99H   LINE      ---      ---       #831
      01002E99H   LINE      ---      ---       #832
      01002E9EH   LINE      ---      ---       #833
      01002EA7H   LINE      ---      ---       #834
      01002EAAH   LINE      ---      ---       #835
      01002EACH   LINE      ---      ---       #837
      01002EBBH   LINE      ---      ---       #838
      01002EBBH   LINE      ---      ---       #839
      01002EBBH   LINE      ---      ---       #858
      00000006H   SYMBOL    DATA     VOID      R_AD_BUF
      02004CA7H   SYMBOL    XDATA    VOID      B_Debug_Send
      02004CA8H   SYMBOL    XDATA    VOID      ReadUTC
      02004E13H   SYMBOL    XDATA    VOID      SendData
      ---         BLOCKEND  CODE     ---       LVL=1
      ---         BLOCKEND  CODE     ---       LVL=0

      01002EBCH   BLOCK     CODE     ---       LVL=0
      01002EBCH   LINE      ---      ---       #862
      01002EBCH   LINE      ---      ---       #863
      01002EBCH   BLOCK     CODE     NEAR LAB  LVL=1
      01002EBCH   LINE      ---      ---       #866
      01002ED2H   LINE      ---      ---       #867
      01002ED2H   LINE      ---      ---       #868
      01002EDFH   LINE      ---      ---       #869
      01002EE7H   LINE      ---      ---       #870
      01002EE7H   LINE      ---      ---       #871
      01002EEDH   LINE      ---      ---       #872
      01002EF1H   LINE      ---      ---       #873
      01002EF1H   LINE      ---      ---       #874
      01002EF1H   LINE      ---      ---       #876
      01002EF1H   LINE      ---      ---       #877
      01002F0DH   LINE      ---      ---       #878
      01002F15H   LINE      ---      ---       #879
      01002F15H   LINE      ---      ---       #881
      01002F1BH   LINE      ---      ---       #882
      01002F1FH   LINE      ---      ---       #883
      01002F23H   LINE      ---      ---       #885
      01002F23H   LINE      ---      ---       #886
      01002F23H   LINE      ---      ---       #888
      02004E57H   SYMBOL    XDATA    VOID      weight_temp
      ---         BLOCKEND  CODE     ---       LVL=1
      ---         BLOCKEND  CODE     ---       LVL=0

      010036D2H   BLOCK     CODE     ---       LVL=0
      010036D2H   LINE      ---      ---       #894
      010036D2H   LINE      ---      ---       #895
      010036D2H   BLOCK     CODE     NEAR LAB  LVL=1
      010036D2H   LINE      ---      ---       #899
      010036D6H   LINE      ---      ---       #900
      010036D6H   LINE      ---      ---       #901
      010036DBH   LINE      ---      ---       #902
      010036DDH   LINE      ---      ---       #903
      010036DDH   LINE      ---      ---       #905
      010036E1H   LINE      ---      ---       #906
      010036E1H   LINE      ---      ---       #907
      010036EAH   LINE      ---      ---       #908
      010036EDH   LINE      ---      ---       #909
      010036EDH   LINE      ---      ---       #911
      010036F3H   LINE      ---      ---       #912
      010036F3H   LINE      ---      ---       #913
      010036FCH   LINE      ---      ---       #914
      010036FCH   LINE      ---      ---       #915
      01003700H   LINE      ---      ---       #916
      01003707H   LINE      ---      ---       #917
      01003707H   LINE      ---      ---       #918
      01003707H   LINE      ---      ---       #919
      02004CA9H   SYMBOL    XDATA    VOID      timecount
      02004CAAH   SYMBOL    XDATA    VOID      B_Timeout
      ---         BLOCKEND  CODE     ---       LVL=1
      ---         BLOCKEND  CODE     ---       LVL=0

      01000A38H   BLOCK     CODE     ---       LVL=0
      01000A38H   LINE      ---      ---       #935
      01000A3AH   LINE      ---      ---       #936
      01000A3AH   BLOCK     CODE     NEAR LAB  LVL=1
      01000A3AH   LINE      ---      ---       #948
      01000A3EH   LINE      ---      ---       #949
      01000A3EH   LINE      ---      ---       #950
      01000A43H   LINE      ---      ---       #951
      01000A46H   LINE      ---      ---       #952
      01000A46H   LINE      ---      ---       #953
      01000A4DH   LINE      ---      ---       #954
      01000A4DH   LINE      ---      ---       #983
      01000A5AH   LINE      ---      ---       #984
      01000A6CH   LINE      ---      ---       #985
      01000A79H   LINE      ---      ---       #986
      01000A8BH   LINE      ---      ---       #987
      01000A98H   LINE      ---      ---       #988
      01000AAAH   LINE      ---      ---       #992
      01000AC3H   LINE      ---      ---       #993
      01000ADCH   LINE      ---      ---       #994
      01000AF5H   LINE      ---      ---       #995
      01000AF5H   LINE      ---      ---       #996
      01000AFFH   LINE      ---      ---       #997
      01000B07H   LINE      ---      ---       #998
      01000B0FH   LINE      ---      ---       #999
      01000B0FH   LINE      ---      ---       #1002
      01000B26H   LINE      ---      ---       #1003
      01000B2AH   LINE      ---      ---       #1004
      01000B2AH   LINE      ---      ---       #1005
      01000B2EH   LINE      ---      ---       #1006
      01000B2EH   LINE      ---      ---       #1007
      01000B45H   LINE      ---      ---       #1008
      01000B49H   LINE      ---      ---       #1009
      01000B49H   LINE      ---      ---       #1011
      01000B4DH   LINE      ---      ---       #1012
      01000B56H   LINE      ---      ---       #1013
      01000B5AH   LINE      ---      ---       #1014
      01000B63H   LINE      ---      ---       #1015
      01000B67H   LINE      ---      ---       #1016
      01000B70H   LINE      ---      ---       #1017
      01000B74H   LINE      ---      ---       #1018
      01000B7DH   LINE      ---      ---       #1020
      01000B8FH   LINE      ---      ---       #1021
      01000B9EH   LINE      ---      ---       #1022
      01000BABH   LINE      ---      ---       #1028
      01000BB1H   LINE      ---      ---       #1029
      01000BB1H   LINE      ---      ---       #1031
      01000BC1H   LINE      ---      ---       #1032
      01000BD0H   LINE      ---      ---       #1033
      01000BD0H   LINE      ---      ---       #1034
      01000BD5H   LINE      ---      ---       #1035
      01000BE2H   LINE      ---      ---       #1036
      01000BE6H   LINE      ---      ---       #1037
      01000BECH   LINE      ---      ---       #1038
      01000BECH   LINE      ---      ---       #1039
      01000BF9H   LINE      ---      ---       #1040
      01000BF9H   LINE      ---      ---       #1042
      01000C00H   LINE      ---      ---       #1043
      01000C00H   LINE      ---      ---       #1044
      01000C0AH   LINE      ---      ---       #1045
      01000C10H   LINE      ---      ---       #1046
      01000C18H   LINE      ---      ---       #1047
      01000C18H   LINE      ---      ---       #1049
      01000C22H   LINE      ---      ---       #1050
      01000C22H   LINE      ---      ---       #1051
      01000C30H   LINE      ---      ---       #1052
      01000C44H   LINE      ---      ---       #1054
      01000C66H   LINE      ---      ---       #1055
      01000C66H   LINE      ---      ---       #1056
      01000C75H   LINE      ---      ---       #1057
      01000C75H   LINE      ---      ---       #1058
      01000C82H   LINE      ---      ---       #1059
      01000C8FH   LINE      ---      ---       #1060
      01000C8FH   LINE      ---      ---       #1061
      01000C96H   LINE      ---      ---       #1062
      01000C98H   LINE      ---      ---       #1064
      01000C98H   LINE      ---      ---       #1065
      01000CB5H   LINE      ---      ---       #1066
      01000CB5H   LINE      ---      ---       #1067
      01000CB9H   LINE      ---      ---       #1068
      01000CC6H   LINE      ---      ---       #1069
      01000CCCH   LINE      ---      ---       #1070
      01000CCCH   LINE      ---      ---       #1071
      01000CCCH   LINE      ---      ---       #1072
      01000CD9H   LINE      ---      ---       #1074
      01000CD9H   LINE      ---      ---       #1076
      01000CE0H   LINE      ---      ---       #1077
      01000CE0H   LINE      ---      ---       #1078
      01000CEAH   LINE      ---      ---       #1079
      01000CF0H   LINE      ---      ---       #1080
      01000CF8H   LINE      ---      ---       #1081
      01000CF8H   LINE      ---      ---       #1083
      01000D02H   LINE      ---      ---       #1084
      01000D02H   LINE      ---      ---       #1085
      01000D10H   LINE      ---      ---       #1086
      01000D24H   LINE      ---      ---       #1088
      01000D47H   LINE      ---      ---       #1089
      01000D47H   LINE      ---      ---       #1090
      01000D4EH   LINE      ---      ---       #1091
      01000D50H   LINE      ---      ---       #1093
      01000D50H   LINE      ---      ---       #1094
      01000D64H   LINE      ---      ---       #1096
      01000D7AH   LINE      ---      ---       #1097
      01000D7AH   LINE      ---      ---       #1098
      01000D87H   LINE      ---      ---       #1099
      01000D8BH   LINE      ---      ---       #1100
      01000D91H   LINE      ---      ---       #1101
      01000D91H   LINE      ---      ---       #1102
      01000D91H   LINE      ---      ---       #1103
      01000D9EH   LINE      ---      ---       #1104
      01000D9EH   LINE      ---      ---       #1106
      01000DA5H   LINE      ---      ---       #1107
      01000DA5H   LINE      ---      ---       #1108
      01000DAFH   LINE      ---      ---       #1109
      01000DB5H   LINE      ---      ---       #1110
      01000DBDH   LINE      ---      ---       #1111
      01000DBDH   LINE      ---      ---       #1113
      01000DC7H   LINE      ---      ---       #1114
      01000DC7H   LINE      ---      ---       #1115
      01000DD5H   LINE      ---      ---       #1116
      01000DE9H   LINE      ---      ---       #1118
      01000E0CH   LINE      ---      ---       #1119
      01000E0CH   LINE      ---      ---       #1120
      01000E13H   LINE      ---      ---       #1121
      01000E15H   LINE      ---      ---       #1123
      01000E15H   LINE      ---      ---       #1124
      01000E26H   LINE      ---      ---       #1126
      01000E34H   LINE      ---      ---       #1127
      01000E34H   LINE      ---      ---       #1128
      01000E39H   LINE      ---      ---       #1130
      01000E3BH   LINE      ---      ---       #1132
      01000E3BH   LINE      ---      ---       #1133
      01000E4FH   LINE      ---      ---       #1135
      01000E65H   LINE      ---      ---       #1136
      01000E65H   LINE      ---      ---       #1137
      01000E69H   LINE      ---      ---       #1138
      01000E6FH   LINE      ---      ---       #1139
      01000E6FH   LINE      ---      ---       #1140
      01000E6FH   LINE      ---      ---       #1141
      01000E6FH   LINE      ---      ---       #1142
      01000E7CH   LINE      ---      ---       #1143
      01000E7CH   LINE      ---      ---       #1145
      01000E83H   LINE      ---      ---       #1146
      01000E83H   LINE      ---      ---       #1147
      01000E8DH   LINE      ---      ---       #1148
      01000E93H   LINE      ---      ---       #1149
      01000E9BH   LINE      ---      ---       #1150
      01000E9BH   LINE      ---      ---       #1152
      01000EA3H   LINE      ---      ---       #1153
      01000EA3H   LINE      ---      ---       #1155
      01000EB1H   LINE      ---      ---       #1156
      01000EBEH   LINE      ---      ---       #1157
      01000EC4H   LINE      ---      ---       #1158
      01000EDDH   LINE      ---      ---       #1166
      01000EE2H   LINE      ---      ---       #1167
      01000EECH   LINE      ---      ---       #1168
      01000EF9H   LINE      ---      ---       #1169
      01000EFCH   LINE      ---      ---       #1170
      01000F09H   LINE      ---      ---       #1171
      01000F0CH   LINE      ---      ---       #1172
      01000F11H   LINE      ---      ---       #1176
      01000F11H   LINE      ---      ---       #1177
      01000F14H   LINE      ---      ---       #1179
      02004CABH   SYMBOL    XDATA    VOID      R_AD_CaliDot1
      02004CADH   SYMBOL    XDATA    VOID      R_AD_CaliDot2
      02004CAFH   SYMBOL    XDATA    VOID      R_AD_CaliDot3
      02004CB1H   SYMBOL    XDATA    VOID      R_CaliState
      02004CB2H   SYMBOL    XDATA    VOID      R_OpenWeight_Ad
      02004DF5H   SYMBOL    XDATA    VOID      R_AdFilTimes
      02004DF7H   SYMBOL    XDATA    VOID      weight_temp
      02004DF9H   SYMBOL    XDATA    VOID      R_AD_BUF
      02004DFBH   SYMBOL    XDATA    VOID      R_AD_PowerOnZero
      ---         BLOCKEND  CODE     ---       LVL=1
      ---         BLOCKEND  CODE     ---       LVL=0

      01002B6EH   BLOCK     CODE     ---       LVL=0
      01002B6EH   LINE      ---      ---       #1191
      01002B6EH   LINE      ---      ---       #1192
      01002B6EH   BLOCK     CODE     NEAR LAB  LVL=1
      01002B6EH   LINE      ---      ---       #1196
      01002B72H   LINE      ---      ---       #1197
      01002B72H   LINE      ---      ---       #1198
      01002B77H   LINE      ---      ---       #1199
      01002B7CH   LINE      ---      ---       #1201
      01002B7CH   LINE      ---      ---       #1203
      01002B80H   LINE      ---      ---       #1204
      01002B80H   LINE      ---      ---       #1205
      01002B86H   LINE      ---      ---       #1206
      01002B8CH   LINE      ---      ---       #1208
      01002B8CH   LINE      ---      ---       #1210
      01002B96H   LINE      ---      ---       #1211
      01002B96H   LINE      ---      ---       #1212
      01002B96H   LINE      ---      ---       #1213
      01002B9CH   LINE      ---      ---       #1214
      01002B9CH   LINE      ---      ---       #1215
      01002B9EH   LINE      ---      ---       #1217
      01002BA2H   LINE      ---      ---       #1219
      01002BA2H   LINE      ---      ---       #1220
      01002BA9H   LINE      ---      ---       #1221
      01002BA9H   LINE      ---      ---       #1222
      01002BADH   LINE      ---      ---       #1223
      01002BB0H   LINE      ---      ---       #1225
      01002BB4H   LINE      ---      ---       #1226
      01002BB8H   LINE      ---      ---       #1227
      01002BC1H   LINE      ---      ---       #1235
      01002BC7H   LINE      ---      ---       #1237
      01002BC7H   LINE      ---      ---       #1238
      01002BC8H   LINE      ---      ---       #1239
      01002BC8H   LINE      ---      ---       #1240
      01002BCEH   LINE      ---      ---       #1241
      01002BCEH   LINE      ---      ---       #1242
      01002BD0H   LINE      ---      ---       #1243
      01002BD4H   LINE      ---      ---       #1244
      01002BD4H   LINE      ---      ---       #1245
      01002BD9H   LINE      ---      ---       #1246
      01002BD9H   LINE      ---      ---       #1247
      01002BDEH   LINE      ---      ---       #1248
      01002BE0H   LINE      ---      ---       #1249
      01002BE6H   LINE      ---      ---       #1259
      01002BEAH   LINE      ---      ---       #1260
      01002BEEH   LINE      ---      ---       #1261
      01002BF3H   LINE      ---      ---       #1263
      01002BF8H   LINE      ---      ---       #1265
      01002BFCH   LINE      ---      ---       #1267
      01002BFCH   LINE      ---      ---       #1268
      01002BFCH   LINE      ---      ---       #1269
      01002BFCH   LINE      ---      ---       #1270
      01002C01H   LINE      ---      ---       #1271
      01002C01H   LINE      ---      ---       #1272
      01002C01H   LINE      ---      ---       #1276
      02004CB4H   SYMBOL    XDATA    VOID      comm_doing
      02004CB5H   SYMBOL    XDATA    VOID      StandbyState
      ---         BLOCKEND  CODE     ---       LVL=1
      ---         BLOCKEND  CODE     ---       LVL=0

      01002D2CH   BLOCK     CODE     ---       LVL=0
      01002D2CH   LINE      ---      ---       #1290
      01002D2CH   LINE      ---      ---       #1291
      01002D2CH   BLOCK     CODE     NEAR LAB  LVL=1
      01002D2CH   LINE      ---      ---       #1296
      01002D2FH   LINE      ---      ---       #1297
      01002D2FH   LINE      ---      ---       #1298
      01002D34H   LINE      ---      ---       #1299
      01002D39H   LINE      ---      ---       #1301
      01002D39H   LINE      ---      ---       #1304
      01002D3FH   LINE      ---      ---       #1305
      01002D3FH   LINE      ---      ---       #1306
      01002D45H   LINE      ---      ---       #1307
      01002D45H   LINE      ---      ---       #1308
      01002D47H   LINE      ---      ---       #1309
      01002D4BH   LINE      ---      ---       #1310
      01002D4DH   LINE      ---      ---       #1312
      01002D4DH   LINE      ---      ---       #1313
      01002D52H   LINE      ---      ---       #1314
      01002D55H   LINE      ---      ---       #1315
      01002D55H   LINE      ---      ---       #1316
      01002D55H   LINE      ---      ---       #1318
      01002D5CH   LINE      ---      ---       #1319
      01002D5CH   LINE      ---      ---       #1320
      01002D62H   LINE      ---      ---       #1321
      01002D62H   LINE      ---      ---       #1322
      01002D64H   LINE      ---      ---       #1323
      01002D68H   LINE      ---      ---       #1325
      01002D68H   LINE      ---      ---       #1326
      01002D6DH   LINE      ---      ---       #1327
      01002D6DH   LINE      ---      ---       #1328
      01002D72H   LINE      ---      ---       #1329
      01002D76H   LINE      ---      ---       #1330
      01002D76H   LINE      ---      ---       #1331
      01002D76H   LINE      ---      ---       #1333
      01002D7DH   LINE      ---      ---       #1334
      01002D7DH   LINE      ---      ---       #1335
      01002D80H   LINE      ---      ---       #1336
      01002D80H   LINE      ---      ---       #1338
      01002D87H   LINE      ---      ---       #1339
      01002D87H   LINE      ---      ---       #1340
      01002D8DH   LINE      ---      ---       #1341
      01002D8DH   LINE      ---      ---       #1342
      01002D8FH   LINE      ---      ---       #1343
      01002D93H   LINE      ---      ---       #1344
      01002D93H   LINE      ---      ---       #1345
      01002D98H   LINE      ---      ---       #1346
      01002D98H   LINE      ---      ---       #1347
      01002D9DH   LINE      ---      ---       #1348
      01002DA1H   LINE      ---      ---       #1349
      01002DA1H   LINE      ---      ---       #1350
      01002DA1H   LINE      ---      ---       #1352
      01002DA8H   LINE      ---      ---       #1353
      01002DA8H   LINE      ---      ---       #1354
      01002DAEH   LINE      ---      ---       #1355
      01002DAEH   LINE      ---      ---       #1356
      01002DB0H   LINE      ---      ---       #1357
      01002DB4H   LINE      ---      ---       #1358
      01002DB4H   LINE      ---      ---       #1359
      01002DB9H   LINE      ---      ---       #1360
      01002DB9H   LINE      ---      ---       #1361
      01002DBEH   LINE      ---      ---       #1362
      01002DC2H   LINE      ---      ---       #1363
      01002DC2H   LINE      ---      ---       #1364
      01002DC2H   LINE      ---      ---       #1366
      01002DCAH   LINE      ---      ---       #1367
      01002DCAH   LINE      ---      ---       #1368
      01002DD0H   LINE      ---      ---       #1369
      01002DD0H   LINE      ---      ---       #1370
      01002DD2H   LINE      ---      ---       #1371
      01002DDBH   LINE      ---      ---       #1372
      01002DDFH   LINE      ---      ---       #1373
      01002DDFH   LINE      ---      ---       #1374
      01002DE4H   LINE      ---      ---       #1375
      01002DE4H   LINE      ---      ---       #1376
      01002DE9H   LINE      ---      ---       #1377
      01002DEDH   LINE      ---      ---       #1378
      01002DF2H   LINE      ---      ---       #1379
      01002DF2H   LINE      ---      ---       #1380
      01002DF2H   LINE      ---      ---       #1382
      01002DF9H   LINE      ---      ---       #1383
      01002DF9H   LINE      ---      ---       #1384
      01002E04H   LINE      ---      ---       #1385
      01002E04H   LINE      ---      ---       #1386
      01002E0AH   LINE      ---      ---       #1387
      01002E0EH   LINE      ---      ---       #1388
      01002E0EH   LINE      ---      ---       #1389
      01002E0EH   LINE      ---      ---       #1391
      02004CB6H   SYMBOL    XDATA    VOID      comm_doing
      02004CB7H   SYMBOL    XDATA    VOID      PowerOnState
      ---         BLOCKEND  CODE     ---       LVL=1
      ---         BLOCKEND  CODE     ---       LVL=0

      01000F15H   BLOCK     CODE     ---       LVL=0
      01000F15H   LINE      ---      ---       #1396
      01000F15H   LINE      ---      ---       #1397
      01000F15H   BLOCK     CODE     NEAR LAB  LVL=1
      01000F15H   LINE      ---      ---       #1401
      01000F19H   LINE      ---      ---       #1402
      01000F19H   LINE      ---      ---       #1403
      01000F1EH   LINE      ---      ---       #1404
      01000F20H   LINE      ---      ---       #1405
      01000F20H   LINE      ---      ---       #1407
      01000F24H   LINE      ---      ---       #1408
      01000F2AH   LINE      ---      ---       #1410
      01000F2DH   LINE      ---      ---       #1411
      01000F2DH   LINE      ---      ---       #1412
      01000F36H   LINE      ---      ---       #1413
      01000F39H   LINE      ---      ---       #1414
      01000F39H   LINE      ---      ---       #1417
      01000F42H   LINE      ---      ---       #1418
      01000F46H   LINE      ---      ---       #1420
      01000F4AH   LINE      ---      ---       #1421
      01000F50H   LINE      ---      ---       #1423
      01000F52H   LINE      ---      ---       #1425
      02004CB8H   SYMBOL    XDATA    VOID      timecount
      02004CB9H   SYMBOL    XDATA    VOID      B_Timeout
      ---         BLOCKEND  CODE     ---       LVL=1
      ---         BLOCKEND  CODE     ---       LVL=0

      01002C02H   BLOCK     CODE     ---       LVL=0
      01002C02H   LINE      ---      ---       #1444
      01002C02H   LINE      ---      ---       #1445
      01002C02H   BLOCK     CODE     NEAR LAB  LVL=1
      01002C02H   LINE      ---      ---       #1449
      01002C06H   LINE      ---      ---       #1450
      01002C06H   LINE      ---      ---       #1451
      01002C0DH   LINE      ---      ---       #1453
      01002C0DH   LINE      ---      ---       #1455
      01002C10H   LINE      ---      ---       #1456
      01002C10H   LINE      ---      ---       #1457
      01002C13H   LINE      ---      ---       #1458
      01002C18H   LINE      ---      ---       #1459
      01002C1CH   LINE      ---      ---       #1460
      01002C21H   LINE      ---      ---       #1461
      01002C25H   LINE      ---      ---       #1462
      01002C2AH   LINE      ---      ---       #1463
      01002C2EH   LINE      ---      ---       #1464
      01002C33H   LINE      ---      ---       #1465
      01002C37H   LINE      ---      ---       #1466
      01002C3CH   LINE      ---      ---       #1467
      01002C43H   LINE      ---      ---       #1468
      01002C43H   LINE      ---      ---       #1469
      01002C47H   LINE      ---      ---       #1470
      01002C49H   LINE      ---      ---       #1471
      01002C4BH   LINE      ---      ---       #1472
      01002C4DH   LINE      ---      ---       #1473
      01002C4FH   LINE      ---      ---       #1474
      01002C50H   LINE      ---      ---       #1476
      01002C50H   LINE      ---      ---       #1478
      01002C5AH   LINE      ---      ---       #1479
      01002C5AH   LINE      ---      ---       #1480
      01002C5BH   LINE      ---      ---       #1483
      01002C63H   LINE      ---      ---       #1484
      01002C63H   LINE      ---      ---       #1485
      01002C69H   LINE      ---      ---       #1487
      01002C71H   LINE      ---      ---       #1488
      01002C71H   LINE      ---      ---       #1489
      01002C77H   LINE      ---      ---       #1490
      01002C7BH   LINE      ---      ---       #1491
      01002C80H   LINE      ---      ---       #1492
      01002C81H   LINE      ---      ---       #1494
      01002C81H   LINE      ---      ---       #1497
      01002C89H   LINE      ---      ---       #1498
      01002C89H   LINE      ---      ---       #1499
      01002C8FH   LINE      ---      ---       #1501
      01002C97H   LINE      ---      ---       #1502
      01002C97H   LINE      ---      ---       #1503
      01002C9DH   LINE      ---      ---       #1504
      01002CA1H   LINE      ---      ---       #1505
      01002CA6H   LINE      ---      ---       #1506
      01002CA7H   LINE      ---      ---       #1509
      01002CA7H   LINE      ---      ---       #1513
      01002CAFH   LINE      ---      ---       #1514
      01002CAFH   LINE      ---      ---       #1516
      01002CBCH   LINE      ---      ---       #1517
      01002CBCH   LINE      ---      ---       #1518
      01002CC0H   LINE      ---      ---       #1519
      01002CC6H   LINE      ---      ---       #1520
      01002CC8H   LINE      ---      ---       #1522
      01002CC8H   LINE      ---      ---       #1523
      01002CCDH   LINE      ---      ---       #1524
      01002CD3H   LINE      ---      ---       #1525
      01002CD3H   LINE      ---      ---       #1527
      01002CE5H   LINE      ---      ---       #1528
      01002CE5H   LINE      ---      ---       #1533
      01002CEBH   LINE      ---      ---       #1534
      01002CEFH   LINE      ---      ---       #1535
      01002CF4H   LINE      ---      ---       #1536
      01002CF8H   LINE      ---      ---       #1537
      01002CF9H   LINE      ---      ---       #1540
      01002CF9H   LINE      ---      ---       #1544
      01002D00H   LINE      ---      ---       #1545
      01002D00H   LINE      ---      ---       #1546
      01002D05H   LINE      ---      ---       #1547
      01002D0BH   LINE      ---      ---       #1549
      01002D11H   LINE      ---      ---       #1550
      01002D11H   LINE      ---      ---       #1552
      01002D17H   LINE      ---      ---       #1553
      01002D1BH   LINE      ---      ---       #1554
      01002D20H   LINE      ---      ---       #1555
      01002D20H   LINE      ---      ---       #1557
      01002D20H   LINE      ---      ---       #1560
      01002D20H   LINE      ---      ---       #1562
      02004CBAH   SYMBOL    XDATA    VOID      R_TimeOut
      02004CBFH   SYMBOL    XDATA    VOID      B_TimeBase_1s
      ---         BLOCKEND  CODE     ---       LVL=1
      ---         BLOCKEND  CODE     ---       LVL=0

      ---         MODULE    ---      ---       CS_COMMTO1186
      02004D68H   PUBLIC    XDATA    BYTE      uartTimeoutCnt
      02004D58H   PUBLIC    XDATA    ---       uartTxBuf
      02004D55H   PUBLIC    XDATA    ---       R_Weight_Com_Coo
      02004D45H   PUBLIC    XDATA    ---       uartRcvBuf
      01002481H   PUBLIC    CODE     ---       _CS_CommTo1186_SendCmd
      01002785H   PUBLIC    CODE     ---       _CS_CommTo1186_Xor
      01000701H   PUBLIC    CODE     ---       CS_1186Com_Reset_Proc
      01003892H   PUBLIC    CODE     ---       CS_1186Com_ReadAdZero_Proc
      0100071BH   PUBLIC    CODE     ---       CS_1186Com_SetOpenWeight_Proc
      0100066DH   PUBLIC    CODE     ---       CS_1186Com_SetSleepMode_Proc
      010005E2H   PUBLIC    CODE     ---       CS_1186Com_ReadTime_Proc
      0100052DH   PUBLIC    CODE     ---       CS_1186Com_SetLcd_Proc
      010037BCH   PUBLIC    CODE     ---       CS_1186Com_ReadAdc_Proc
      01003708H   PUBLIC    CODE     ---       CS_1186Com_ReadMacAdress_Proc
      010004E5H   PUBLIC    CODE     ---       CS_Scale_1186Com
      01002E0FH   PUBLIC    CODE     ---       CS_If1186ComSucess
      01002D21H   PUBLIC    CODE     ---       _CS_Scale_1186ComSend

      01002D21H   BLOCK     CODE     ---       LVL=0
      01002D21H   LINE      ---      ---       #18
      01002D21H   LINE      ---      ---       #19
      01002D21H   LINE      ---      ---       #20
      01002D26H   LINE      ---      ---       #21
      01002D2BH   LINE      ---      ---       #22
      ---         BLOCKEND  ---      ---       LVL=0

      01002E0FH   BLOCK     CODE     ---       LVL=0
      01002E0FH   LINE      ---      ---       #25
      01002E0FH   LINE      ---      ---       #26
      01002E0FH   LINE      ---      ---       #27
      01002E14H   LINE      ---      ---       #28
      ---         BLOCKEND  ---      ---       LVL=0

      010004E5H   BLOCK     CODE     ---       LVL=0
      010004E5H   LINE      ---      ---       #31
      010004E5H   LINE      ---      ---       #32
      010004E5H   LINE      ---      ---       #34
      010004EEH   LINE      ---      ---       #35
      010004EEH   LINE      ---      ---       #37
      010004FFH   LINE      ---      ---       #38
      010004FFH   LINE      ---      ---       #39
      010004FFH   LINE      ---      ---       #40
      01000501H   LINE      ---      ---       #41
      01000504H   LINE      ---      ---       #42
      01000506H   LINE      ---      ---       #43
      01000508H   LINE      ---      ---       #44
      0100050AH   LINE      ---      ---       #45
      0100050AH   LINE      ---      ---       #46
      0100050AH   LINE      ---      ---       #47
      0100050CH   LINE      ---      ---       #48
      0100050FH   LINE      ---      ---       #49
      01000511H   LINE      ---      ---       #50
      01000511H   LINE      ---      ---       #51
      01000511H   LINE      ---      ---       #52
      01000511H   LINE      ---      ---       #53
      01000511H   LINE      ---      ---       #54
      01000513H   LINE      ---      ---       #55
      01000516H   LINE      ---      ---       #56
      01000518H   LINE      ---      ---       #69
      01000518H   LINE      ---      ---       #70
      01000518H   LINE      ---      ---       #71
      01000518H   LINE      ---      ---       #72
      01000518H   LINE      ---      ---       #73
      01000519H   LINE      ---      ---       #75
      01000519H   LINE      ---      ---       #76
      0100051BH   LINE      ---      ---       #77
      01000520H   LINE      ---      ---       #78
      01000526H   LINE      ---      ---       #79
      0100052CH   LINE      ---      ---       #80
      0100052CH   LINE      ---      ---       #82
      ---         BLOCKEND  ---      ---       LVL=0

      01003708H   BLOCK     CODE     ---       LVL=0
      01003708H   LINE      ---      ---       #86
      01003708H   LINE      ---      ---       #87
      01003708H   BLOCK     CODE     NEAR LAB  LVL=1
      01003708H   LINE      ---      ---       #91
      0100370DH   LINE      ---      ---       #92
      01003715H   LINE      ---      ---       #94
      0100371CH   LINE      ---      ---       #95
      0100371CH   LINE      ---      ---       #96
      01003722H   LINE      ---      ---       #97
      01003726H   LINE      ---      ---       #98
      0100372AH   LINE      ---      ---       #99
      01003735H   LINE      ---      ---       #100
      0100373BH   LINE      ---      ---       #101
      01003741H   LINE      ---      ---       #102
      01003746H   LINE      ---      ---       #103
      01003749H   LINE      ---      ---       #104
      01003749H   LINE      ---      ---       #105
      01003751H   LINE      ---      ---       #106
      01003751H   LINE      ---      ---       #107
      01003763H   LINE      ---      ---       #108
      01003763H   LINE      ---      ---       #109
      01003782H   LINE      ---      ---       #112
      01003782H   LINE      ---      ---       #117
      0100378AH   LINE      ---      ---       #118
      01003790H   LINE      ---      ---       #119
      01003798H   LINE      ---      ---       #120
      0100379EH   LINE      ---      ---       #121
      010037A4H   LINE      ---      ---       #122
      010037AAH   LINE      ---      ---       #135
      010037AFH   LINE      ---      ---       #136
      010037B4H   LINE      ---      ---       #137
      010037B5H   LINE      ---      ---       #139
      010037BBH   LINE      ---      ---       #140
      010037BBH   LINE      ---      ---       #141
      010037BBH   LINE      ---      ---       #142
      02004E4BH   SYMBOL    XDATA    VOID      i
      02004E4CH   SYMBOL    XDATA    VOID      ptr
      ---         BLOCKEND  CODE     ---       LVL=1
      ---         BLOCKEND  CODE     ---       LVL=0

      010037BCH   BLOCK     CODE     ---       LVL=0
      010037BCH   LINE      ---      ---       #145
      010037BCH   LINE      ---      ---       #146
      010037BCH   BLOCK     CODE     NEAR LAB  LVL=1
      010037BCH   LINE      ---      ---       #149
      010037C3H   LINE      ---      ---       #150
      010037C3H   LINE      ---      ---       #151
      010037CEH   LINE      ---      ---       #152
      010037D4H   LINE      ---      ---       #153
      010037DAH   LINE      ---      ---       #154
      010037DFH   LINE      ---      ---       #155
      010037E2H   LINE      ---      ---       #156
      010037E2H   LINE      ---      ---       #157
      010037EDH   LINE      ---      ---       #158
      010037EDH   LINE      ---      ---       #159
      01003801H   LINE      ---      ---       #160
      01003801H   LINE      ---      ---       #161
      0100380BH   LINE      ---      ---       #162
      0100380BH   LINE      ---      ---       #165
      01003813H   LINE      ---      ---       #167
      01003816H   LINE      ---      ---       #168
      01003816H   LINE      ---      ---       #169
      0100381CH   LINE      ---      ---       #170
      01003825H   LINE      ---      ---       #171
      01003845H   LINE      ---      ---       #172
      01003865H   LINE      ---      ---       #173
      01003872H   LINE      ---      ---       #174
      01003872H   LINE      ---      ---       #176
      01003878H   LINE      ---      ---       #177
      0100387EH   LINE      ---      ---       #179
      01003884H   LINE      ---      ---       #180
      0100388AH   LINE      ---      ---       #182
      0100388BH   LINE      ---      ---       #184
      01003891H   LINE      ---      ---       #185
      01003891H   LINE      ---      ---       #186
      01003891H   LINE      ---      ---       #187
      00000004H   SYMBOL    DATA     VOID      data_rec
      ---         BLOCKEND  CODE     ---       LVL=1
      ---         BLOCKEND  CODE     ---       LVL=0

      0100052DH   BLOCK     CODE     ---       LVL=0
      0100052DH   LINE      ---      ---       #191
      0100052DH   LINE      ---      ---       #192
      0100052DH   LINE      ---      ---       #194
      01000534H   LINE      ---      ---       #195
      01000534H   LINE      ---      ---       #196
      0100053FH   LINE      ---      ---       #197
      01000545H   LINE      ---      ---       #198
      0100054BH   LINE      ---      ---       #199
      01000550H   LINE      ---      ---       #200
      01000552H   LINE      ---      ---       #201
      01000552H   LINE      ---      ---       #202
      0100055AH   LINE      ---      ---       #203
      0100055AH   LINE      ---      ---       #204
      0100056BH   LINE      ---      ---       #205
      0100056BH   LINE      ---      ---       #206
      01000572H   LINE      ---      ---       #207
      01000572H   LINE      ---      ---       #208
      01000578H   LINE      ---      ---       #209
      0100057EH   LINE      ---      ---       #211
      01000584H   LINE      ---      ---       #212
      0100058AH   LINE      ---      ---       #213
      0100058BH   LINE      ---      ---       #215
      01000591H   LINE      ---      ---       #216
      01000591H   LINE      ---      ---       #217
      01000591H   LINE      ---      ---       #218
      ---         BLOCKEND  ---      ---       LVL=0

      010005E2H   BLOCK     CODE     ---       LVL=0
      010005E2H   LINE      ---      ---       #222
      010005E2H   LINE      ---      ---       #223
      010005E2H   LINE      ---      ---       #225
      010005E9H   LINE      ---      ---       #226
      010005E9H   LINE      ---      ---       #227
      010005F4H   LINE      ---      ---       #228
      010005FAH   LINE      ---      ---       #229
      01000600H   LINE      ---      ---       #230
      01000605H   LINE      ---      ---       #231
      01000607H   LINE      ---      ---       #232
      01000607H   LINE      ---      ---       #233
      0100060FH   LINE      ---      ---       #234
      0100060FH   LINE      ---      ---       #235
      01000620H   LINE      ---      ---       #236
      01000620H   LINE      ---      ---       #237
      01000627H   LINE      ---      ---       #238
      01000627H   LINE      ---      ---       #240
      0100062DH   LINE      ---      ---       #241
      01000635H   LINE      ---      ---       #242
      0100063DH   LINE      ---      ---       #243
      01000645H   LINE      ---      ---       #266
      0100064AH   LINE      ---      ---       #267
      0100064FH   LINE      ---      ---       #268
      01000653H   LINE      ---      ---       #270
      01000654H   LINE      ---      ---       #272
      0100065AH   LINE      ---      ---       #273
      0100065AH   LINE      ---      ---       #274
      0100065AH   LINE      ---      ---       #275
      ---         BLOCKEND  ---      ---       LVL=0

      0100066DH   BLOCK     CODE     ---       LVL=0
      0100066DH   LINE      ---      ---       #279
      0100066DH   LINE      ---      ---       #280
      0100066DH   BLOCK     CODE     NEAR LAB  LVL=1
      0100066DH   LINE      ---      ---       #283
      01000679H   LINE      ---      ---       #285
      01000681H   LINE      ---      ---       #286
      01000681H   LINE      ---      ---       #288
      01000687H   LINE      ---      ---       #289
      01000695H   LINE      ---      ---       #290
      010006A5H   LINE      ---      ---       #291
      010006ACH   LINE      ---      ---       #292
      010006AFH   LINE      ---      ---       #293
      010006BAH   LINE      ---      ---       #295
      010006BCH   LINE      ---      ---       #297
      010006C2H   LINE      ---      ---       #298
      010006C8H   LINE      ---      ---       #299
      010006CDH   LINE      ---      ---       #300
      010006CFH   LINE      ---      ---       #301
      010006CFH   LINE      ---      ---       #302
      010006D6H   LINE      ---      ---       #303
      010006D6H   LINE      ---      ---       #304
      010006E8H   LINE      ---      ---       #305
      010006E8H   LINE      ---      ---       #306
      010006EFH   LINE      ---      ---       #307
      010006EFH   LINE      ---      ---       #308
      010006F4H   LINE      ---      ---       #309
      010006F9H   LINE      ---      ---       #310
      010006FAH   LINE      ---      ---       #312
      01000700H   LINE      ---      ---       #313
      01000700H   LINE      ---      ---       #314
      01000700H   LINE      ---      ---       #315
      00000004H   SYMBOL    DATA     VOID      R_AD_Zero
      ---         BLOCKEND  CODE     ---       LVL=1
      ---         BLOCKEND  CODE     ---       LVL=0

      0100071BH   BLOCK     CODE     ---       LVL=0
      0100071BH   LINE      ---      ---       #320
      0100071BH   LINE      ---      ---       #321
      0100071BH   BLOCK     CODE     NEAR LAB  LVL=1
      0100071BH   LINE      ---      ---       #323
      01000724H   LINE      ---      ---       #324
      0100072CH   LINE      ---      ---       #325
      0100072CH   LINE      ---      ---       #326
      01000732H   LINE      ---      ---       #327
      01000741H   LINE      ---      ---       #328
      01000752H   LINE      ---      ---       #329
      01000755H   LINE      ---      ---       #330
      01000758H   LINE      ---      ---       #331
      01000763H   LINE      ---      ---       #332
      01000769H   LINE      ---      ---       #333
      0100076FH   LINE      ---      ---       #334
      01000774H   LINE      ---      ---       #335
      01000776H   LINE      ---      ---       #336
      01000776H   LINE      ---      ---       #337
      0100077DH   LINE      ---      ---       #338
      0100077DH   LINE      ---      ---       #339
      0100078FH   LINE      ---      ---       #340
      0100078FH   LINE      ---      ---       #341
      01000796H   LINE      ---      ---       #342
      01000796H   LINE      ---      ---       #346
      0100079BH   LINE      ---      ---       #347
      010007A0H   LINE      ---      ---       #350
      010007A1H   LINE      ---      ---       #352
      010007A7H   LINE      ---      ---       #353
      010007A7H   LINE      ---      ---       #354
      010007A7H   LINE      ---      ---       #355
      00000004H   SYMBOL    DATA     VOID      R_Open_Weight
      ---         BLOCKEND  CODE     ---       LVL=1
      ---         BLOCKEND  CODE     ---       LVL=0

      01003892H   BLOCK     CODE     ---       LVL=0
      01003892H   LINE      ---      ---       #359
      01003892H   LINE      ---      ---       #360
      01003892H   BLOCK     CODE     NEAR LAB  LVL=1
      01003892H   LINE      ---      ---       #364
      01003899H   LINE      ---      ---       #365
      01003899H   LINE      ---      ---       #366
      010038A4H   LINE      ---      ---       #367
      010038AAH   LINE      ---      ---       #368
      010038B0H   LINE      ---      ---       #369
      010038B5H   LINE      ---      ---       #370
      010038B8H   LINE      ---      ---       #371
      010038B8H   LINE      ---      ---       #372
      010038C2H   LINE      ---      ---       #373
      010038C2H   LINE      ---      ---       #374
      010038D4H   LINE      ---      ---       #375
      010038D4H   LINE      ---      ---       #376
      010038DCH   LINE      ---      ---       #377
      010038DCH   LINE      ---      ---       #378
      010038E3H   LINE      ---      ---       #379
      01003903H   LINE      ---      ---       #380
      01003923H   LINE      ---      ---       #381
      01003928H   LINE      ---      ---       #382
      01003931H   LINE      ---      ---       #384
      01003936H   LINE      ---      ---       #385
      0100393BH   LINE      ---      ---       #387
      0100393CH   LINE      ---      ---       #389
      01003942H   LINE      ---      ---       #390
      01003942H   LINE      ---      ---       #391
      01003942H   LINE      ---      ---       #392
      00000004H   SYMBOL    DATA     VOID      data_rec
      00000006H   SYMBOL    DATA     VOID      R_AD_Zero
      ---         BLOCKEND  CODE     ---       LVL=1
      ---         BLOCKEND  CODE     ---       LVL=0

      01000701H   BLOCK     CODE     ---       LVL=0
      01000701H   LINE      ---      ---       #396
      01000701H   LINE      ---      ---       #397
      01000701H   LINE      ---      ---       #399
      01000708H   LINE      ---      ---       #400
      01000708H   LINE      ---      ---       #401
      01000713H   LINE      ---      ---       #402
      01000715H   LINE      ---      ---       #403
      0100071AH   LINE      ---      ---       #405
      0100071AH   LINE      ---      ---       #407
      ---         BLOCKEND  ---      ---       LVL=0

      01002785H   BLOCK     CODE     ---       LVL=0
      01002785H   LINE      ---      ---       #411
      01002790H   LINE      ---      ---       #412
      01002790H   BLOCK     CODE     NEAR LAB  LVL=1
      01002790H   LINE      ---      ---       #414
      01002797H   LINE      ---      ---       #415
      01002797H   LINE      ---      ---       #416
      010027C9H   LINE      ---      ---       #417
      010027CCH   LINE      ---      ---       #418
      010027DEH   LINE      ---      ---       #419
      00000007H   SYMBOL    DATA     VOID      i
      ---         BLOCKEND  CODE     ---       LVL=1
      ---         BLOCKEND  CODE     ---       LVL=0

      01002481H   BLOCK     CODE     ---       LVL=0
      01002481H   LINE      ---      ---       #421
      0100248FH   LINE      ---      ---       #422
      0100248FH   BLOCK     CODE     NEAR LAB  LVL=1
      0100248FH   LINE      ---      ---       #423
      010024A2H   LINE      ---      ---       #426
      010024A8H   LINE      ---      ---       #427
      010024D7H   LINE      ---      ---       #428
      010024D7H   LINE      ---      ---       #429
      010024D7H   LINE      ---      ---       #430
      010024DCH   LINE      ---      ---       #431
      010024DEH   LINE      ---      ---       #432
      010024E0H   LINE      ---      ---       #433
      010024E6H   LINE      ---      ---       #434
      010024E8H   LINE      ---      ---       #435
      010024E8H   LINE      ---      ---       #436
      010024EEH   LINE      ---      ---       #437
      010024F2H   LINE      ---      ---       #438
      010024F6H   LINE      ---      ---       #439
      010024FCH   LINE      ---      ---       #440
      010024FEH   LINE      ---      ---       #441
      010024FEH   LINE      ---      ---       #442
      01002504H   LINE      ---      ---       #443
      01002508H   LINE      ---      ---       #444
      0100250CH   LINE      ---      ---       #445
      01002512H   LINE      ---      ---       #446
      01002514H   LINE      ---      ---       #447
      01002514H   LINE      ---      ---       #448
      0100251AH   LINE      ---      ---       #449
      0100251EH   LINE      ---      ---       #450
      01002522H   LINE      ---      ---       #451
      01002528H   LINE      ---      ---       #452
      0100252AH   LINE      ---      ---       #453
      0100252AH   LINE      ---      ---       #454
      01002530H   LINE      ---      ---       #455
      01002534H   LINE      ---      ---       #456
      01002549H   LINE      ---      ---       #457
      01002550H   LINE      ---      ---       #458
      0100255FH   LINE      ---      ---       #459
      01002565H   LINE      ---      ---       #460
      01002567H   LINE      ---      ---       #461
      01002567H   LINE      ---      ---       #462
      0100256DH   LINE      ---      ---       #463
      01002571H   LINE      ---      ---       #464
      01002586H   LINE      ---      ---       #465
      01002590H   LINE      ---      ---       #466
      01002597H   LINE      ---      ---       #467
      010025A6H   LINE      ---      ---       #468
      010025ACH   LINE      ---      ---       #469
      010025AEH   LINE      ---      ---       #470
      010025AEH   LINE      ---      ---       #471
      010025B4H   LINE      ---      ---       #472
      010025B8H   LINE      ---      ---       #473
      010025BCH   LINE      ---      ---       #474
      010025C2H   LINE      ---      ---       #475
      010025C4H   LINE      ---      ---       #476
      010025C4H   LINE      ---      ---       #477
      010025CAH   LINE      ---      ---       #478
      010025CEH   LINE      ---      ---       #479
      010025E3H   LINE      ---      ---       #480
      010025EDH   LINE      ---      ---       #481
      010025F7H   LINE      ---      ---       #482
      010025FEH   LINE      ---      ---       #483
      0100260DH   LINE      ---      ---       #484
      01002613H   LINE      ---      ---       #485
      01002615H   LINE      ---      ---       #486
      01002615H   LINE      ---      ---       #487
      0100261BH   LINE      ---      ---       #488
      0100261FH   LINE      ---      ---       #489
      01002634H   LINE      ---      ---       #490
      0100263EH   LINE      ---      ---       #491
      01002648H   LINE      ---      ---       #492
      01002652H   LINE      ---      ---       #493
      01002659H   LINE      ---      ---       #494
      01002668H   LINE      ---      ---       #495
      0100266EH   LINE      ---      ---       #496
      01002670H   LINE      ---      ---       #497
      01002670H   LINE      ---      ---       #498
      01002676H   LINE      ---      ---       #499
      0100267AH   LINE      ---      ---       #500
      0100268FH   LINE      ---      ---       #501
      01002699H   LINE      ---      ---       #502
      010026A3H   LINE      ---      ---       #503
      010026AAH   LINE      ---      ---       #504
      010026B9H   LINE      ---      ---       #505
      010026BFH   LINE      ---      ---       #506
      010026C1H   LINE      ---      ---       #507
      010026C1H   LINE      ---      ---       #508
      010026C7H   LINE      ---      ---       #509
      010026CBH   LINE      ---      ---       #510
      010026E0H   LINE      ---      ---       #511
      010026EAH   LINE      ---      ---       #512
      010026F1H   LINE      ---      ---       #513
      01002700H   LINE      ---      ---       #514
      01002706H   LINE      ---      ---       #515
      01002708H   LINE      ---      ---       #516
      01002708H   LINE      ---      ---       #517
      0100270EH   LINE      ---      ---       #518
      01002712H   LINE      ---      ---       #519
      01002727H   LINE      ---      ---       #520
      01002731H   LINE      ---      ---       #521
      0100273BH   LINE      ---      ---       #522
      01002745H   LINE      ---      ---       #523
      0100274FH   LINE      ---      ---       #524
      01002756H   LINE      ---      ---       #525
      01002765H   LINE      ---      ---       #526
      01002769H   LINE      ---      ---       #527
      0100276BH   LINE      ---      ---       #528
      0100276BH   LINE      ---      ---       #529
      01002770H   LINE      ---      ---       #530
      01002776H   LINE      ---      ---       #531
      01002776H   LINE      ---      ---       #532
      01002776H   LINE      ---      ---       #533
      02004D86H   SYMBOL    XDATA    VOID      buf
      02004D90H   SYMBOL    XDATA    VOID      len
      ---         BLOCKEND  CODE     ---       LVL=1
      ---         BLOCKEND  CODE     ---       LVL=0

      ---         MODULE    ---      ---       CS_SCALEDISPLAY
      02004D2EH   PUBLIC    XDATA    ---       CS_Lcd_Table
      02004D28H   PUBLIC    XDATA    ---       CS_Lcd_Send_Data
      02004D23H   PUBLIC    XDATA    ---       CS_lcd_showbuf
      02004D1DH   PUBLIC    XDATA    ---       CS_Lcd_Send_Data_BAK
      01000F73H   PUBLIC    CODE     ---       CS_ScaleDisplay_SteadyFlash
      01000FC3H   PUBLIC    CODE     ---       CS_ScaleDisplay_LcdRestore
      01003AB3H   PUBLIC    CODE     ---       CS_ScaleDisplay_LcdBackup
      01003AA4H   PUBLIC    CODE     ---       CS_ScaleDisplay_LcdShowAll
      01000FA8H   PUBLIC    CODE     ---       CS_ScaleDisplay_LcdShowNoDigit
      01003A96H   PUBLIC    CODE     ---       CS_ScaleDisplay_LcdShowNull
      010017CBH   PUBLIC    CODE     ---       _CS_ScaleDisplay_LookUpTable
      01003994H   PUBLIC    CODE     ---       _CS_ScaleDisplay_HexToBcd
      010039FFH   PUBLIC    CODE     ---       CS_ScaleDisplay_LcdBuf_rShift4
      010015F8H   PUBLIC    CODE     ---       _CS_ScaleDisplay_FreshBuf
      01003943H   PUBLIC    CODE     ---       CS_ScaleDisplay_Debug
      01001539H   PUBLIC    CODE     ---       CS_ScaleDisplay

      01001539H   BLOCK     CODE     ---       LVL=0
      01001539H   LINE      ---      ---       #14
      01001539H   LINE      ---      ---       #15
      01001539H   BLOCK     CODE     NEAR LAB  LVL=1
      01001539H   LINE      ---      ---       #18
      01001541H   LINE      ---      ---       #19
      01001541H   LINE      ---      ---       #20
      01001549H   LINE      ---      ---       #21
      01001550H   LINE      ---      ---       #22
      01001557H   LINE      ---      ---       #23
      0100155EH   LINE      ---      ---       #24
      0100156DH   LINE      ---      ---       #25
      01001573H   LINE      ---      ---       #27
      01001573H   LINE      ---      ---       #28
      01001579H   LINE      ---      ---       #29
      01001579H   LINE      ---      ---       #30
      01001589H   LINE      ---      ---       #31
      0100158DH   LINE      ---      ---       #32
      0100158DH   LINE      ---      ---       #33
      01001594H   LINE      ---      ---       #34
      01001594H   LINE      ---      ---       #35
      010015A4H   LINE      ---      ---       #36
      010015A8H   LINE      ---      ---       #37
      010015A8H   LINE      ---      ---       #38
      010015AFH   LINE      ---      ---       #39
      010015AFH   LINE      ---      ---       #40
      010015C5H   LINE      ---      ---       #41
      010015C9H   LINE      ---      ---       #42
      010015C9H   LINE      ---      ---       #43
      010015D0H   LINE      ---      ---       #44
      010015D0H   LINE      ---      ---       #45
      010015DFH   LINE      ---      ---       #46
      010015F3H   LINE      ---      ---       #47
      010015F7H   LINE      ---      ---       #48
      010015F7H   LINE      ---      ---       #49
      00000004H   SYMBOL    DATA     VOID      weight_temp
      ---         BLOCKEND  CODE     ---       LVL=1
      ---         BLOCKEND  CODE     ---       LVL=0

      01003943H   BLOCK     CODE     ---       LVL=0
      01003943H   LINE      ---      ---       #55
      01003943H   LINE      ---      ---       #56
      01003943H   BLOCK     CODE     NEAR LAB  LVL=1
      01003943H   LINE      ---      ---       #58
      01003953H   LINE      ---      ---       #60
      01003960H   LINE      ---      ---       #61
      0100396DH   LINE      ---      ---       #62
      0100397AH   LINE      ---      ---       #63
      01003987H   LINE      ---      ---       #65
      01003989H   LINE      ---      ---       #67
      02004E2AH   SYMBOL    XDATA    VOID      buf
      ---         BLOCKEND  CODE     ---       LVL=1
      ---         BLOCKEND  CODE     ---       LVL=0

      010015F8H   BLOCK     CODE     ---       LVL=0
      010015F8H   LINE      ---      ---       #73
      010015FDH   LINE      ---      ---       #74
      010015FDH   BLOCK     CODE     NEAR LAB  LVL=1
      010015FDH   LINE      ---      ---       #79
      01001600H   LINE      ---      ---       #80
      01001600H   LINE      ---      ---       #81
      01001606H   LINE      ---      ---       #82
      01001609H   LINE      ---      ---       #83
      0100160BH   LINE      ---      ---       #84
      0100160DH   LINE      ---      ---       #85
      0100160FH   LINE      ---      ---       #86
      0100160FH   LINE      ---      ---       #88
      01001617H   LINE      ---      ---       #89
      01001617H   LINE      ---      ---       #90
      0100161CH   LINE      ---      ---       #91
      01001620H   LINE      ---      ---       #92
      01001624H   LINE      ---      ---       #93
      01001627H   LINE      ---      ---       #94
      0100162BH   LINE      ---      ---       #95
      0100162BH   LINE      ---      ---       #97
      0100162FH   LINE      ---      ---       #98
      0100162FH   LINE      ---      ---       #99
      01001635H   LINE      ---      ---       #100
      01001637H   LINE      ---      ---       #101
      0100163BH   LINE      ---      ---       #102
      0100163FH   LINE      ---      ---       #103
      01001641H   LINE      ---      ---       #104
      01001641H   LINE      ---      ---       #106
      01001655H   LINE      ---      ---       #107
      01001655H   LINE      ---      ---       #108
      0100165AH   LINE      ---      ---       #109
      0100165EH   LINE      ---      ---       #110
      01001662H   LINE      ---      ---       #111
      01001666H   LINE      ---      ---       #112
      0100166AH   LINE      ---      ---       #113
      0100166EH   LINE      ---      ---       #114
      01001675H   LINE      ---      ---       #115
      0100167BH   LINE      ---      ---       #116
      01001683H   LINE      ---      ---       #117
      01001689H   LINE      ---      ---       #118
      0100168DH   LINE      ---      ---       #119
      01001693H   LINE      ---      ---       #120
      01001693H   LINE      ---      ---       #122
      010016B0H   LINE      ---      ---       #123
      010016B0H   LINE      ---      ---       #124
      010016BDH   LINE      ---      ---       #126
      010016C5H   LINE      ---      ---       #127
      010016C5H   LINE      ---      ---       #128
      010016CBH   LINE      ---      ---       #129
      010016D1H   LINE      ---      ---       #130
      010016D7H   LINE      ---      ---       #131
      010016DDH   LINE      ---      ---       #132
      010016E2H   LINE      ---      ---       #133
      010016E2H   LINE      ---      ---       #135
      010016ECH   LINE      ---      ---       #136
      010016EFH   LINE      ---      ---       #137
      010016FAH   LINE      ---      ---       #138
      010016FDH   LINE      ---      ---       #140
      01001701H   LINE      ---      ---       #141
      01001701H   LINE      ---      ---       #142
      0100170CH   LINE      ---      ---       #143
      0100170FH   LINE      ---      ---       #144
      0100170FH   LINE      ---      ---       #145
      0100170FH   LINE      ---      ---       #147
      0100171BH   LINE      ---      ---       #148
      01001727H   LINE      ---      ---       #149
      01001733H   LINE      ---      ---       #150
      0100173FH   LINE      ---      ---       #152
      01001742H   LINE      ---      ---       #158
      01001749H   LINE      ---      ---       #159
      01001750H   LINE      ---      ---       #162
      01001758H   LINE      ---      ---       #163
      01001758H   LINE      ---      ---       #164
      0100175FH   LINE      ---      ---       #165
      01001764H   LINE      ---      ---       #166
      01001764H   LINE      ---      ---       #168
      01001768H   LINE      ---      ---       #169
      01001768H   LINE      ---      ---       #170
      0100176FH   LINE      ---      ---       #171
      01001774H   LINE      ---      ---       #172
      01001774H   LINE      ---      ---       #173
      0100177BH   LINE      ---      ---       #174
      0100177BH   LINE      ---      ---       #175
      01001782H   LINE      ---      ---       #176
      01001787H   LINE      ---      ---       #177
      01001787H   LINE      ---      ---       #179
      0100178FH   LINE      ---      ---       #180
      0100178FH   LINE      ---      ---       #181
      01001796H   LINE      ---      ---       #182
      0100179BH   LINE      ---      ---       #183
      0100179BH   LINE      ---      ---       #192
      010017A2H   LINE      ---      ---       #193
      010017ABH   LINE      ---      ---       #195
      010017B2H   LINE      ---      ---       #197
      010017B6H   LINE      ---      ---       #198
      010017B6H   LINE      ---      ---       #199
      010017BDH   LINE      ---      ---       #200
      010017C3H   LINE      ---      ---       #201
      010017CAH   LINE      ---      ---       #202
      010017CAH   LINE      ---      ---       #204
      02004D18H   SYMBOL    XDATA    VOID      data_buf
      ---         BLOCKEND  CODE     ---       LVL=1
      ---         BLOCKEND  CODE     ---       LVL=0

      010039FFH   BLOCK     CODE     ---       LVL=0
      010039FFH   LINE      ---      ---       #243
      010039FFH   LINE      ---      ---       #244
      010039FFH   LINE      ---      ---       #245
      01003A0CH   LINE      ---      ---       #246
      01003A19H   LINE      ---      ---       #247
      01003A26H   LINE      ---      ---       #248
      01003A33H   LINE      ---      ---       #249
      01003A3CH   LINE      ---      ---       #252
      01003A43H   LINE      ---      ---       #253
      01003A48H   LINE      ---      ---       #254
      01003A4DH   LINE      ---      ---       #255
      01003A52H   LINE      ---      ---       #256
      01003A57H   LINE      ---      ---       #259
      01003A5DH   LINE      ---      ---       #260
      01003A6BH   LINE      ---      ---       #261
      01003A79H   LINE      ---      ---       #262
      01003A87H   LINE      ---      ---       #263
      01003A95H   LINE      ---      ---       #265
      ---         BLOCKEND  ---      ---       LVL=0

      01003994H   BLOCK     CODE     ---       LVL=0
      01003994H   LINE      ---      ---       #268
      010039A5H   LINE      ---      ---       #269
      010039A5H   BLOCK     CODE     NEAR LAB  LVL=1
      010039A5H   LINE      ---      ---       #271
      010039B2H   LINE      ---      ---       #272
      010039B2H   LINE      ---      ---       #273
      010039DFH   LINE      ---      ---       #274
      010039F6H   LINE      ---      ---       #275
      010039FEH   LINE      ---      ---       #276
      02004E1EH   SYMBOL    XDATA    VOID      i
      ---         BLOCKEND  CODE     ---       LVL=1
      ---         BLOCKEND  CODE     ---       LVL=0

      010017CBH   BLOCK     CODE     ---       LVL=0
      010017CBH   LINE      ---      ---       #288
      010017CBH   LINE      ---      ---       #289
      010017CBH   BLOCK     CODE     NEAR LAB  LVL=1
      010017CBH   LINE      ---      ---       #291
      010017D1H   LINE      ---      ---       #292
      010017DAH   LINE      ---      ---       #293
      00000001H   SYMBOL    DATA     VOID      data_ptr
      ---         BLOCKEND  CODE     ---       LVL=1
      ---         BLOCKEND  CODE     ---       LVL=0

      01003A96H   BLOCK     CODE     ---       LVL=0
      01003A96H   LINE      ---      ---       #298
      01003A96H   LINE      ---      ---       #299
      01003A96H   LINE      ---      ---       #300
      01003A9BH   LINE      ---      ---       #301
      01003A9DH   LINE      ---      ---       #302
      01003A9FH   LINE      ---      ---       #303
      01003AA1H   LINE      ---      ---       #304
      01003AA3H   LINE      ---      ---       #305
      ---         BLOCKEND  ---      ---       LVL=0

      01000FA8H   BLOCK     CODE     ---       LVL=0
      01000FA8H   LINE      ---      ---       #307
      01000FA8H   LINE      ---      ---       #308
      01000FA8H   LINE      ---      ---       #309
      01000FAFH   LINE      ---      ---       #310
      01000FB3H   LINE      ---      ---       #311
      01000FB8H   LINE      ---      ---       #312
      01000FBDH   LINE      ---      ---       #313
      01000FC2H   LINE      ---      ---       #314
      ---         BLOCKEND  ---      ---       LVL=0

      01003AA4H   BLOCK     CODE     ---       LVL=0
      01003AA4H   LINE      ---      ---       #316
      01003AA4H   LINE      ---      ---       #317
      01003AA4H   LINE      ---      ---       #318
      01003AAAH   LINE      ---      ---       #319
      01003AACH   LINE      ---      ---       #320
      01003AAEH   LINE      ---      ---       #321
      01003AB0H   LINE      ---      ---       #322
      01003AB2H   LINE      ---      ---       #323
      ---         BLOCKEND  ---      ---       LVL=0

      01003AB3H   BLOCK     CODE     ---       LVL=0
      01003AB3H   LINE      ---      ---       #326
      01003AB3H   LINE      ---      ---       #327
      01003AB3H   LINE      ---      ---       #328
      01003ABBH   LINE      ---      ---       #329
      01003AC3H   LINE      ---      ---       #330
      01003ACBH   LINE      ---      ---       #331
      01003AD3H   LINE      ---      ---       #332
      01003ADBH   LINE      ---      ---       #333
      ---         BLOCKEND  ---      ---       LVL=0

      01000FC3H   BLOCK     CODE     ---       LVL=0
      01000FC3H   LINE      ---      ---       #336
      01000FC3H   LINE      ---      ---       #337
      01000FC3H   LINE      ---      ---       #338
      01000FCBH   LINE      ---      ---       #339
      01000FD3H   LINE      ---      ---       #340
      01000FDBH   LINE      ---      ---       #341
      01000FE3H   LINE      ---      ---       #342
      01000FEBH   LINE      ---      ---       #343
      ---         BLOCKEND  ---      ---       LVL=0

      01000F73H   BLOCK     CODE     ---       LVL=0
      01000F73H   LINE      ---      ---       #346
      01000F73H   LINE      ---      ---       #347
      01000F73H   BLOCK     CODE     NEAR LAB  LVL=1
      01000F73H   LINE      ---      ---       #352
      01000F7AH   LINE      ---      ---       #353
      01000F7AH   LINE      ---      ---       #354
      01000F7EH   LINE      ---      ---       #355
      01000F84H   LINE      ---      ---       #356
      01000F87H   LINE      ---      ---       #357
      01000F8DH   LINE      ---      ---       #358
      01000F8FH   LINE      ---      ---       #359
      01000F95H   LINE      ---      ---       #360
      01000F97H   LINE      ---      ---       #361
      01000F9DH   LINE      ---      ---       #362
      01000F9FH   LINE      ---      ---       #363
      01000FA5H   LINE      ---      ---       #364
      01000FA7H   LINE      ---      ---       #365
      01000FA7H   LINE      ---      ---       #366
      00000007H   SYMBOL    DATA     VOID      R_Weight_FlashTime
      ---         BLOCKEND  CODE     ---       LVL=1
      ---         BLOCKEND  CODE     ---       LVL=0

      ---         MODULE    ---      ---       CS_SCALEKEY
      01000937H   PUBLIC    CODE     ---       CS_KeyScan

      01000937H   BLOCK     CODE     ---       LVL=0
      01000937H   LINE      ---      ---       #17
      01000937H   LINE      ---      ---       #18
      01000937H   BLOCK     CODE     NEAR LAB  LVL=1
      01000937H   LINE      ---      ---       #30
      0100093FH   LINE      ---      ---       #32
      01000946H   LINE      ---      ---       #33
      0100094CH   LINE      ---      ---       #35
      01000955H   LINE      ---      ---       #36
      01000958H   LINE      ---      ---       #38
      0100095DH   LINE      ---      ---       #39
      0100095DH   LINE      ---      ---       #40
      01000962H   LINE      ---      ---       #41
      01000965H   LINE      ---      ---       #43
      0100096CH   LINE      ---      ---       #44
      01000971H   LINE      ---      ---       #46
      01000976H   LINE      ---      ---       #47
      01000978H   LINE      ---      ---       #49
      01000984H   LINE      ---      ---       #50
      01000984H   LINE      ---      ---       #51
      01000986H   LINE      ---      ---       #52
      0100098CH   LINE      ---      ---       #53
      0100098EH   LINE      ---      ---       #54
      0100098EH   LINE      ---      ---       #56
      01000995H   LINE      ---      ---       #57
      01000995H   LINE      ---      ---       #58
      01000997H   LINE      ---      ---       #61
      010009A0H   LINE      ---      ---       #62
      010009A6H   LINE      ---      ---       #64
      010009A6H   LINE      ---      ---       #65
      010009ABH   LINE      ---      ---       #66
      010009ACH   LINE      ---      ---       #67
      010009B2H   LINE      ---      ---       #68
      010009B4H   LINE      ---      ---       #69
      010009B4H   LINE      ---      ---       #70
      010009B9H   LINE      ---      ---       #71
      010009B9H   LINE      ---      ---       #73
      010009C1H   LINE      ---      ---       #74
      010009C2H   LINE      ---      ---       #75
      010009C3H   LINE      ---      ---       #77
      010009C3H   LINE      ---      ---       #78
      010009C9H   LINE      ---      ---       #79
      010009C9H   LINE      ---      ---       #80
      010009D0H   LINE      ---      ---       #81
      010009D3H   LINE      ---      ---       #82
      010009DDH   LINE      ---      ---       #83
      010009DDH   LINE      ---      ---       #84
      010009E3H   LINE      ---      ---       #85
      010009E9H   LINE      ---      ---       #86
      010009E9H   LINE      ---      ---       #87
      010009EBH   LINE      ---      ---       #89
      010009F4H   LINE      ---      ---       #90
      010009F7H   LINE      ---      ---       #91
      010009FCH   LINE      ---      ---       #92
      010009FCH   LINE      ---      ---       #93
      010009FCH   LINE      ---      ---       #94
      01000A02H   LINE      ---      ---       #95
      01000A02H   LINE      ---      ---       #96
      01000A08H   LINE      ---      ---       #97
      01000A08H   LINE      ---      ---       #99
      01000A0AH   LINE      ---      ---       #100
      01000A11H   LINE      ---      ---       #101
      01000A11H   LINE      ---      ---       #102
      01000A17H   LINE      ---      ---       #103
      01000A1BH   LINE      ---      ---       #104
      01000A20H   LINE      ---      ---       #105
      01000A24H   LINE      ---      ---       #106
      01000A24H   LINE      ---      ---       #107
      01000A29H   LINE      ---      ---       #108
      01000A2DH   LINE      ---      ---       #109
      01000A2DH   LINE      ---      ---       #110
      01000A2DH   LINE      ---      ---       #111
      01000A2EH   LINE      ---      ---       #113
      01000A2EH   LINE      ---      ---       #114
      01000A33H   LINE      ---      ---       #115
      01000A37H   LINE      ---      ---       #116
      01000A37H   LINE      ---      ---       #117
      01000A37H   LINE      ---      ---       #118
      00000007H   SYMBOL    DATA     VOID      keyState
      02004DFDH   SYMBOL    XDATA    VOID      keyState_prev
      02004DFEH   SYMBOL    XDATA    VOID      keyStateCnt
      02004DFFH   SYMBOL    XDATA    VOID      KeyPressDeal
      02004E00H   SYMBOL    XDATA    VOID      KeyLongPressDeal
      02004E01H   SYMBOL    XDATA    VOID      ShortPressCount
      02004E02H   SYMBOL    XDATA    VOID      PressTimesCount
      02004E03H   SYMBOL    XDATA    VOID      Press
      02004E04H   SYMBOL    XDATA    VOID      stanby
      ---         BLOCKEND  CODE     ---       LVL=1
      ---         BLOCKEND  CODE     ---       LVL=0

      ---         MODULE    ---      ---       RETATION_VARIABLE
      02004E5CH   PUBLIC    XDATA    BYTE      sys_state
      02004C62H   PUBLIC    XDATA    BYTE      R_Test
      02004C5BH   PUBLIC    XDATA    BYTE      bleConnStatus
      02004C5DH   PUBLIC    XDATA    BYTE      handleIndicationConfirm
      02004A02H   PUBLIC    XDATA    WORD      BT_CmdWptr
      02004A00H   PUBLIC    XDATA    WORD      BT_CmdRptr
      02004C5AH   PUBLIC    XDATA    BYTE      notifyValueUUIDA625
      02004C10H   PUBLIC    XDATA    ---       historyUserData
      02004C59H   PUBLIC    XDATA    BYTE      notifyValueUUIDA621
      02004A06H   PUBLIC    XDATA    WORD      BT_EventWptr
      02004A04H   PUBLIC    XDATA    WORD      BT_EventRptr
      02004C5CH   PUBLIC    XDATA    BYTE      lxOptStatus
      02004C00H   PUBLIC    XDATA    ---       sensor_data
      02004C63H   PUBLIC    XDATA    ---       btCmdBuf
      02004C06H   PUBLIC    XDATA    ---       deviceInfo
      02004C5EH   PUBLIC    XDATA    LONG      UTCTime

      ---         MODULE    ---      ---       LXPROTOCOL
      01003D90H   PUBLIC    CODE     ---       _QueuePush
      010017DBH   PUBLIC    CODE     ---       QueueInit
      01001FC7H   PUBLIC    CODE     ---       _SpiFlashOperator
      01001AADH   PUBLIC    CODE     ---       lxOptProcess
      010019E9H   PUBLIC    CODE     ---       _changeLxOptStatus
      010018A7H   PUBLIC    CODE     ---       _lxRecvDataFromApp

      010019F2H   BLOCK     CODE     ---       LVL=0
      010019F2H   LINE      ---      ---       #17
      01001A03H   LINE      ---      ---       #18
      01001A03H   BLOCK     CODE     NEAR LAB  LVL=1
      01001A03H   LINE      ---      ---       #22
      01001A10H   LINE      ---      ---       #23
      01001A2FH   LINE      ---      ---       #24
      01001A2FH   LINE      ---      ---       #25
      01001A4CH   LINE      ---      ---       #26
      01001A77H   LINE      ---      ---       #27
      01001A9CH   LINE      ---      ---       #28
      01001AACH   LINE      ---      ---       #29
      02004DBDH   SYMBOL    XDATA    VOID      i
      02004DBFH   SYMBOL    XDATA    VOID      size
      02004DC1H   SYMBOL    XDATA    VOID      temp
      ---         BLOCKEND  CODE     ---       LVL=1
      ---         BLOCKEND  CODE     ---       LVL=0

      01001F59H   BLOCK     CODE     ---       LVL=0
      01001F59H   LINE      ---      ---       #31
      01001F5DH   LINE      ---      ---       #32
      01001F5DH   LINE      ---      ---       #33
      01001F65H   LINE      ---      ---       #34
      01001F65H   LINE      ---      ---       #36
      01001F65H   LINE      ---      ---       #38
      01001F6BH   LINE      ---      ---       #39
      01001F6FH   LINE      ---      ---       #40
      01001F72H   LINE      ---      ---       #41
      01001F75H   LINE      ---      ---       #42
      01001F78H   LINE      ---      ---       #43
      01001F7BH   LINE      ---      ---       #44
      01001F7EH   LINE      ---      ---       #46
      01001F86H   LINE      ---      ---       #47
      01001F8AH   LINE      ---      ---       #48
      ---         BLOCKEND  ---      ---       LVL=0

      010018A7H   BLOCK     CODE     ---       LVL=0
      010018A7H   LINE      ---      ---       #50
      010018B2H   LINE      ---      ---       #51
      010018B2H   BLOCK     CODE     NEAR LAB  LVL=1
      010018B2H   LINE      ---      ---       #54
      010018C7H   LINE      ---      ---       #57
      010018EBH   LINE      ---      ---       #58
      0100190FH   LINE      ---      ---       #61
      01001919H   LINE      ---      ---       #62
      01001919H   LINE      ---      ---       #64
      01001920H   LINE      ---      ---       #67
      01001951H   LINE      ---      ---       #69
      01001981H   LINE      ---      ---       #70
      01001981H   LINE      ---      ---       #71
      01001981H   LINE      ---      ---       #72
      01001985H   LINE      ---      ---       #73
      01001985H   LINE      ---      ---       #74
      01001985H   LINE      ---      ---       #75
      01001989H   LINE      ---      ---       #76
      01001989H   LINE      ---      ---       #77
      01001989H   LINE      ---      ---       #78
      0100198DH   LINE      ---      ---       #79
      0100198DH   LINE      ---      ---       #80
      0100198DH   LINE      ---      ---       #81
      01001991H   LINE      ---      ---       #82
      01001991H   LINE      ---      ---       #84
      01001991H   LINE      ---      ---       #85
      01001995H   LINE      ---      ---       #86
      01001995H   LINE      ---      ---       #87
      01001995H   LINE      ---      ---       #88
      01001999H   LINE      ---      ---       #89
      01001999H   LINE      ---      ---       #90
      01001999H   LINE      ---      ---       #91
      0100199DH   LINE      ---      ---       #92
      0100199DH   LINE      ---      ---       #94
      0100199DH   LINE      ---      ---       #95
      010019A1H   LINE      ---      ---       #96
      010019A1H   LINE      ---      ---       #97
      010019A1H   LINE      ---      ---       #99
      010019A2H   LINE      ---      ---       #101
      010019A8H   LINE      ---      ---       #102
      010019A8H   LINE      ---      ---       #103
      010019BCH   LINE      ---      ---       #104
      010019BCH   LINE      ---      ---       #105
      010019C3H   LINE      ---      ---       #106
      010019C3H   LINE      ---      ---       #107
      010019C7H   LINE      ---      ---       #108
      010019C7H   LINE      ---      ---       #110
      010019CCH   LINE      ---      ---       #111
      010019CDH   LINE      ---      ---       #113
      010019CDH   LINE      ---      ---       #114
      010019D4H   LINE      ---      ---       #115
      010019D4H   LINE      ---      ---       #116
      010019DEH   LINE      ---      ---       #118
      010019E3H   LINE      ---      ---       #119
      010019E3H   LINE      ---      ---       #120
      010019E8H   LINE      ---      ---       #121
      010019E8H   LINE      ---      ---       #122
      010019E8H   LINE      ---      ---       #123
      02004E22H   SYMBOL    XDATA    VOID      frameControl
      02004E23H   SYMBOL    XDATA    VOID      cmd
      ---         BLOCKEND  CODE     ---       LVL=1
      ---         BLOCKEND  CODE     ---       LVL=0

      010019E9H   BLOCK     CODE     ---       LVL=0
      010019E9H   LINE      ---      ---       #125
      010019E9H   LINE      ---      ---       #126
      010019E9H   LINE      ---      ---       #127
      010019EFH   LINE      ---      ---       #128
      010019EFH   LINE      ---      ---       #129
      010019F1H   LINE      ---      ---       #130
      010019F1H   LINE      ---      ---       #131
      ---         BLOCKEND  ---      ---       LVL=0

      01001AADH   BLOCK     CODE     ---       LVL=0
      01001AADH   LINE      ---      ---       #133
      01001AADH   LINE      ---      ---       #134
      01001AADH   BLOCK     CODE     NEAR LAB  LVL=1
      01001AADH   LINE      ---      ---       #137
      01001AB3H   LINE      ---      ---       #138
      01001AB7H   LINE      ---      ---       #139
      01001ABAH   LINE      ---      ---       #140
      01001AE6H   LINE      ---      ---       #141
      01001AE6H   LINE      ---      ---       #143
      01001AE6H   LINE      ---      ---       #145
      01001AF2H   LINE      ---      ---       #146
      01001AF2H   LINE      ---      ---       #148
      01001B06H   LINE      ---      ---       #150
      01001B0CH   LINE      ---      ---       #152
      01001B10H   LINE      ---      ---       #153
      01001B12H   LINE      ---      ---       #155
      01001B12H   LINE      ---      ---       #156
      01001B17H   LINE      ---      ---       #157
      01001B17H   LINE      ---      ---       #159
      01001B1DH   LINE      ---      ---       #160
      01001B23H   LINE      ---      ---       #161
      01001B27H   LINE      ---      ---       #162
      01001B2AH   LINE      ---      ---       #163
      01001B2DH   LINE      ---      ---       #164
      01001B35H   LINE      ---      ---       #165
      01001B41H   LINE      ---      ---       #166
      01001B49H   LINE      ---      ---       #167
      01001B4FH   LINE      ---      ---       #168
      01001B50H   LINE      ---      ---       #170
      01001B50H   LINE      ---      ---       #172
      01001B64H   LINE      ---      ---       #173
      01001B64H   LINE      ---      ---       #175
      01001B6CH   LINE      ---      ---       #177
      01001B72H   LINE      ---      ---       #178
      01001B74H   LINE      ---      ---       #180
      01001B74H   LINE      ---      ---       #181
      01001B7AH   LINE      ---      ---       #182
      01001B7AH   LINE      ---      ---       #184
      01001B80H   LINE      ---      ---       #185
      01001B84H   LINE      ---      ---       #186
      01001B88H   LINE      ---      ---       #187
      01001B8BH   LINE      ---      ---       #188
      01001B8FH   LINE      ---      ---       #189
      01001B93H   LINE      ---      ---       #190
      01001B96H   LINE      ---      ---       #191
      01001B99H   LINE      ---      ---       #192
      01001BA1H   LINE      ---      ---       #194
      01001BADH   LINE      ---      ---       #195
      01001BB5H   LINE      ---      ---       #196
      01001BBBH   LINE      ---      ---       #197
      01001BBCH   LINE      ---      ---       #199
      01001BBCH   LINE      ---      ---       #200
      01001BC2H   LINE      ---      ---       #201
      01001BC7H   LINE      ---      ---       #202
      01001BCBH   LINE      ---      ---       #203
      01001BCFH   LINE      ---      ---       #204
      01001BD2H   LINE      ---      ---       #206
      01001BE0H   LINE      ---      ---       #207
      01001BE0H   LINE      ---      ---       #208
      01001C06H   LINE      ---      ---       #209
      01001C0EH   LINE      ---      ---       #212
      01001C16H   LINE      ---      ---       #214
      01001C1EH   LINE      ---      ---       #215
      01001C26H   LINE      ---      ---       #217
      01001C2CH   LINE      ---      ---       #219
      01001C38H   LINE      ---      ---       #220
      01001C40H   LINE      ---      ---       #221
      01001C44H   LINE      ---      ---       #222
      01001C4AH   LINE      ---      ---       #223
      01001C4BH   LINE      ---      ---       #224
      01001C4BH   LINE      ---      ---       #225
      01001C53H   LINE      ---      ---       #226
      01001C58H   LINE      ---      ---       #227
      01001C58H   LINE      ---      ---       #229
      01001C5CH   LINE      ---      ---       #230
      01001C5CH   LINE      ---      ---       #231
      01001C91H   LINE      ---      ---       #232
      01001C91H   LINE      ---      ---       #234
      01001C97H   LINE      ---      ---       #238
      01001C97H   LINE      ---      ---       #239
      01001CA1H   LINE      ---      ---       #241
      01001CA7H   LINE      ---      ---       #242
      01001CA8H   LINE      ---      ---       #244
      01001CA8H   LINE      ---      ---       #245
      01001CADH   LINE      ---      ---       #247
      01001CB2H   LINE      ---      ---       #248
      01001CB6H   LINE      ---      ---       #249
      01001CBEH   LINE      ---      ---       #251
      01001CBEH   LINE      ---      ---       #252
      01001CBEH   LINE      ---      ---       #254
      01001CBEH   LINE      ---      ---       #255
      01001CC4H   LINE      ---      ---       #256
      01001CC8H   LINE      ---      ---       #257
      01001CCCH   LINE      ---      ---       #258
      01001CCFH   LINE      ---      ---       #259
      01001CD3H   LINE      ---      ---       #260
      01001CD7H   LINE      ---      ---       #261
      01001CDBH   LINE      ---      ---       #262
      01001CDEH   LINE      ---      ---       #263
      01001CE2H   LINE      ---      ---       #265
      01001CEEH   LINE      ---      ---       #266
      01001CF6H   LINE      ---      ---       #267
      01001CFCH   LINE      ---      ---       #268
      01001CFDH   LINE      ---      ---       #269
      01001CFDH   LINE      ---      ---       #270
      01001D04H   LINE      ---      ---       #271
      01001D04H   LINE      ---      ---       #273
      01001D1BH   LINE      ---      ---       #274
      01001D1BH   LINE      ---      ---       #275
      01001D20H   LINE      ---      ---       #276
      01001D21H   LINE      ---      ---       #278
      01001D21H   LINE      ---      ---       #279
      01001D28H   LINE      ---      ---       #280
      01001D28H   LINE      ---      ---       #281
      01001D3FH   LINE      ---      ---       #282
      01001D3FH   LINE      ---      ---       #289
      01001D47H   LINE      ---      ---       #290
      01001D4DH   LINE      ---      ---       #291
      01001D4EH   LINE      ---      ---       #293
      01001D4EH   LINE      ---      ---       #295
      01001D57H   LINE      ---      ---       #296
      01001D57H   LINE      ---      ---       #297
      01001D5CH   LINE      ---      ---       #298
      01001D64H   LINE      ---      ---       #299
      01001D66H   LINE      ---      ---       #301
      01001D66H   LINE      ---      ---       #302
      01001D6EH   LINE      ---      ---       #303
      01001D6EH   LINE      ---      ---       #304
      01001D74H   LINE      ---      ---       #305
      01001D75H   LINE      ---      ---       #307
      01001D75H   LINE      ---      ---       #308
      01001D7CH   LINE      ---      ---       #309
      01001D7CH   LINE      ---      ---       #310
      01001D7EH   LINE      ---      ---       #311
      01001D7EH   LINE      ---      ---       #312
      01001D7EH   LINE      ---      ---       #313
      01001D7EH   LINE      ---      ---       #314
      01001D7EH   LINE      ---      ---       #315
      01001D7EH   LINE      ---      ---       #316
      01001D7EH   LINE      ---      ---       #317
      01001D7EH   LINE      ---      ---       #318
      01001D7EH   LINE      ---      ---       #319
      01001D7EH   LINE      ---      ---       #320
      01001D7EH   LINE      ---      ---       #322
      01001D86H   LINE      ---      ---       #323
      01001D8CH   LINE      ---      ---       #324
      01001D8DH   LINE      ---      ---       #326
      01001D8DH   LINE      ---      ---       #328
      01001D93H   LINE      ---      ---       #329
      01001D93H   LINE      ---      ---       #330
      01001D97H   LINE      ---      ---       #331
      01001D98H   LINE      ---      ---       #333
      01001D98H   LINE      ---      ---       #334
      01001D9EH   LINE      ---      ---       #335
      01001D9EH   LINE      ---      ---       #336
      01001D9FH   LINE      ---      ---       #337
      01001D9FH   LINE      ---      ---       #339
      01001DA2H   LINE      ---      ---       #340
      01001DA8H   LINE      ---      ---       #341
      01001DA8H   LINE      ---      ---       #348
      01001DA8H   LINE      ---      ---       #349
      02004E5DH   SYMBOL    XDATA    VOID      i
      ---         BLOCKEND  CODE     ---       LVL=1
      ---         BLOCKEND  CODE     ---       LVL=0

      01001DA9H   BLOCK     CODE     ---       LVL=0
      01001DA9H   LINE      ---      ---       #351
      01001DADH   LINE      ---      ---       #352
      01001DADH   LINE      ---      ---       #353
      01001DB3H   LINE      ---      ---       #354
      01001DB7H   LINE      ---      ---       #355
      01001DBBH   LINE      ---      ---       #356
      01001DBEH   LINE      ---      ---       #357
      01001DC2H   LINE      ---      ---       #358
      01001DC6H   LINE      ---      ---       #359
      01001DC9H   LINE      ---      ---       #360
      01001DCDH   LINE      ---      ---       #361
      01001DD0H   LINE      ---      ---       #362
      01001DD3H   LINE      ---      ---       #363
      01001DD6H   LINE      ---      ---       #365
      01001DE2H   LINE      ---      ---       #366
      01001DEAH   LINE      ---      ---       #367
      ---         BLOCKEND  ---      ---       LVL=0

      01001FA9H   BLOCK     CODE     ---       LVL=0
      01001FA9H   LINE      ---      ---       #370
      01001FA9H   LINE      ---      ---       #371
      01001FA9H   LINE      ---      ---       #374
      01001FB3H   LINE      ---      ---       #375
      01001FB6H   LINE      ---      ---       #376
      01001FBBH   LINE      ---      ---       #377
      01001FC5H   LINE      ---      ---       #378
      ---         BLOCKEND  ---      ---       LVL=0

      01003ADCH   BLOCK     CODE     ---       LVL=0
      01003ADCH   LINE      ---      ---       #383
      01003ADCH   LINE      ---      ---       #384
      01003ADCH   BLOCK     CODE     NEAR LAB  LVL=1
      01003ADCH   LINE      ---      ---       #386
      01003AE5H   LINE      ---      ---       #388
      01003AE9H   LINE      ---      ---       #402
      01003AF1H   LINE      ---      ---       #403
      01003B30H   LINE      ---      ---       #404
      01003B3BH   LINE      ---      ---       #406
      01003B41H   LINE      ---      ---       #407
      01003B45H   LINE      ---      ---       #408
      01003B48H   LINE      ---      ---       #410
      01003B4EH   LINE      ---      ---       #411
      01003B52H   LINE      ---      ---       #412
      01003B5CH   LINE      ---      ---       #413
      01003B5FH   LINE      ---      ---       #414
      01003B63H   LINE      ---      ---       #415
      01003B66H   LINE      ---      ---       #416
      01003B68H   LINE      ---      ---       #417
      01003B6AH   LINE      ---      ---       #418
      01003B72H   LINE      ---      ---       #419
      01003B72H   LINE      ---      ---       #420
      01003B84H   LINE      ---      ---       #421
      01003B84H   LINE      ---      ---       #422
      01003B91H   LINE      ---      ---       #423
      01003BC3H   LINE      ---      ---       #424
      01003BCBH   LINE      ---      ---       #425
      01003BF5H   LINE      ---      ---       #426
      01003C1BH   LINE      ---      ---       #427
      01003C2BH   LINE      ---      ---       #429
      01003C40H   LINE      ---      ---       #430
      01003C40H   LINE      ---      ---       #431
      01003C4DH   LINE      ---      ---       #432
      01003C52H   LINE      ---      ---       #433
      01003C52H   LINE      ---      ---       #434
      01003C5AH   LINE      ---      ---       #435
      01003C5CH   LINE      ---      ---       #437
      01003C5CH   LINE      ---      ---       #438
      01003C62H   LINE      ---      ---       #439
      01003C69H   LINE      ---      ---       #441
      01003C69H   LINE      ---      ---       #442
      01003C77H   LINE      ---      ---       #443
      01003C81H   LINE      ---      ---       #444
      01003CA5H   LINE      ---      ---       #445
      01003CAEH   LINE      ---      ---       #446
      01003CB3H   LINE      ---      ---       #447
      01003CBBH   LINE      ---      ---       #448
      01003CBBH   LINE      ---      ---       #450
      01003CBBH   LINE      ---      ---       #451
      01003CC1H   LINE      ---      ---       #452
      01003CC7H   LINE      ---      ---       #453
      01003CCBH   LINE      ---      ---       #454
      01003CD8H   LINE      ---      ---       #455
      01003CDBH   LINE      ---      ---       #456
      01003CDBH   LINE      ---      ---       #457
      01003CF7H   LINE      ---      ---       #458
      01003CF9H   LINE      ---      ---       #460
      01003CF9H   LINE      ---      ---       #461
      01003D04H   LINE      ---      ---       #462
      01003D04H   LINE      ---      ---       #463
      01003D1CH   LINE      ---      ---       #464
      01003D2CH   LINE      ---      ---       #465
      01003D35H   LINE      ---      ---       #466
      01003D35H   LINE      ---      ---       #467
      02004E5EH   SYMBOL    XDATA    VOID      total_len
      02004DC2H   SYMBOL    XDATA    VOID      temp
      02004DC5H   SYMBOL    XDATA    VOID      crc32
      02004DC9H   SYMBOL    XDATA    VOID      i
      02004DCAH   SYMBOL    XDATA    VOID      pkgCnt
      02004DCBH   SYMBOL    XDATA    VOID      size
      ---         BLOCKEND  CODE     ---       LVL=1
      ---         BLOCKEND  CODE     ---       LVL=0

      01001FC7H   BLOCK     CODE     ---       LVL=0
      01001FC7H   LINE      ---      ---       #469
      01001FCCH   LINE      ---      ---       #470
      01001FCCH   LINE      ---      ---       #472
      01001FCFH   LINE      ---      ---       #473
      01001FCFH   LINE      ---      ---       #474
      01001FE6H   LINE      ---      ---       #475
      01001FE6H   LINE      ---      ---       #476
      01001FEDH   LINE      ---      ---       #477
      01001FEDH   LINE      ---      ---       #478
      01001FF8H   LINE      ---      ---       #479
      0100200EH   LINE      ---      ---       #480
      0100200EH   LINE      ---      ---       #487
      ---         BLOCKEND  ---      ---       LVL=0

      010017DBH   BLOCK     CODE     ---       LVL=0
      010017DBH   LINE      ---      ---       #496
      010017DBH   LINE      ---      ---       #497
      010017DBH   LINE      ---      ---       #498
      010017E0H   LINE      ---      ---       #499
      010017E2H   LINE      ---      ---       #500
      010017E4H   LINE      ---      ---       #501
      ---         BLOCKEND  ---      ---       LVL=0

      01003D36H   BLOCK     CODE     ---       LVL=0
      01003D36H   LINE      ---      ---       #503
      01003D36H   LINE      ---      ---       #504
      01003D36H   BLOCK     CODE     NEAR LAB  LVL=1
      01003D36H   LINE      ---      ---       #505
      01003D3FH   LINE      ---      ---       #507
      01003D48H   LINE      ---      ---       #508
      01003D4FH   LINE      ---      ---       #510
      01003D6BH   LINE      ---      ---       #511
      01003D7EH   LINE      ---      ---       #512
      01003D84H   LINE      ---      ---       #514
      01003D8FH   LINE      ---      ---       #515
      02004E51H   SYMBOL    XDATA    VOID      temp
      ---         BLOCKEND  CODE     ---       LVL=1
      ---         BLOCKEND  CODE     ---       LVL=0

      01003D90H   BLOCK     CODE     ---       LVL=0
      01003D90H   LINE      ---      ---       #517
      01003D9BH   LINE      ---      ---       #518
      01003D9BH   LINE      ---      ---       #519
      01003DA4H   LINE      ---      ---       #520
      01003DA6H   LINE      ---      ---       #522
      01003DD6H   LINE      ---      ---       #523
      01003DE9H   LINE      ---      ---       #524
      01003DEDH   LINE      ---      ---       #525
      ---         BLOCKEND  ---      ---       LVL=0

      ---         MODULE    ---      ---       CRC32
      02004D91H   PUBLIC    XDATA    BYTE      ?_cal_crc32_multiple?BYTE
      01003DEEH   PUBLIC    CODE     ---       _cal_crc32_multiple

      01003DEEH   BLOCK     CODE     ---       LVL=0
      01003DEEH   LINE      ---      ---       #80
      01003DFFH   LINE      ---      ---       #81
      01003DFFH   BLOCK     CODE     NEAR LAB  LVL=1
      01003DFFH   LINE      ---      ---       #83
      01003E2BH   LINE      ---      ---       #84
      01003E2BH   LINE      ---      ---       #85
      01003E89H   LINE      ---      ---       #86
      01003EBAH   LINE      ---      ---       #87
      01003EDBH   LINE      ---      ---       #89
      01003EE9H   LINE      ---      ---       #90
      02004D9CH   SYMBOL    XDATA    VOID      i
      ---         BLOCKEND  CODE     ---       LVL=1
      ---         BLOCKEND  CODE     ---       LVL=0

      ---         MODULE    ---      ---       ?C_STARTUP
      01000000H   PUBLIC    CODE     ---       ?C_STARTUP

      ---         MODULE    ---      ---       ?C?COPY
      010000D3H   PUBLIC    CODE     ---       ?C?COPY

      ---         MODULE    ---      ---       ?C?CLDPTR
      010000F9H   PUBLIC    CODE     ---       ?C?CLDPTR

      ---         MODULE    ---      ---       ?C?CLDOPTR
      01000112H   PUBLIC    CODE     ---       ?C?CLDOPTR

      ---         MODULE    ---      ---       ?C?CSTPTR
      0100013FH   PUBLIC    CODE     ---       ?C?CSTPTR

      ---         MODULE    ---      ---       ?C?CSTOPTR
      01000151H   PUBLIC    CODE     ---       ?C?CSTOPTR

      ---         MODULE    ---      ---       ?C?UIDIV
      01000173H   PUBLIC    CODE     ---       ?C?UIDIV

      ---         MODULE    ---      ---       ?C?ILDIX
      010001C8H   PUBLIC    CODE     ---       ?C?ILDIX

      ---         MODULE    ---      ---       ?C?LMUL
      010001DEH   PUBLIC    CODE     ---       ?C?LMUL

      ---         MODULE    ---      ---       ?C?ULDIV
      01000269H   PUBLIC    CODE     ---       ?C?ULDIV

      ---         MODULE    ---      ---       ?C?ULCMP
      010002FBH   PUBLIC    CODE     ---       ?C?ULCMP

      ---         MODULE    ---      ---       ?C?ULSHR
      0100030CH   PUBLIC    CODE     ---       ?C?ULSHR

      ---         MODULE    ---      ---       ?C?LSHL
      0100031FH   PUBLIC    CODE     ---       ?C?LSHL

      ---         MODULE    ---      ---       ?C?LSTXDATA
      01000332H   PUBLIC    CODE     ---       ?C?LSTXDATA

      ---         MODULE    ---      ---       ?C?LSTKXDATA
      0100033EH   PUBLIC    CODE     ---       ?C?LSTKXDATA

      ---         MODULE    ---      ---       ?C?CCASE
      0100036FH   PUBLIC    CODE     ---       ?C?CCASE

      ---         MODULE    ---      ---       ?C?ICASE
      01000395H   PUBLIC    CODE     ---       ?C?ICASE

      ---         MODULE    ---      ---       ?C?ICALL
      010003C2H   PUBLIC    CODE     ---       ?C?ICALL
      010003C6H   PUBLIC    CODE     ---       ?C?ICALL2

      ---         MODULE    ---      ---       ?C?LIMUL
      010003C8H   PUBLIC    CODE     ---       ?C?LIMUL

      ---         MODULE    ---      ---       ?C_INIT
      0100043CH   PUBLIC    CODE     ---       ?C_START

Program Size: data=31.2 xdata=602 const=10 code=16096
LX51 RUN COMPLETE.  0 WARNING(S),  0 ERROR(S)
