LX51 LINKER/LOCATER V4.41                                                               04/20/2017  16:55:13  PAGE 1


LX51 LINKER/LOCATER V4.41, INVOKED BY:
C:\KEIL\C51\BIN\LX51.EXE OUT/MAIN.OBJ, OUT/SYSTEM.OBJ, OUT/YC_SYS.OBJ, OUT/YC_PERIPHERAL.OBJ, OUT/SPIFLASH.OBJ, OUT/BT_I
>> PC.OBJ, OUT/YC_UTILITIES.OBJ, OUT/CS_SCALE_PROC.OBJ, OUT/CS_COMMTO1186.OBJ, OUT/CS_SCALEDISPLAY.OBJ, OUT/CS_SCALEKEY.
>> OBJ, OUT/RETATION_VARIABLE.OBJ, OUT/LXPROTOCOL.OBJ, OUT/CRC32.OBJ TO OUT\FW CLASSES (XDATA (X:0X4C80-X:0X4EFF), CODE 
>> (C:0-C:0XFFFF), DATA (D:0X10-0X7F), IDATA (I:0X80-0XCF)) SEGMENTS (?STACK (D:0XD0)) NOOVERLAY PAGELENGTH (60000) CODE
>> 


CPU MODE:     8051 MODE
MEMORY MODEL: LARGE


INPUT MODULES INCLUDED:
  OUT/MAIN.OBJ (MAIN)
         COMMENT TYPE 0: C51 V9.01
  OUT/SYSTEM.OBJ (SYSTEM)
         COMMENT TYPE 0: C51 V9.01
  OUT/YC_SYS.OBJ (YC_SYS)
         COMMENT TYPE 0: C51 V9.01
  OUT/YC_PERIPHERAL.OBJ (YC_PERIPHERAL)
         COMMENT TYPE 0: C51 V9.01
  OUT/SPIFLASH.OBJ (SPIFLASH)
         COMMENT TYPE 0: C51 V9.01
  OUT/BT_IPC.OBJ (BT_IPC)
         COMMENT TYPE 0: C51 V9.01
  OUT/YC_UTILITIES.OBJ (YC_UTILITIES)
         COMMENT TYPE 0: C51 V9.01
  OUT/CS_SCALE_PROC.OBJ (CS_SCALE_PROC)
         COMMENT TYPE 0: C51 V9.01
  OUT/CS_COMMTO1186.OBJ (CS_COMMTO1186)
         COMMENT TYPE 0: C51 V9.01
  OUT/CS_SCALEDISPLAY.OBJ (CS_SCALEDISPLAY)
         COMMENT TYPE 0: C51 V9.01
  OUT/CS_SCALEKEY.OBJ (CS_SCALEKEY)
         COMMENT TYPE 0: C51 V9.01
  OUT/RETATION_VARIABLE.OBJ (RETATION_VARIABLE)
         COMMENT TYPE 0: C51 V9.01
  OUT/LXPROTOCOL.OBJ (LXPROTOCOL)
         COMMENT TYPE 0: C51 V9.01
  OUT/CRC32.OBJ (CRC32)
         COMMENT TYPE 0: C51 V9.01
  C:\KEIL\C51\LIB\C51L.LIB (?C_STARTUP)
         COMMENT TYPE 1: A51 / ASM51 Assembler
  C:\KEIL\C51\LIB\C51L.LIB (?C?COPY)
         COMMENT TYPE 1: A51 / ASM51 Assembler
  C:\KEIL\C51\LIB\C51L.LIB (?C?CLDPTR)
         COMMENT TYPE 1: A51 / ASM51 Assembler
  C:\KEIL\C51\LIB\C51L.LIB (?C?CLDOPTR)
         COMMENT TYPE 1: A51 / ASM51 Assembler
  C:\KEIL\C51\LIB\C51L.LIB (?C?CSTPTR)
         COMMENT TYPE 1: A51 / ASM51 Assembler
  C:\KEIL\C51\LIB\C51L.LIB (?C?CSTOPTR)
         COMMENT TYPE 1: A51 / ASM51 Assembler
  C:\KEIL\C51\LIB\C51L.LIB (?C?UIDIV)
         COMMENT TYPE 1: A51 / ASM51 Assembler
  C:\KEIL\C51\LIB\C51L.LIB (?C?ILDIX)
         COMMENT TYPE 1: A51 / ASM51 Assembler
  C:\KEIL\C51\LIB\C51L.LIB (?C?LMUL)
         COMMENT TYPE 1: A51 / ASM51 Assembler
  C:\KEIL\C51\LIB\C51L.LIB (?C?ULDIV)
         COMMENT TYPE 1: A51 / ASM51 Assembler
  C:\KEIL\C51\LIB\C51L.LIB (?C?ULCMP)
         COMMENT TYPE 1: A51 / ASM51 Assembler
  C:\KEIL\C51\LIB\C51L.LIB (?C?ULSHR)
         COMMENT TYPE 1: A51 / ASM51 Assembler
  C:\KEIL\C51\LIB\C51L.LIB (?C?LSHL)
         COMMENT TYPE 1: A51 / ASM51 Assembler
  C:\KEIL\C51\LIB\C51L.LIB (?C?LSTXDATA)
         COMMENT TYPE 1: A51 / ASM51 Assembler
  C:\KEIL\C51\LIB\C51L.LIB (?C?LSTKXDATA)
         COMMENT TYPE 1: A51 / ASM51 Assembler
  C:\KEIL\C51\LIB\C51L.LIB (?C?CCASE)
         COMMENT TYPE 1: A51 / ASM51 Assembler
  C:\KEIL\C51\LIB\C51L.LIB (?C?ICASE)
         COMMENT TYPE 1: A51 / ASM51 Assembler
  C:\KEIL\C51\LIB\C51L.LIB (?C?ICALL)
         COMMENT TYPE 1: A51 / ASM51 Assembler
  C:\KEIL\C51\LIB\C51L.LIB (?C?LIMUL)
         COMMENT TYPE 1: A51 / ASM51 Assembler
  C:\KEIL\C51\LIB\C51L.LIB (?C_INIT)
         COMMENT TYPE 1: A51 / ASM51 Assembler


ACTIVE MEMORY CLASSES OF MODULE:  OUT\FW (MAIN)

BASE        START       END         USED      MEMORY CLASS
==========================================================
X:000000H   X:004C80H   X:004EFFH   000257H   XDATA
C:000000H   C:000000H   C:00FFFFH   003F1BH   CODE
I:000000H   I:000010H   I:00007FH   00001EH   DATA
I:000000H   I:000080H   I:0000CFH   000001H   IDATA
I:000020H.0 I:000020H.0 I:00002FH.7 000000H.2 BIT
C:000000H   C:000000H   C:00FFFFH   00000AH   CONST


MEMORY MAP OF MODULE:  OUT\FW (MAIN)


START     STOP      LENGTH    ALIGN  RELOC    MEMORY CLASS   SEGMENT NAME
=========================================================================

* * * * * * * * * * *   D A T A   M E M O R Y   * * * * * * * * * * * * *
000000H   000007H   000008H   ---    AT..     DATA           "REG BANK 0"
000008H   00000FH   000008H   ---    ---      **GAP**
000010H   000016H   000007H   BYTE   UNIT     DATA           ?DT?_DMEMCPY?YC_UTILITIES
000017H   00001CH   000006H   BYTE   UNIT     DATA           ?DT?_XMEMCPY?YC_UTILITIES
00001DH   00001EH   000002H   BYTE   UNIT     DATA           ?DT?_XMEMSET?YC_UTILITIES
00001FH   00001FH   000001H   BYTE   UNIT     DATA           ?DT?YC_UTILTIMERPROCESS?YC_SYS
000020H.0 000020H.0 000000H.1 BIT    UNIT     BIT            ?BI?CS_SCALE_POWERONPROC?CS_SCALE_PROC
000020H.1 000020H.1 000000H.1 BIT    UNIT     BIT            ?BI?CS_SCALE_PROC
000020H.2 000020H   000000H.6 ---    ---      **GAP**
000021H   000026H   000006H   BYTE   UNIT     DATA           ?DT?_CMEMCPY?YC_UTILITIES
000027H   0000CFH   0000A9H   ---    ---      **GAP**
0000D0H   0000D0H   000001H   BYTE   UNIT     IDATA          ?STACK

* * * * * * * * * * *   C O D E   M E M O R Y   * * * * * * * * * * * * *
000000H   000002H   000003H   ---    OFFS..   CODE           ?CO??C_STARTUP?0
000003H   0003F4H   0003F2H   BYTE   UNIT     CODE           ?C?LIB_CODE
0003F5H   000480H   00008CH   BYTE   UNIT     CODE           ?C_C51STARTUP
000481H   0004B7H   000037H   BYTE   UNIT     CODE           ?C_INITSEG
0004B8H   0004C1H   00000AH   BYTE   UNIT     CONST          ?CO?CS_COMMTO1186
0004C2H   0004E4H   000023H   BYTE   UNIT     CODE           ?PR?MAIN?MAIN
0004E5H   00052CH   000048H   BYTE   UNIT     CODE           ?PR?CS_SCALE_1186COM?CS_COMMTO1186
00052DH   000591H   000065H   BYTE   UNIT     CODE           ?PR?CS_1186COM_SETLCD_PROC?CS_COMMTO1186
000592H   0005A1H   000010H   BYTE   UNIT     CODE           ?PR?YC_UARTCLEARBUFFER?YC_PERIPHERAL
0005A2H   0005E1H   000040H   BYTE   UNIT     CODE           ?PR?SYSSTATUSPROCESS?SYSTEM
0005E2H   00065AH   000079H   BYTE   UNIT     CODE           ?PR?CS_1186COM_READTIME_PROC?CS_COMMTO1186
00065BH   00066CH   000012H   BYTE   UNIT     CODE           ?PR?YC_UARTWAITSENDDATA?YC_PERIPHERAL
00066DH   000700H   000094H   BYTE   UNIT     CODE           ?PR?CS_1186COM_SETSLEEPMODE_PROC?CS_COMMTO1186
000701H   00071AH   00001AH   BYTE   UNIT     CODE           ?PR?CS_1186COM_RESET_PROC?CS_COMMTO1186
00071BH   0007A7H   00008DH   BYTE   UNIT     CODE           ?PR?CS_1186COM_SETOPENWEIGHT_PROC?CS_COMMTO1186
0007A8H   0008F2H   00014BH   BYTE   UNIT     CODE           ?PR?_YC_UARTRECIVEDATAEXPECTED?YC_PERIPHERAL
0008F3H   000936H   000044H   BYTE   UNIT     CODE           ?PR?SOFTTIMER_10MSCALLBACK?SYSTEM
000937H   000A37H   000101H   BYTE   UNIT     CODE           ?PR?CS_KEYSCAN?CS_SCALEKEY
000A38H   000F14H   0004DDH   BYTE   UNIT     CODE           ?PR?_CS_SCALE_CALIPROC?CS_SCALE_PROC
000F15H   000F52H   00003EH   BYTE   UNIT     CODE           ?PR?_CS_SOFTTIMER?CS_SCALE_PROC
000F53H   000F72H   000020H   BYTE   UNIT     CODE           ?PR?CS_SCALE_CHANGEUNIT?CS_SCALE_PROC
000F73H   000FA7H   000035H   BYTE   UNIT     CODE           ?PR?CS_SCALEDISPLAY_STEADYFLASH?CS_SCALEDISPLAY
000FA8H   000FC2H   00001BH   BYTE   UNIT     CODE           ?PR?CS_SCALEDISPLAY_LCDSHOWNODIGIT?CS_SCALEDISPLAY
000FC3H   000FEBH   000029H   BYTE   UNIT     CODE           ?PR?CS_SCALEDISPLAY_LCDRESTORE?CS_SCALEDISPLAY
000FECH   001083H   000098H   BYTE   UNIT     CODE           ?PR?SYSTEMINIT?SYSTEM
001084H   0010B8H   000035H   BYTE   UNIT     CODE           ?PR?_YC_GPIOGETINPUTSTATUS?YC_PERIPHERAL
0010B9H   00117BH   0000C3H   BYTE   UNIT     CODE           ?PR?YC_UTILTIMERINIT?YC_SYS
00117CH   0012BAH   00013FH   BYTE   UNIT     CODE           ?PR?_YC_UTILTIMERSTARTMS?YC_SYS
0012BBH   0012EFH   000035H   BYTE   UNIT     CODE           ?PR?CS_SCALE_POWERON?CS_SCALE_PROC
0012F0H   001559H   00026AH   BYTE   UNIT     CODE           ?PR?_CS_SCALE_ZEROPROC?CS_SCALE_PROC
00155AH   00161FH   0000C6H   BYTE   UNIT     CODE           ?PR?CS_SCALEDISPLAY?CS_SCALEDISPLAY
001620H   001684H   000065H   BYTE   UNIT     CODE           ?PR?CS_SCALE_PROC?CS_SCALE_PROC
001685H   0017A5H   000121H   BYTE   UNIT     CODE           ?PR?_CS_SCALE_TIMEOUTPROC?CS_SCALE_PROC
0017A6H   0017CCH   000027H   BYTE   UNIT     CODE           ?PR?_CS_SCALE_JUDGELOWBAT?CS_SCALE_PROC
0017CDH   0017F5H   000029H   BYTE   UNIT     CODE           ?PR?CS_SCALE_WEIGHTPROC?CS_SCALE_PROC
0017F6H   0018D2H   0000DDH   BYTE   UNIT     CODE           ?PR?_CS_SCALE_JUDGESTEADY?CS_SCALE_PROC
0018D3H   001940H   00006EH   BYTE   UNIT     CODE           ?PR?_CS_SCALE_LOCKPROC?CS_SCALE_PROC
001941H   0019BCH   00007CH   BYTE   UNIT     CODE           ?PR?_CS_SCALE_SAMEWEIGHTTIMES?CS_SCALE_PROC
0019BDH   001A66H   0000AAH   BYTE   UNIT     CODE           ?PR?_CS_SCALE_STEADYPROC?CS_SCALE_PROC
001A67H   001A71H   00000BH   BYTE   UNIT     CODE           ?PR?_CS_SCALE_1186COMSEND?CS_COMMTO1186
001A72H   001B54H   0000E3H   BYTE   UNIT     CODE           ?PR?CS_SCALE_POWERONPROC?CS_SCALE_PROC
001B55H   001B5AH   000006H   BYTE   UNIT     CODE           ?PR?CS_IF1186COMSUCESS?CS_COMMTO1186
001B5BH   001BEEH   000094H   BYTE   UNIT     CODE           ?PR?_CS_SCALE_STANDBYPROC?CS_SCALE_PROC
001BEFH   001D0FH   000121H   BYTE   UNIT     CODE           ?PR?_BT_CMDFIFOIN?BT_IPC
001D10H   001D52H   000043H   BYTE   UNIT     CODE           ?PR?_LXSETTINGDEVICERESPONE?LXPROTOCOL
001D53H   001D6AH   000018H   BYTE   UNIT     CODE           ?PR?_YC_DELAY10MS?YC_UTILITIES
001D6BH   001E25H   0000BBH   BYTE   UNIT     CODE           ?PR?_BIGLITTLEENDIANSWAP?LXPROTOCOL
001E26H   001F67H   000142H   BYTE   UNIT     CODE           ?PR?_LXRECVDATAFROMAPP?LXPROTOCOL
001F68H   001F70H   000009H   BYTE   UNIT     CODE           ?PR?_CHANGELXOPTSTATUS?LXPROTOCOL
001F71H   001FA2H   000032H   BYTE   UNIT     CODE           ?PR?_LXSENDRECVDATAACK?LXPROTOCOL
001FA3H   001FC0H   00001EH   BYTE   UNIT     CODE           ?PR?_XMEMSET?YC_UTILITIES
001FC1H   001FDEH   00001EH   BYTE   UNIT     CODE           ?PR?DELUSERDATA?LXPROTOCOL
001FDFH   002025H   000047H   BYTE   UNIT     CODE           ?PR?_SPIFLASHOPERATOR?LXPROTOCOL
002026H   00209BH   000076H   BYTE   UNIT     CODE           ?PR?_SPIFLASHERASESECTOR?SPIFLASH
00209CH   0020ADH   000012H   BYTE   UNIT     CODE           ?PR?SPIFLASHWAITBUSY?SPIFLASH
0020AEH   00216EH   0000C1H   BYTE   UNIT     CODE           ?PR?_SPIFLASHWRITE?SPIFLASH
00216FH   00219AH   00002CH   BYTE   UNIT     CODE           ?PR?SPIFLASHWRITEENABLE?SPIFLASH
00219BH   0021B2H   000018H   BYTE   UNIT     CODE           ?PR?_YC_DELAY1MS?YC_UTILITIES
0021B3H   0021FCH   00004AH   BYTE   UNIT     CODE           ?PR?SPIFLASHREADSR?SPIFLASH
0021FDH   002297H   00009BH   BYTE   UNIT     CODE           ?PR?_SPIFLASHREAD?SPIFLASH
002298H   002392H   0000FBH   BYTE   UNIT     CODE           ?PR?_CAL_CRC32_MULTIPLE?CRC32
002393H   0025E7H   000255H   BYTE   UNIT     CODE           ?PR?SENDHISTORYDATA?LXPROTOCOL
0025E8H   00261BH   000034H   BYTE   UNIT     CODE           ?PR?_DMEMCPY?YC_UTILITIES
00261CH   002675H   00005AH   BYTE   UNIT     CODE           ?PR?QUEUEPOP?LXPROTOCOL
002676H   0026D2H   00005DH   BYTE   UNIT     CODE           ?PR?_QUEUEPUSH?LXPROTOCOL
0026D3H   0026FDH   00002BH   BYTE   UNIT     CODE           ?PR?_GENERATECHECKSUM?SYSTEM
0026FEH   0027B0H   0000B3H   BYTE   UNIT     CODE           ?PR?CS_1186COM_READMACADRESS_PROC?CS_COMMTO1186
0027B1H   002836H   000086H   BYTE   UNIT     CODE           ?PR?BTCONTROLPROCESS?SYSTEM
002837H   00288FH   000059H   BYTE   UNIT     CODE           ?PR?_YC_UTILTIMERSTOP?YC_SYS
002890H   0029D2H   000143H   BYTE   UNIT     CODE           ?PR?YC_UTILTIMERPROCESS?YC_SYS
0029D3H   002AD0H   0000FEH   BYTE   UNIT     CODE           ?PR?_YC_UARTSENDDATA?YC_PERIPHERAL
002AD1H   002DD4H   000304H   BYTE   UNIT     CODE           ?PR?_CS_COMMTO1186_SENDCMD?CS_COMMTO1186
002DD5H   002E2EH   00005AH   BYTE   UNIT     CODE           ?PR?_CS_COMMTO1186_XOR?CS_COMMTO1186
002E2FH   002E7AH   00004CH   BYTE   UNIT     CODE           ?PR?CS_SCALEDISPLAY_DEBUG?CS_SCALEDISPLAY
002E7BH   002E8AH   000010H   BYTE   UNIT     CODE           ?PR?_CS_SCALEDISPLAY_LOOKUPTABLE?CS_SCALEDISPLAY
002E8BH   002EC1H   000037H   BYTE   UNIT     CODE           ?PR?_XMEMCPY?YC_UTILITIES
002EC2H   002F2CH   00006BH   BYTE   UNIT     CODE           ?PR?_CS_SCALEDISPLAY_HEXTOBCD?CS_SCALEDISPLAY
002F2DH   002FC3H   000097H   BYTE   UNIT     CODE           ?PR?CS_SCALEDISPLAY_LCDBUF_RSHIFT4?CS_SCALEDISPLAY
002FC4H   0030C8H   000105H   BYTE   UNIT     CODE           ?PR?_BT_EVENTFIFOOUT?BT_IPC
0030C9H   0030F6H   00002EH   BYTE   UNIT     CODE           ?PR?BT_GETCMDFIFODEPTH?BT_IPC
0030F7H   0030FFH   000009H   BYTE   UNIT     CODE           ?PR?BT_CMDFIFOEMPTY?BT_IPC
003100H   003134H   000035H   BYTE   UNIT     CODE           ?PR?_BT_CMDFIFOFULL?BT_IPC
003135H   003162H   00002EH   BYTE   UNIT     CODE           ?PR?BT_GETEVTFIFODEPTH?BT_IPC
003163H   003169H   000007H   BYTE   UNIT     CODE           ?PR?YC_ICE_BREAK?YC_UTILITIES
00316AH   0031A0H   000037H   BYTE   UNIT     CODE           ?PR?_CMEMCPY?YC_UTILITIES
0031A1H   0031F6H   000056H   BYTE   UNIT     CODE           ?PR?_YC_MEMCHECKEMPTY?YC_UTILITIES
0031F7H   00321CH   000026H   BYTE   UNIT     CODE           ?PR?_YC_DELAY1S?YC_UTILITIES
00321DH   00327DH   000061H   BYTE   UNIT     CODE           ?PR?_CS_SCALE_GETDELTAAD?CS_SCALE_PROC
00327EH   00362DH   0003B0H   BYTE   UNIT     CODE           ?PR?_CS_SCALE_ADCFILTER?CS_SCALE_PROC
00362EH   00377EH   000151H   BYTE   UNIT     CODE           ?PR?_CS_SCALE_GETWEIGHT?CS_SCALE_PROC
00377FH   0037C9H   00004BH   BYTE   UNIT     CODE           ?PR?_CS_SCALE_JUDGEOVERLOAD?CS_SCALE_PROC
0037CAH   003833H   00006AH   BYTE   UNIT     CODE           ?PR?CS_SCALE_RETURNLOCK?CS_SCALE_PROC
003834H   003869H   000036H   BYTE   UNIT     CODE           ?PR?_CS_MEMORYWEIGHTCLEAR_TIMER?CS_SCALE_PROC
00386AH   00393EH   0000D5H   BYTE   UNIT     CODE           ?PR?CS_1186COM_READADC_PROC?CS_COMMTO1186
00393FH   0039EFH   0000B1H   BYTE   UNIT     CODE           ?PR?CS_1186COM_READADZERO_PROC?CS_COMMTO1186
0039F0H   003BC6H   0001D7H   BYTE   UNIT     CODE           ?PR?_CS_SCALEDISPLAY_FRESHBUF?CS_SCALEDISPLAY
003BC7H   003BD4H   00000EH   BYTE   UNIT     CODE           ?PR?CS_SCALEDISPLAY_LCDSHOWNULL?CS_SCALEDISPLAY
003BD5H   003BE3H   00000FH   BYTE   UNIT     CODE           ?PR?CS_SCALEDISPLAY_LCDSHOWALL?CS_SCALEDISPLAY
003BE4H   003C0CH   000029H   BYTE   UNIT     CODE           ?PR?CS_SCALEDISPLAY_LCDBACKUP?CS_SCALEDISPLAY
003C0DH   003F1AH   00030EH   BYTE   UNIT     CODE           ?PR?LXOPTPROCESS?LXPROTOCOL
003F1BH   003F24H   00000AH   BYTE   UNIT     CODE           ?PR?QUEUEINIT?LXPROTOCOL

* * * * * * * * * * *  X D A T A   M E M O R Y  * * * * * * * * * * * * *
004A00H   004A01H   000002H   BYTE   OFFS..   XDATA          ?XD?RETATION_VARIABLE?10
004A02H   004A03H   000002H   BYTE   OFFS..   XDATA          ?XD?RETATION_VARIABLE?11
004A04H   004A05H   000002H   BYTE   OFFS..   XDATA          ?XD?RETATION_VARIABLE?5
004A06H   004A07H   000002H   BYTE   OFFS..   XDATA          ?XD?RETATION_VARIABLE?6
004A08H   004BFFH   0001F8H   ---    ---      **GAP**
004C00H   004C05H   000006H   BYTE   OFFS..   XDATA          ?XD?RETATION_VARIABLE?3
004C06H   004C0FH   00000AH   BYTE   OFFS..   XDATA          ?XD?RETATION_VARIABLE?1
004C10H   004C4EH   00003FH   BYTE   OFFS..   XDATA          ?XD?RETATION_VARIABLE?8
004C4FH   004C58H   00000AH   ---    ---      **GAP**
004C59H   004C59H   000001H   BYTE   OFFS..   XDATA          ?XD?RETATION_VARIABLE?7
004C5AH   004C5AH   000001H   BYTE   OFFS..   XDATA          ?XD?RETATION_VARIABLE?9
004C5BH   004C5BH   000001H   BYTE   OFFS..   XDATA          ?XD?RETATION_VARIABLE?13
004C5CH   004C5CH   000001H   BYTE   OFFS..   XDATA          ?XD?RETATION_VARIABLE?4
004C5DH   004C5DH   000001H   BYTE   OFFS..   XDATA          ?XD?RETATION_VARIABLE?12
004C5EH   004C61H   000004H   BYTE   OFFS..   XDATA          ?XD?RETATION_VARIABLE?0
004C62H   004C62H   000001H   BYTE   OFFS..   XDATA          ?XD?RETATION_VARIABLE?14
004C63H   004C7BH   000019H   BYTE   OFFS..   XDATA          ?XD?RETATION_VARIABLE?2
004C7CH   004C7FH   000004H   ---    ---      **GAP**
004C80H   004CD9H   00005AH   BYTE   UNIT     XDATA          ?XD?CS_SCALE_PROC
004CDAH   004D16H   00003DH   BYTE   UNIT     XDATA          ?XD?YC_SYS
004D17H   004D43H   00002DH   BYTE   UNIT     XDATA          ?XD?CS_SCALEDISPLAY
004D44H   004D67H   000024H   BYTE   UNIT     XDATA          ?XD?CS_COMMTO1186
004D68H   004D80H   000019H   BYTE   UNIT     XDATA          ?XD?BTCONTROLPROCESS?SYSTEM
004D81H   004D8FH   00000FH   BYTE   UNIT     XDATA          ?XD?_CS_COMMTO1186_SENDCMD?CS_COMMTO1186
004D90H   004D9EH   00000FH   BYTE   UNIT     XDATA          ?XD?_CAL_CRC32_MULTIPLE?CRC32
004D9FH   004DACH   00000EH   BYTE   UNIT     XDATA          ?XD?_CS_SCALE_GETWEIGHT?CS_SCALE_PROC
004DADH   004DB6H   00000AH   BYTE   UNIT     XDATA          ?XD?_YC_UARTSENDDATA?YC_PERIPHERAL
004DB7H   004DC0H   00000AH   BYTE   UNIT     XDATA          ?XD?_BIGLITTLEENDIANSWAP?LXPROTOCOL
004DC1H   004DCAH   00000AH   BYTE   UNIT     XDATA          ?XD?SENDHISTORYDATA?LXPROTOCOL
004DCBH   004DD3H   000009H   BYTE   UNIT     XDATA          ?XD?_YC_UARTRECIVEDATAEXPECTED?YC_PERIPHERAL
004DD4H   004DDBH   000008H   BYTE   UNIT     XDATA          ?XD?_YC_UTILTIMERSTARTMS?YC_SYS
004DDCH   004DE3H   000008H   BYTE   UNIT     XDATA          ?XD?_SPIFLASHWRITE?SPIFLASH
004DE4H   004DEBH   000008H   BYTE   UNIT     XDATA          ?XD?_SPIFLASHREAD?SPIFLASH
004DECH   004DF3H   000008H   BYTE   UNIT     XDATA          ?XD?_CS_SCALE_ZEROPROC?CS_SCALE_PROC
004DF4H   004DFBH   000008H   BYTE   UNIT     XDATA          ?XD?_CS_SCALE_CALIPROC?CS_SCALE_PROC
004DFCH   004E03H   000008H   BYTE   UNIT     XDATA          ?XD?CS_SCALEKEY
004E04H   004E0AH   000007H   BYTE   UNIT     XDATA          ?XD?_BT_CMDFIFOIN?BT_IPC
004E0BH   004E11H   000007H   BYTE   UNIT     XDATA          ?XD?_CS_SCALE_ADCFILTER?CS_SCALE_PROC
004E12H   004E17H   000006H   BYTE   UNIT     XDATA          ?XD?_CS_SCALE_STEADYPROC?CS_SCALE_PROC
004E18H   004E1DH   000006H   BYTE   UNIT     XDATA          ?XD?_CS_SCALEDISPLAY_HEXTOBCD?CS_SCALEDISPLAY
004E1EH   004E23H   000006H   BYTE   UNIT     XDATA          ?XD?_LXRECVDATAFROMAPP?LXPROTOCOL
004E24H   004E28H   000005H   BYTE   UNIT     XDATA          ?XD?_BT_EVENTFIFOOUT?BT_IPC
004E29H   004E2DH   000005H   BYTE   UNIT     XDATA          ?XD?CS_SCALEDISPLAY_DEBUG?CS_SCALEDISPLAY
004E2EH   004E31H   000004H   BYTE   UNIT     XDATA          ?XD?_SPIFLASHERASESECTOR?SPIFLASH
004E32H   004E35H   000004H   BYTE   UNIT     XDATA          ?XD?_YC_MEMCHECKEMPTY?YC_UTILITIES
004E36H   004E39H   000004H   BYTE   UNIT     XDATA          ?XD?CRC32
004E3AH   004E3CH   000003H   BYTE   UNIT     XDATA          ?XD?SYSTEM
004E3DH   004E3FH   000003H   BYTE   UNIT     XDATA          ?XD?_GENERATECHECKSUM?SYSTEM
004E40H   004E42H   000003H   BYTE   UNIT     XDATA          ?XD?_BT_CMDFIFOFULL?BT_IPC
004E43H   004E45H   000003H   BYTE   UNIT     XDATA          ?XD?_CS_SCALE_GETDELTAAD?CS_SCALE_PROC
004E46H   004E48H   000003H   BYTE   UNIT     XDATA          ?XD?CS_1186COM_READMACADRESS_PROC?CS_COMMTO1186
004E49H   004E4BH   000003H   BYTE   UNIT     XDATA          ?XD?_CS_COMMTO1186_XOR?CS_COMMTO1186
004E4CH   004E4EH   000003H   BYTE   UNIT     XDATA          ?XD?QUEUEPOP?LXPROTOCOL
004E4FH   004E51H   000003H   BYTE   UNIT     XDATA          ?XD?_QUEUEPUSH?LXPROTOCOL
004E52H   004E53H   000002H   BYTE   UNIT     XDATA          ?XD?_CS_SCALE_JUDGESTEADY?CS_SCALE_PROC
004E54H   004E55H   000002H   BYTE   UNIT     XDATA          ?XD?CS_SCALE_RETURNLOCK?CS_SCALE_PROC
004E56H   004E56H   000001H   BYTE   UNIT     XDATA          ?XD?YC_UTILTIMERINIT?YC_SYS
004E57H   004E57H   000001H   BYTE   UNIT     XDATA          ?XD?SPIFLASHREADSR?SPIFLASH
004E58H   004E58H   000001H   BYTE   UNIT     XDATA          ?XD?_CS_SCALEDISPLAY_FRESHBUF?CS_SCALEDISPLAY
004E59H   004E59H   000001H   BYTE   UNIT     XDATA          ?XD?RETATION_VARIABLE
004E5AH   004E5AH   000001H   BYTE   UNIT     XDATA          ?XD?LXOPTPROCESS?LXPROTOCOL
004E5BH   004E5BH   000001H   BYTE   UNIT     XDATA          ?XD?LXPROTOCOL
004E5CH   004E5CH   000001H   BYTE   UNIT     XDATA          ?XD?_SPIFLASHOPERATOR?LXPROTOCOL



PUBLIC SYMBOLS OF MODULE:  OUT\FW (MAIN)


      VALUE       CLASS    TYPE      PUBLIC SYMBOL NAME
      =================================================
      02004D90H   XDATA    BYTE      ?_cal_crc32_multiple?BYTE
      00000021H   DATA     BYTE      ?_cmemcpy?BYTE
      00000010H   DATA     BYTE      ?_dmemcpy?BYTE
      02004DE4H   XDATA    BYTE      ?_SPIFlashRead?BYTE
      02004DDCH   XDATA    BYTE      ?_SPIFlashWrite?BYTE
      00000017H   DATA     BYTE      ?_xmemcpy?BYTE
      02004DD4H   XDATA    BYTE      ?_YC_UtilTimerStartMs?BYTE
      0100036FH   CODE     ---       ?C?CCASE
      01000112H   CODE     ---       ?C?CLDOPTR
      010000F9H   CODE     ---       ?C?CLDPTR
      00000000H   NUMBER   ---       ?C?CODESEG
      010000D3H   CODE     ---       ?C?COPY
      01000151H   CODE     ---       ?C?CSTOPTR
      0100013FH   CODE     ---       ?C?CSTPTR
      010003C2H   CODE     ---       ?C?ICALL
      010003C6H   CODE     ---       ?C?ICALL2
      01000395H   CODE     ---       ?C?ICASE
      010001C8H   CODE     ---       ?C?ILDIX
      010003C8H   CODE     ---       ?C?LIMUL
      010001DEH   CODE     ---       ?C?LMUL
      0100031FH   CODE     ---       ?C?LSHL
      0100033EH   CODE     ---       ?C?LSTKXDATA
      01000332H   CODE     ---       ?C?LSTXDATA
      01000173H   CODE     ---       ?C?UIDIV
      010002FBH   CODE     ---       ?C?ULCMP
      01000269H   CODE     ---       ?C?ULDIV
      0100030CH   CODE     ---       ?C?ULSHR
      00000000H   NUMBER   ---       ?C?XDATASEG
      0100043CH   CODE     ---       ?C_START
      01000000H   CODE     ---       ?C_STARTUP
      00000020H.0 BIT      BIT       ?CS_Scale_PowerOnProc?BIT
      01003100H   CODE     ---       _BT_CmdFifoFull
      01001BEFH   CODE     ---       _BT_CmdFifoIn
      01002FC4H   CODE     ---       _BT_EventFifoOut
      01002298H   CODE     ---       _cal_crc32_multiple
      01001F68H   CODE     ---       _changeLxOptStatus
      0100316AH   CODE     ---       _cmemcpy
      01002AD1H   CODE     ---       _CS_CommTo1186_SendCmd
      01002DD5H   CODE     ---       _CS_CommTo1186_Xor
      01003834H   CODE     ---       _CS_MemoryWeightClear_Timer
      01001A67H   CODE     ---       _CS_Scale_1186ComSend
      0100327EH   CODE     ---       _CS_Scale_AdcFilter
      01000A38H   CODE     ---       _CS_Scale_CaliProc
      0100321DH   CODE     ---       _CS_Scale_GetDeltaAD
      0100362EH   CODE     ---       _CS_Scale_GetWeight
      010017A6H   CODE     ---       _CS_Scale_JudgeLowBat
      0100377FH   CODE     ---       _CS_Scale_JudgeOverLoad
      010017F6H   CODE     ---       _CS_Scale_JudgeSteady
      010018D3H   CODE     ---       _CS_Scale_LockProc
      01001941H   CODE     ---       _CS_Scale_SameWeightTimes
      01001B5BH   CODE     ---       _CS_Scale_StandbyProc
      010019BDH   CODE     ---       _CS_Scale_SteadyProc
      01001685H   CODE     ---       _CS_Scale_TimeOutProc
      010012F0H   CODE     ---       _CS_Scale_ZeroProc
      010039F0H   CODE     ---       _CS_ScaleDisplay_FreshBuf
      01002EC2H   CODE     ---       _CS_ScaleDisplay_HexToBcd
      01002E7BH   CODE     ---       _CS_ScaleDisplay_LookUpTable
      01000F15H   CODE     ---       _CS_SoftTimer
      010025E8H   CODE     ---       _dmemcpy
      010026D3H   CODE     ---       _generateChecksum
      01001E26H   CODE     ---       _lxRecvDataFromApp
      01002676H   CODE     ---       _QueuePush
      01002026H   CODE     ---       _SPIFlashEraseSector
      01001FDFH   CODE     ---       _SpiFlashOperator
      010021FDH   CODE     ---       _SPIFlashRead
      010020AEH   CODE     ---       _SPIFlashWrite
      01002E8BH   CODE     ---       _xmemcpy
      01001FA3H   CODE     ---       _xmemset
      01001D53H   CODE     ---       _YC_Delay10ms
      0100219BH   CODE     ---       _YC_Delay1ms
      010031F7H   CODE     ---       _YC_Delay1S
      01001084H   CODE     ---       _YC_GPIOGetInputStatus
      010031A1H   CODE     ---       _YC_MemCheckEmpty
      010007A8H   CODE     ---       _YC_UARTReciveDataExpected
      010029D3H   CODE     ---       _YC_UARTSendData
      0100117CH   CODE     ---       _YC_UtilTimerStartMs
      01002837H   CODE     ---       _YC_UtilTimerStop
      00000020H.1 BIT      BIT       B_Debug_Test
      02004CD6H   XDATA    BYTE      B_Weight_AdOk
      02004C5BH   XDATA    BYTE      bleConnStatus
      010030F7H   CODE     ---       BT_CmdFifoEmpty
      02004A00H   XDATA    WORD      BT_CmdRptr
      02004A02H   XDATA    WORD      BT_CmdWptr
      02004A04H   XDATA    WORD      BT_EventRptr
      02004A06H   XDATA    WORD      BT_EventWptr
      010030C9H   CODE     ---       BT_GetCmdFifoDepth
      01003135H   CODE     ---       BT_GetEvtFifoDepth
      02004C63H   XDATA    ---       btCmdBuf
      010027B1H   CODE     ---       BTControlProcess
      0100386AH   CODE     ---       CS_1186Com_ReadAdc_Proc
      0100393FH   CODE     ---       CS_1186Com_ReadAdZero_Proc
      010026FEH   CODE     ---       CS_1186Com_ReadMacAdress_Proc
      010005E2H   CODE     ---       CS_1186Com_ReadTime_Proc
      01000701H   CODE     ---       CS_1186Com_Reset_Proc
      0100052DH   CODE     ---       CS_1186Com_SetLcd_Proc
      0100071BH   CODE     ---       CS_1186Com_SetOpenWeight_Proc
      0100066DH   CODE     ---       CS_1186Com_SetSleepMode_Proc
      01001B55H   CODE     ---       CS_If1186ComSucess
      01000937H   CODE     ---       CS_KeyScan
      02004D27H   XDATA    ---       CS_Lcd_Send_Data
      02004D1CH   XDATA    ---       CS_Lcd_Send_Data_BAK
      02004D22H   XDATA    ---       CS_lcd_showbuf
      02004D2DH   XDATA    ---       CS_Lcd_Table
      010004E5H   CODE     ---       CS_Scale_1186Com
      01000F53H   CODE     ---       CS_Scale_ChangeUnit
      010012BBH   CODE     ---       CS_Scale_PowerOn
      01001A72H   CODE     ---       CS_Scale_PowerOnProc
      01001620H   CODE     ---       CS_Scale_Proc
      010037CAH   CODE     ---       CS_Scale_ReturnLock
      010017CDH   CODE     ---       CS_Scale_WeightProc
      0100155AH   CODE     ---       CS_ScaleDisplay
      01002E2FH   CODE     ---       CS_ScaleDisplay_Debug
      01003BE4H   CODE     ---       CS_ScaleDisplay_LcdBackup
      01002F2DH   CODE     ---       CS_ScaleDisplay_LcdBuf_rShift4
      01000FC3H   CODE     ---       CS_ScaleDisplay_LcdRestore
      01003BD5H   CODE     ---       CS_ScaleDisplay_LcdShowAll
      01000FA8H   CODE     ---       CS_ScaleDisplay_LcdShowNoDigit
      01003BC7H   CODE     ---       CS_ScaleDisplay_LcdShowNull
      01000F73H   CODE     ---       CS_ScaleDisplay_SteadyFlash
      02004C06H   XDATA    ---       deviceInfo
      02004C5DH   XDATA    BYTE      handleIndicationConfirm
      02004C10H   XDATA    ---       historyUserData
      01003C0DH   CODE     ---       lxOptProcess
      02004C5CH   XDATA    BYTE      lxOptStatus
      010004C2H   CODE     ---       main
      02004C59H   XDATA    BYTE      notifyValueUUIDA621
      02004C5AH   XDATA    BYTE      notifyValueUUIDA625
      01003F1BH   CODE     ---       QueueInit
      02004CD2H   XDATA    ---       R_1186_RTC
      02004CD9H   XDATA    BYTE      R_1186sys_state
      02004CD7H   XDATA    WORD      R_AD_Original
      02004CC6H   XDATA    WORD      R_Debug_temp
      02004CC1H   XDATA    BYTE      R_Display_Err
      02004CC4H   XDATA    BYTE      R_Scale_state
      02004CC5H   XDATA    BYTE      R_Selet_Unit
      02004C62H   XDATA    BYTE      R_Test
      02004CC8H   XDATA    ---       R_UnitWeight
      02004D54H   XDATA    ---       R_Weight_Com_Coo
      02004CBFH   XDATA    WORD      R_Weight_Lock
      02004CC2H   XDATA    WORD      R_Weight_Mem
      02004C00H   XDATA    ---       sensor_data
      010008F3H   CODE     ---       SoftTimer_10mSCallback
      02004E3CH   XDATA    BYTE      SoftTimer_10msTimerID
      02004E3BH   XDATA    BYTE      SoftTimer_1STimerID
      010021B3H   CODE     ---       SPIFlashReadSR
      010020A1H   CODE     ---       SPIFlashWaitBusy
      0100216FH   CODE     ---       SPIFlashWriteEnable
      02004E59H   XDATA    BYTE      sys_state
      010005A2H   CODE     ---       SysStatusProcess
      01000FECH   CODE     ---       systemInit
      02004D44H   XDATA    ---       uartRcvBuf
      02004D67H   XDATA    BYTE      uartTimeoutCnt
      02004D57H   XDATA    ---       uartTxBuf
      02004C5EH   XDATA    LONG      UTCTime
      01003163H   CODE     ---       YC_Ice_break
      01000592H   CODE     ---       YC_UARTClearBuffer
      0100065BH   CODE     ---       YC_UARTWaitSendData
      02004CDAH   XDATA    ---       YC_UtilTimer
      010010B9H   CODE     ---       YC_UtilTimerInit
      01002890H   CODE     ---       YC_UtilTimerProcess



SYMBOL TABLE OF MODULE:  OUT\FW (MAIN)

      VALUE       REP       CLASS    TYPE      SYMBOL NAME
      ====================================================
      ---         MODULE    ---      ---       MAIN
      010004C2H   PUBLIC    CODE     ---       main

      010004C2H   BLOCK     CODE     ---       LVL=0
      010004C2H   LINE      ---      ---       #20
      010004C2H   LINE      ---      ---       #21
      010004C2H   LINE      ---      ---       #22
      010004C8H   LINE      ---      ---       #23
      010004CBH   LINE      ---      ---       #24
      010004CBH   LINE      ---      ---       #25
      010004CEH   LINE      ---      ---       #26
      010004D1H   LINE      ---      ---       #28
      010004D3H   LINE      ---      ---       #29
      010004DAH   LINE      ---      ---       #30
      010004DDH   LINE      ---      ---       #31
      010004DFH   LINE      ---      ---       #32
      010004E2H   LINE      ---      ---       #33
      010004E2H   LINE      ---      ---       #34
      ---         BLOCKEND  ---      ---       LVL=0

      ---         MODULE    ---      ---       SYSTEM
      02004E3CH   PUBLIC    XDATA    BYTE      SoftTimer_10msTimerID
      02004E3BH   PUBLIC    XDATA    BYTE      SoftTimer_1STimerID
      010005A2H   PUBLIC    CODE     ---       SysStatusProcess
      010027B1H   PUBLIC    CODE     ---       BTControlProcess
      010026D3H   PUBLIC    CODE     ---       _generateChecksum
      01000FECH   PUBLIC    CODE     ---       systemInit
      010008F3H   PUBLIC    CODE     ---       SoftTimer_10mSCallback

      010008F3H   BLOCK     CODE     ---       LVL=0
      010008F3H   LINE      ---      ---       #44
      010008F3H   LINE      ---      ---       #45
      010008F3H   BLOCK     CODE     NEAR LAB  LVL=1
      010008F3H   LINE      ---      ---       #47
      0100090AH   LINE      ---      ---       #49
      01000913H   LINE      ---      ---       #50
      01000916H   LINE      ---      ---       #51
      01000916H   LINE      ---      ---       #54
      0100091FH   LINE      ---      ---       #55
      01000924H   LINE      ---      ---       #57
      01000924H   LINE      ---      ---       #58
      01000929H   LINE      ---      ---       #59
      0100092EH   LINE      ---      ---       #60
      01000933H   LINE      ---      ---       #61
      01000933H   LINE      ---      ---       #63
      02004E3AH   SYMBOL    XDATA    VOID      count
      ---         BLOCKEND  CODE     ---       LVL=1
      ---         BLOCKEND  CODE     ---       LVL=0

      01000FECH   BLOCK     CODE     ---       LVL=0
      01000FECH   LINE      ---      ---       #69
      01000FECH   LINE      ---      ---       #70
      01000FECH   LINE      ---      ---       #71
      01000FF1H   LINE      ---      ---       #72
      01000FF9H   LINE      ---      ---       #73
      01000FF9H   LINE      ---      ---       #74
      01000FFFH   LINE      ---      ---       #75
      01001004H   LINE      ---      ---       #77
      01001007H   LINE      ---      ---       #79
      0100100CH   LINE      ---      ---       #80
      01001011H   LINE      ---      ---       #81
      01001019H   LINE      ---      ---       #82
      01001019H   LINE      ---      ---       #83
      01001024H   LINE      ---      ---       #84
      01001024H   LINE      ---      ---       #85
      0100102CH   LINE      ---      ---       #87
      0100102EH   LINE      ---      ---       #89
      01001044H   LINE      ---      ---       #90
      01001046H   LINE      ---      ---       #92
      01001048H   LINE      ---      ---       #93
      01001048H   LINE      ---      ---       #94
      01001054H   LINE      ---      ---       #95
      01001054H   LINE      ---      ---       #96
      0100105AH   LINE      ---      ---       #97
      0100105EH   LINE      ---      ---       #98
      01001060H   LINE      ---      ---       #100
      01001076H   LINE      ---      ---       #106
      01001078H   LINE      ---      ---       #107
      01001078H   LINE      ---      ---       #108
      0100107EH   LINE      ---      ---       #109
      0100107EH   LINE      ---      ---       #110
      0100107EH   LINE      ---      ---       #111
      01001083H   LINE      ---      ---       #112
      ---         BLOCKEND  ---      ---       LVL=0

      010026D3H   BLOCK     CODE     ---       LVL=0
      010026D3H   LINE      ---      ---       #114
      010026DEH   LINE      ---      ---       #115
      010026DEH   BLOCK     CODE     NEAR LAB  LVL=1
      010026DEH   LINE      ---      ---       #117
      010026E0H   LINE      ---      ---       #118
      010026E6H   LINE      ---      ---       #119
      010026FBH   LINE      ---      ---       #120
      010026FDH   LINE      ---      ---       #121
      010026FDH   LINE      ---      ---       #122
      00000007H   SYMBOL    DATA     VOID      result
      ---         BLOCKEND  CODE     ---       LVL=1
      ---         BLOCKEND  CODE     ---       LVL=0

      010027B1H   BLOCK     CODE     ---       LVL=0
      010027B1H   LINE      ---      ---       #124
      010027B1H   LINE      ---      ---       #125
      010027B1H   BLOCK     CODE     NEAR LAB  LVL=1
      010027B1H   LINE      ---      ---       #128
      010027BAH   LINE      ---      ---       #129
      010027C0H   LINE      ---      ---       #130
      010027C0H   LINE      ---      ---       #132
      010027D4H   LINE      ---      ---       #133
      010027D4H   LINE      ---      ---       #134
      010027D4H   LINE      ---      ---       #135
      010027D4H   LINE      ---      ---       #136
      010027D9H   LINE      ---      ---       #137
      010027DDH   LINE      ---      ---       #138
      010027E1H   LINE      ---      ---       #139
      010027E2H   LINE      ---      ---       #140
      010027E2H   LINE      ---      ---       #141
      010027E7H   LINE      ---      ---       #142
      010027ECH   LINE      ---      ---       #143
      010027EDH   LINE      ---      ---       #144
      010027EDH   LINE      ---      ---       #145
      010027F6H   LINE      ---      ---       #146
      010027F6H   LINE      ---      ---       #147
      010027F6H   LINE      ---      ---       #148
      010027FEH   LINE      ---      ---       #149
      010027FEH   LINE      ---      ---       #150
      01002806H   LINE      ---      ---       #151
      01002808H   LINE      ---      ---       #152
      0100280CH   LINE      ---      ---       #153
      0100280CH   LINE      ---      ---       #154
      01002814H   LINE      ---      ---       #155
      01002814H   LINE      ---      ---       #157
      01002829H   LINE      ---      ---       #160
      01002829H   LINE      ---      ---       #161
      0100282FH   LINE      ---      ---       #162
      0100282FH   LINE      ---      ---       #163
      01002830H   LINE      ---      ---       #164
      01002830H   LINE      ---      ---       #165
      01002830H   LINE      ---      ---       #166
      01002830H   LINE      ---      ---       #167
      01002836H   LINE      ---      ---       #168
      01002836H   LINE      ---      ---       #169
      01002836H   LINE      ---      ---       #170
      01002836H   LINE      ---      ---       #171
      02004D68H   SYMBOL    XDATA    VOID      event
      ---         BLOCKEND  CODE     ---       LVL=1
      ---         BLOCKEND  CODE     ---       LVL=0

      010005A2H   BLOCK     CODE     ---       LVL=0
      010005A2H   LINE      ---      ---       #174
      010005A2H   LINE      ---      ---       #175
      010005A2H   LINE      ---      ---       #176
      010005A9H   LINE      ---      ---       #177
      010005AFH   LINE      ---      ---       #178
      010005AFH   LINE      ---      ---       #179
      010005B1H   LINE      ---      ---       #180
      010005B3H   LINE      ---      ---       #181
      010005B9H   LINE      ---      ---       #183
      010005BDH   LINE      ---      ---       #184
      010005C1H   LINE      ---      ---       #185
      010005CAH   LINE      ---      ---       #188
      010005CAH   LINE      ---      ---       #189
      010005CAH   LINE      ---      ---       #190
      010005D1H   LINE      ---      ---       #191
      010005D3H   LINE      ---      ---       #192
      010005D5H   LINE      ---      ---       #193
      010005DBH   LINE      ---      ---       #194
      010005DCH   LINE      ---      ---       #195
      010005DCH   LINE      ---      ---       #196
      010005E1H   LINE      ---      ---       #197
      010005E1H   LINE      ---      ---       #198
      ---         BLOCKEND  ---      ---       LVL=0

      ---         MODULE    ---      ---       YC_SYS
      02004CDAH   PUBLIC    XDATA    ---       YC_UtilTimer
      01002890H   PUBLIC    CODE     ---       YC_UtilTimerProcess
      01002837H   PUBLIC    CODE     ---       _YC_UtilTimerStop
      02004DD4H   PUBLIC    XDATA    BYTE      ?_YC_UtilTimerStartMs?BYTE
      0100117CH   PUBLIC    CODE     ---       _YC_UtilTimerStartMs
      010010B9H   PUBLIC    CODE     ---       YC_UtilTimerInit

      010010B9H   BLOCK     CODE     ---       LVL=0
      010010B9H   LINE      ---      ---       #8
      010010B9H   LINE      ---      ---       #9
      010010B9H   BLOCK     CODE     NEAR LAB  LVL=1
      010010B9H   LINE      ---      ---       #12
      010010BEH   LINE      ---      ---       #13
      0100113BH   LINE      ---      ---       #14
      0100114AH   LINE      ---      ---       #15
      0100115EH   LINE      ---      ---       #16
      01001173H   LINE      ---      ---       #17
      0100117BH   LINE      ---      ---       #19
      02004E56H   SYMBOL    XDATA    VOID      i
      ---         BLOCKEND  CODE     ---       LVL=1
      ---         BLOCKEND  CODE     ---       LVL=0

      0100117CH   BLOCK     CODE     ---       LVL=0
      0100117CH   LINE      ---      ---       #44
      01001184H   LINE      ---      ---       #45
      01001184H   BLOCK     CODE     NEAR LAB  LVL=1
      01001184H   LINE      ---      ---       #46
      01001189H   LINE      ---      ---       #49
      01001190H   LINE      ---      ---       #50
      01001192H   LINE      ---      ---       #51
      01001192H   LINE      ---      ---       #52
      0100119CH   LINE      ---      ---       #53
      010011ADH   LINE      ---      ---       #54
      010011B8H   LINE      ---      ---       #55
      010011BFH   LINE      ---      ---       #56
      010011C1H   LINE      ---      ---       #57
      010011C1H   LINE      ---      ---       #58
      010011C7H   LINE      ---      ---       #59
      010011C9H   LINE      ---      ---       #60
      010011E3H   LINE      ---      ---       #61
      010011F9H   LINE      ---      ---       #62
      010012B9H   LINE      ---      ---       #63
      010012BAH   LINE      ---      ---       #64
      02004DDBH   SYMBOL    XDATA    VOID      i
      ---         BLOCKEND  CODE     ---       LVL=1
      ---         BLOCKEND  CODE     ---       LVL=0

      01002837H   BLOCK     CODE     ---       LVL=0
      01002837H   LINE      ---      ---       #66
      01002839H   LINE      ---      ---       #68
      01002850H   LINE      ---      ---       #69
      01002852H   LINE      ---      ---       #70
      01002865H   LINE      ---      ---       #71
      01002879H   LINE      ---      ---       #72
      0100288EH   LINE      ---      ---       #73
      0100288FH   LINE      ---      ---       #74
      ---         BLOCKEND  ---      ---       LVL=0

      01002890H   BLOCK     CODE     ---       LVL=0
      01002890H   LINE      ---      ---       #76
      01002890H   BLOCK     CODE     NEAR LAB  LVL=1
      01002890H   LINE      ---      ---       #97
      0100290DH   LINE      ---      ---       #98
      01002910H   LINE      ---      ---       #99
      01002925H   LINE      ---      ---       #100
      01002991H   LINE      ---      ---       #101
      01002991H   LINE      ---      ---       #102
      010029A9H   LINE      ---      ---       #103
      010029C7H   LINE      ---      ---       #104
      010029C7H   LINE      ---      ---       #105
      010029C7H   LINE      ---      ---       #106
      010029D2H   LINE      ---      ---       #109
      0000001FH   SYMBOL    DATA     VOID      i
      ---         BLOCKEND  CODE     ---       LVL=1
      ---         BLOCKEND  CODE     ---       LVL=0

      ---         MODULE    ---      ---       YC_PERIPHERAL
      01000592H   PUBLIC    CODE     ---       YC_UARTClearBuffer
      010007A8H   PUBLIC    CODE     ---       _YC_UARTReciveDataExpected
      0100065BH   PUBLIC    CODE     ---       YC_UARTWaitSendData
      010029D3H   PUBLIC    CODE     ---       _YC_UARTSendData
      01001084H   PUBLIC    CODE     ---       _YC_GPIOGetInputStatus

      01001084H   BLOCK     CODE     ---       LVL=0
      01001084H   LINE      ---      ---       #140
      01001084H   LINE      ---      ---       #141
      01001084H   BLOCK     CODE     NEAR LAB  LVL=1
      01001084H   LINE      ---      ---       #144
      01001088H   LINE      ---      ---       #145
      0100108FH   LINE      ---      ---       #147
      010010B8H   LINE      ---      ---       #148
      00000006H   SYMBOL    DATA     VOID      queue
      00000007H   SYMBOL    DATA     VOID      group
      ---         BLOCKEND  CODE     ---       LVL=1
      ---         BLOCKEND  CODE     ---       LVL=0

      010029D3H   BLOCK     CODE     ---       LVL=0
      010029D3H   LINE      ---      ---       #351
      010029E4H   LINE      ---      ---       #352
      010029E4H   BLOCK     CODE     NEAR LAB  LVL=1
      010029E4H   LINE      ---      ---       #354
      01002A00H   LINE      ---      ---       #356
      01002A1EH   LINE      ---      ---       #357
      01002A1EH   LINE      ---      ---       #358
      01002A42H   LINE      ---      ---       #360
      01002A68H   LINE      ---      ---       #361
      01002A68H   LINE      ---      ---       #362
      01002A75H   LINE      ---      ---       #363
      01002A86H   LINE      ---      ---       #365
      01002AA2H   LINE      ---      ---       #366
      01002AA2H   LINE      ---      ---       #367
      01002AB2H   LINE      ---      ---       #369
      01002AD0H   LINE      ---      ---       #371
      02004DB2H   SYMBOL    XDATA    VOID      i
      02004DB4H   SYMBOL    XDATA    VOID      twptr
      ---         BLOCKEND  CODE     ---       LVL=1
      ---         BLOCKEND  CODE     ---       LVL=0

      0100065BH   BLOCK     CODE     ---       LVL=0
      0100065BH   LINE      ---      ---       #373
      0100065BH   LINE      ---      ---       #374
      0100065BH   LINE      ---      ---       #375
      0100066CH   LINE      ---      ---       #376
      ---         BLOCKEND  ---      ---       LVL=0

      010007A8H   BLOCK     CODE     ---       LVL=0
      010007A8H   LINE      ---      ---       #378
      010007B9H   LINE      ---      ---       #379
      010007B9H   BLOCK     CODE     NEAR LAB  LVL=1
      010007B9H   LINE      ---      ---       #380
      010007BEH   LINE      ---      ---       #381
      010007D4H   LINE      ---      ---       #383
      010007EFH   LINE      ---      ---       #384
      010007EFH   LINE      ---      ---       #385
      010007F3H   LINE      ---      ---       #386
      010007F3H   LINE      ---      ---       #388
      01000811H   LINE      ---      ---       #389
      01000811H   LINE      ---      ---       #390
      0100083DH   LINE      ---      ---       #392
      0100085FH   LINE      ---      ---       #393
      0100085FH   LINE      ---      ---       #394
      01000875H   LINE      ---      ---       #395
      01000875H   LINE      ---      ---       #397
      01000893H   LINE      ---      ---       #398
      01000893H   LINE      ---      ---       #399
      010008ADH   LINE      ---      ---       #400
      010008BCH   LINE      ---      ---       #401
      010008BCH   LINE      ---      ---       #402
      010008CDH   LINE      ---      ---       #404
      010008EAH   LINE      ---      ---       #406
      010008F2H   LINE      ---      ---       #407
      02004DD0H   SYMBOL    XDATA    VOID      i
      02004DD2H   SYMBOL    XDATA    VOID      rrptr
      ---         BLOCKEND  CODE     ---       LVL=1
      ---         BLOCKEND  CODE     ---       LVL=0

      01000592H   BLOCK     CODE     ---       LVL=0
      01000592H   LINE      ---      ---       #409
      01000592H   LINE      ---      ---       #410
      01000592H   LINE      ---      ---       #411
      010005A1H   LINE      ---      ---       #413
      ---         BLOCKEND  ---      ---       LVL=0

      ---         MODULE    ---      ---       SPIFLASH
      02004DE4H   PUBLIC    XDATA    BYTE      ?_SPIFlashRead?BYTE
      010021FDH   PUBLIC    CODE     ---       _SPIFlashRead
      02004DDCH   PUBLIC    XDATA    BYTE      ?_SPIFlashWrite?BYTE
      010020AEH   PUBLIC    CODE     ---       _SPIFlashWrite
      01002026H   PUBLIC    CODE     ---       _SPIFlashEraseSector
      010020A1H   PUBLIC    CODE     ---       SPIFlashWaitBusy
      0100216FH   PUBLIC    CODE     ---       SPIFlashWriteEnable
      010021B3H   PUBLIC    CODE     ---       SPIFlashReadSR

      010021B3H   BLOCK     CODE     ---       LVL=0
      010021B3H   LINE      ---      ---       #21
      010021B3H   LINE      ---      ---       #22
      010021B3H   BLOCK     CODE     NEAR LAB  LVL=1
      010021B3H   LINE      ---      ---       #24
      010021B9H   LINE      ---      ---       #25
      010021C2H   LINE      ---      ---       #26
      010021CAH   LINE      ---      ---       #27
      010021D0H   LINE      ---      ---       #28
      010021DAH   LINE      ---      ---       #29
      010021EAH   LINE      ---      ---       #30
      010021F0H   LINE      ---      ---       #31
      010021F7H   LINE      ---      ---       #33
      010021FCH   LINE      ---      ---       #34
      02004E57H   SYMBOL    XDATA    VOID      status
      ---         BLOCKEND  CODE     ---       LVL=1
      ---         BLOCKEND  CODE     ---       LVL=0

      0100216FH   BLOCK     CODE     ---       LVL=0
      0100216FH   LINE      ---      ---       #35
      0100216FH   LINE      ---      ---       #36
      0100216FH   LINE      ---      ---       #37
      01002176H   LINE      ---      ---       #38
      0100217EH   LINE      ---      ---       #39
      01002184H   LINE      ---      ---       #40
      0100218EH   LINE      ---      ---       #41
      01002193H   LINE      ---      ---       #42
      0100219AH   LINE      ---      ---       #43
      ---         BLOCKEND  ---      ---       LVL=0

      0100209CH   BLOCK     CODE     ---       LVL=0
      010020A1H   LINE      ---      ---       #44
      010020A1H   LINE      ---      ---       #45
      010020A1H   LINE      ---      ---       #46
      010020A7H   LINE      ---      ---       #47
      010020ABH   LINE      ---      ---       #48
      010020ADH   LINE      ---      ---       #49
      ---         BLOCKEND  ---      ---       LVL=0

      01002026H   BLOCK     CODE     ---       LVL=0
      01002026H   LINE      ---      ---       #50
      0100202BH   LINE      ---      ---       #54
      01002031H   LINE      ---      ---       #55
      01002049H   LINE      ---      ---       #56
      01002061H   LINE      ---      ---       #57
      01002075H   LINE      ---      ---       #58
      0100207EH   LINE      ---      ---       #59
      01002086H   LINE      ---      ---       #60
      0100208DH   LINE      ---      ---       #61
      01002093H   LINE      ---      ---       #62
      0100209AH   LINE      ---      ---       #63
      ---         BLOCKEND  ---      ---       LVL=0

      010020AEH   BLOCK     CODE     ---       LVL=0
      010020AEH   LINE      ---      ---       #65
      010020BAH   BLOCK     CODE     NEAR LAB  LVL=1
      010020BCH   LINE      ---      ---       #70
      010020C8H   LINE      ---      ---       #71
      010020E8H   LINE      ---      ---       #72
      010020EBH   LINE      ---      ---       #73
      010020F1H   LINE      ---      ---       #74
      01002109H   LINE      ---      ---       #75
      01002121H   LINE      ---      ---       #76
      01002135H   LINE      ---      ---       #77
      01002151H   LINE      ---      ---       #78
      01002159H   LINE      ---      ---       #79
      01002160H   LINE      ---      ---       #80
      01002166H   LINE      ---      ---       #81
      0100216DH   LINE      ---      ---       #82
      00000007H   SYMBOL    DATA     VOID      i
      ---         BLOCKEND  CODE     ---       LVL=1
      ---         BLOCKEND  CODE     ---       LVL=0

      010021FDH   BLOCK     CODE     ---       LVL=0
      010021FDH   LINE      ---      ---       #84
      01002203H   LINE      ---      ---       #85
      01002203H   LINE      ---      ---       #86
      01002212H   LINE      ---      ---       #87
      0100221BH   LINE      ---      ---       #88
      01002221H   LINE      ---      ---       #89
      01002239H   LINE      ---      ---       #90
      01002251H   LINE      ---      ---       #91
      01002265H   LINE      ---      ---       #92
      0100226FH   LINE      ---      ---       #93
      0100227CH   LINE      ---      ---       #94
      01002283H   LINE      ---      ---       #95
      01002289H   LINE      ---      ---       #97
      01002290H   LINE      ---      ---       #98
      01002297H   LINE      ---      ---       #100
      ---         BLOCKEND  ---      ---       LVL=0

      ---         MODULE    ---      ---       BT_IPC
      01003100H   PUBLIC    CODE     ---       _BT_CmdFifoFull
      010030F7H   PUBLIC    CODE     ---       BT_CmdFifoEmpty
      01003135H   PUBLIC    CODE     ---       BT_GetEvtFifoDepth
      010030C9H   PUBLIC    CODE     ---       BT_GetCmdFifoDepth
      01002FC4H   PUBLIC    CODE     ---       _BT_EventFifoOut
      01001BEFH   PUBLIC    CODE     ---       _BT_CmdFifoIn

      01001BEFH   BLOCK     CODE     ---       LVL=0
      01001BEFH   LINE      ---      ---       #7
      01001BFAH   LINE      ---      ---       #8
      01001BFAH   BLOCK     CODE     NEAR LAB  LVL=1
      01001BFAH   LINE      ---      ---       #10
      01001BFFH   LINE      ---      ---       #11
      01001C01H   LINE      ---      ---       #12
      01001C1EH   LINE      ---      ---       #13
      01001C29H   LINE      ---      ---       #14
      01001C29H   LINE      ---      ---       #15
      01001C3EH   LINE      ---      ---       #16
      01001C50H   LINE      ---      ---       #17
      01001C5CH   LINE      ---      ---       #18
      01001C5CH   LINE      ---      ---       #19
      01001C65H   LINE      ---      ---       #20
      01001C65H   LINE      ---      ---       #21
      01001C76H   LINE      ---      ---       #22
      01001C82H   LINE      ---      ---       #23
      01001C82H   LINE      ---      ---       #24
      01001C8BH   LINE      ---      ---       #25
      01001C8BH   LINE      ---      ---       #26
      01001CB0H   LINE      ---      ---       #27
      01001CB0H   LINE      ---      ---       #28
      01001CD2H   LINE      ---      ---       #29
      01001CDEH   LINE      ---      ---       #30
      01001CDEH   LINE      ---      ---       #31
      01001CE7H   LINE      ---      ---       #32
      01001CE7H   LINE      ---      ---       #33
      01001CF7H   LINE      ---      ---       #34
      01001D0CH   LINE      ---      ---       #35
      01001D0EH   LINE      ---      ---       #36
      01001D0EH   LINE      ---      ---       #38
      01001D0EH   LINE      ---      ---       #39
      01001D0FH   LINE      ---      ---       #40
      01001D0FH   LINE      ---      ---       #41
      02004E07H   SYMBOL    XDATA    VOID      new_wprt
      00000006H   SYMBOL    DATA     VOID      new_cmd_len
      02004E09H   SYMBOL    XDATA    VOID      i
      ---         BLOCKEND  CODE     ---       LVL=1
      ---         BLOCKEND  CODE     ---       LVL=0

      01002FC4H   BLOCK     CODE     ---       LVL=0
      01002FC4H   LINE      ---      ---       #43
      01002FCFH   LINE      ---      ---       #44
      01002FCFH   BLOCK     CODE     NEAR LAB  LVL=1
      01002FCFH   LINE      ---      ---       #47
      01002FDBH   LINE      ---      ---       #48
      01002FDBH   LINE      ---      ---       #49
      01002FF0H   LINE      ---      ---       #50
      01003001H   LINE      ---      ---       #51
      01003007H   LINE      ---      ---       #52
      01003026H   LINE      ---      ---       #53
      01003032H   LINE      ---      ---       #54
      01003032H   LINE      ---      ---       #55
      0100303CH   LINE      ---      ---       #56
      0100303CH   LINE      ---      ---       #57
      01003056H   LINE      ---      ---       #58
      01003056H   LINE      ---      ---       #59
      01003078H   LINE      ---      ---       #60
      01003084H   LINE      ---      ---       #61
      01003084H   LINE      ---      ---       #62
      0100308EH   LINE      ---      ---       #63
      0100308EH   LINE      ---      ---       #64
      01003095H   LINE      ---      ---       #65
      01003095H   LINE      ---      ---       #66
      01003095H   LINE      ---      ---       #67
      010030A4H   LINE      ---      ---       #68
      010030A4H   LINE      ---      ---       #69
      010030B9H   LINE      ---      ---       #70
      010030BAH   LINE      ---      ---       #72
      010030BAH   LINE      ---      ---       #73
      02004E27H   SYMBOL    XDATA    VOID      new_rprt
      00000006H   SYMBOL    DATA     VOID      i
      00000007H   SYMBOL    DATA     VOID      event_prefix
      ---         BLOCKEND  CODE     ---       LVL=1
      ---         BLOCKEND  CODE     ---       LVL=0

      010030C9H   BLOCK     CODE     ---       LVL=0
      010030C9H   LINE      ---      ---       #78
      010030C9H   LINE      ---      ---       #79
      010030C9H   BLOCK     CODE     NEAR LAB  LVL=1
      010030C9H   LINE      ---      ---       #81
      010030D6H   LINE      ---      ---       #82
      010030E3H   LINE      ---      ---       #83
      010030F6H   LINE      ---      ---       #84
      010030F6H   LINE      ---      ---       #85
      00000004H   SYMBOL    DATA     VOID      wptr
      00000006H   SYMBOL    DATA     VOID      rptr
      00000006H   SYMBOL    DATA     VOID      len
      ---         BLOCKEND  CODE     ---       LVL=1
      ---         BLOCKEND  CODE     ---       LVL=0

      01003135H   BLOCK     CODE     ---       LVL=0
      01003135H   LINE      ---      ---       #87
      01003135H   LINE      ---      ---       #88
      01003135H   BLOCK     CODE     NEAR LAB  LVL=1
      01003135H   LINE      ---      ---       #90
      01003142H   LINE      ---      ---       #91
      0100314FH   LINE      ---      ---       #92
      01003162H   LINE      ---      ---       #93
      01003162H   LINE      ---      ---       #94
      00000004H   SYMBOL    DATA     VOID      wptr
      00000006H   SYMBOL    DATA     VOID      rptr
      00000006H   SYMBOL    DATA     VOID      len
      ---         BLOCKEND  CODE     ---       LVL=1
      ---         BLOCKEND  CODE     ---       LVL=0

      010030F7H   BLOCK     CODE     ---       LVL=0
      010030F7H   LINE      ---      ---       #96
      010030F7H   LINE      ---      ---       #97
      010030F7H   LINE      ---      ---       #98
      010030FCH   LINE      ---      ---       #99
      010030FCH   LINE      ---      ---       #100
      010030FEH   LINE      ---      ---       #101
      010030FEH   LINE      ---      ---       #102
      010030FFH   LINE      ---      ---       #103
      ---         BLOCKEND  ---      ---       LVL=0

      01003100H   BLOCK     CODE     ---       LVL=0
      01003100H   LINE      ---      ---       #105
      0100310BH   LINE      ---      ---       #106
      0100310BH   LINE      ---      ---       #107
      01003131H   LINE      ---      ---       #108
      01003133H   LINE      ---      ---       #109
      01003134H   LINE      ---      ---       #110
      ---         BLOCKEND  ---      ---       LVL=0

      ---         MODULE    ---      ---       YC_UTILITIES
      010031F7H   PUBLIC    CODE     ---       _YC_Delay1S
      01001D53H   PUBLIC    CODE     ---       _YC_Delay10ms
      0100219BH   PUBLIC    CODE     ---       _YC_Delay1ms
      010031A1H   PUBLIC    CODE     ---       _YC_MemCheckEmpty
      00000021H   PUBLIC    DATA     BYTE      ?_cmemcpy?BYTE
      0100316AH   PUBLIC    CODE     ---       _cmemcpy
      00000010H   PUBLIC    DATA     BYTE      ?_dmemcpy?BYTE
      010025E8H   PUBLIC    CODE     ---       _dmemcpy
      00000017H   PUBLIC    DATA     BYTE      ?_xmemcpy?BYTE
      01002E8BH   PUBLIC    CODE     ---       _xmemcpy
      01001FA3H   PUBLIC    CODE     ---       _xmemset
      01003163H   PUBLIC    CODE     ---       YC_Ice_break

      01003163H   BLOCK     CODE     ---       LVL=0
      01003163H   LINE      ---      ---       #4
      01003163H   LINE      ---      ---       #5
      01003163H   LINE      ---      ---       #6
      01003169H   LINE      ---      ---       #8
      ---         BLOCKEND  ---      ---       LVL=0

      01001FA3H   BLOCK     CODE     ---       LVL=0
      01001FA3H   LINE      ---      ---       #10
      01001FA7H   LINE      ---      ---       #12
      01001FADH   LINE      ---      ---       #13
      01001FC0H   LINE      ---      ---       #15
      ---         BLOCKEND  ---      ---       LVL=0

      01002E8BH   BLOCK     CODE     ---       LVL=0
      01002E8BH   LINE      ---      ---       #16
      01002E95H   LINE      ---      ---       #18
      01002E9CH   LINE      ---      ---       #19
      01002EC1H   LINE      ---      ---       #21
      ---         BLOCKEND  ---      ---       LVL=0

      010025E8H   BLOCK     CODE     ---       LVL=0
      010025E8H   LINE      ---      ---       #22
      010025EEH   LINE      ---      ---       #24
      010025F5H   LINE      ---      ---       #25
      0100261BH   LINE      ---      ---       #27
      ---         BLOCKEND  ---      ---       LVL=0

      0100316AH   BLOCK     CODE     ---       LVL=0
      0100316AH   LINE      ---      ---       #28
      01003174H   LINE      ---      ---       #30
      0100317BH   LINE      ---      ---       #31
      010031A0H   LINE      ---      ---       #33
      ---         BLOCKEND  ---      ---       LVL=0

      010031A1H   BLOCK     CODE     ---       LVL=0
      010031A1H   LINE      ---      ---       #34
      010031AFH   LINE      ---      ---       #35
      010031AFH   BLOCK     CODE     NEAR LAB  LVL=1
      010031AFH   LINE      ---      ---       #37
      010031C1H   LINE      ---      ---       #38
      010031C1H   LINE      ---      ---       #39
      010031D6H   LINE      ---      ---       #40
      010031D6H   LINE      ---      ---       #41
      010031D6H   LINE      ---      ---       #42
      010031D6H   LINE      ---      ---       #43
      010031ECH   LINE      ---      ---       #44
      010031ECH   LINE      ---      ---       #45
      010031EEH   LINE      ---      ---       #46
      010031EEH   LINE      ---      ---       #47
      010031F5H   LINE      ---      ---       #48
      010031F6H   LINE      ---      ---       #49
      00000006H   SYMBOL    DATA     VOID      i
      ---         BLOCKEND  CODE     ---       LVL=1
      ---         BLOCKEND  CODE     ---       LVL=0

      0100219BH   BLOCK     CODE     ---       LVL=0
      0100219BH   LINE      ---      ---       #51
      0100219BH   LINE      ---      ---       #52
      0100219BH   BLOCK     CODE     NEAR LAB  LVL=1
      0100219BH   LINE      ---      ---       #54
      010021A1H   LINE      ---      ---       #55
      010021A1H   LINE      ---      ---       #56
      010021AFH   LINE      ---      ---       #57
      010021B2H   LINE      ---      ---       #58
      00000004H   SYMBOL    DATA     VOID      j
      ---         BLOCKEND  CODE     ---       LVL=1
      ---         BLOCKEND  CODE     ---       LVL=0

      01001D53H   BLOCK     CODE     ---       LVL=0
      01001D53H   LINE      ---      ---       #60
      01001D53H   LINE      ---      ---       #61
      01001D53H   BLOCK     CODE     NEAR LAB  LVL=1
      01001D53H   LINE      ---      ---       #63
      01001D59H   LINE      ---      ---       #64
      01001D59H   LINE      ---      ---       #65
      01001D67H   LINE      ---      ---       #66
      01001D6AH   LINE      ---      ---       #67
      00000004H   SYMBOL    DATA     VOID      j
      ---         BLOCKEND  CODE     ---       LVL=1
      ---         BLOCKEND  CODE     ---       LVL=0

      010031F7H   BLOCK     CODE     ---       LVL=0
      010031F7H   LINE      ---      ---       #69
      010031F7H   LINE      ---      ---       #70
      010031F7H   BLOCK     CODE     NEAR LAB  LVL=1
      010031F7H   LINE      ---      ---       #72
      010031FDH   LINE      ---      ---       #73
      010031FDH   LINE      ---      ---       #74
      01003200H   LINE      ---      ---       #75
      01003200H   LINE      ---      ---       #76
      0100320EH   LINE      ---      ---       #77
      01003219H   LINE      ---      ---       #78
      0100321CH   LINE      ---      ---       #79
      00000004H   SYMBOL    DATA     VOID      j
      00000002H   SYMBOL    DATA     VOID      k
      ---         BLOCKEND  CODE     ---       LVL=1
      ---         BLOCKEND  CODE     ---       LVL=0

      ---         MODULE    ---      ---       CS_SCALE_PROC
      02004CD9H   PUBLIC    XDATA    BYTE      R_1186sys_state
      02004CD7H   PUBLIC    XDATA    WORD      R_AD_Original
      02004CD6H   PUBLIC    XDATA    BYTE      B_Weight_AdOk
      02004CD2H   PUBLIC    XDATA    ---       R_1186_RTC
      02004CC8H   PUBLIC    XDATA    ---       R_UnitWeight
      02004CC6H   PUBLIC    XDATA    WORD      R_Debug_temp
      02004CC5H   PUBLIC    XDATA    BYTE      R_Selet_Unit
      02004CC4H   PUBLIC    XDATA    BYTE      R_Scale_state
      02004CC2H   PUBLIC    XDATA    WORD      R_Weight_Mem
      02004CC1H   PUBLIC    XDATA    BYTE      R_Display_Err
      00000020H.1 PUBLIC    BIT      BIT       B_Debug_Test
      02004CBFH   PUBLIC    XDATA    WORD      R_Weight_Lock
      01001685H   PUBLIC    CODE     ---       _CS_Scale_TimeOutProc
      01000F15H   PUBLIC    CODE     ---       _CS_SoftTimer
      00000020H.0 PUBLIC    BIT      BIT       ?CS_Scale_PowerOnProc?BIT
      01001A72H   PUBLIC    CODE     ---       CS_Scale_PowerOnProc
      01001B5BH   PUBLIC    CODE     ---       _CS_Scale_StandbyProc
      01000A38H   PUBLIC    CODE     ---       _CS_Scale_CaliProc
      01003834H   PUBLIC    CODE     ---       _CS_MemoryWeightClear_Timer
      010037CAH   PUBLIC    CODE     ---       CS_Scale_ReturnLock
      010019BDH   PUBLIC    CODE     ---       _CS_Scale_SteadyProc
      010017F6H   PUBLIC    CODE     ---       _CS_Scale_JudgeSteady
      01001941H   PUBLIC    CODE     ---       _CS_Scale_SameWeightTimes
      0100377FH   PUBLIC    CODE     ---       _CS_Scale_JudgeOverLoad
      010017A6H   PUBLIC    CODE     ---       _CS_Scale_JudgeLowBat
      010018D3H   PUBLIC    CODE     ---       _CS_Scale_LockProc
      010012F0H   PUBLIC    CODE     ---       _CS_Scale_ZeroProc
      01000F53H   PUBLIC    CODE     ---       CS_Scale_ChangeUnit
      0100362EH   PUBLIC    CODE     ---       _CS_Scale_GetWeight
      0100327EH   PUBLIC    CODE     ---       _CS_Scale_AdcFilter
      0100321DH   PUBLIC    CODE     ---       _CS_Scale_GetDeltaAD
      010017CDH   PUBLIC    CODE     ---       CS_Scale_WeightProc
      010012BBH   PUBLIC    CODE     ---       CS_Scale_PowerOn
      01001620H   PUBLIC    CODE     ---       CS_Scale_Proc

      01001620H   BLOCK     CODE     ---       LVL=0
      01001620H   LINE      ---      ---       #126
      01001620H   LINE      ---      ---       #127
      01001620H   LINE      ---      ---       #128
      01001626H   LINE      ---      ---       #129
      01001626H   LINE      ---      ---       #130
      0100162BH   LINE      ---      ---       #131
      0100162BH   LINE      ---      ---       #132
      01001632H   LINE      ---      ---       #133
      01001632H   LINE      ---      ---       #134
      01001637H   LINE      ---      ---       #135
      01001637H   LINE      ---      ---       #137
      0100163FH   LINE      ---      ---       #138
      0100163FH   LINE      ---      ---       #139
      01001640H   LINE      ---      ---       #141
      0100164AH   LINE      ---      ---       #142
      0100164AH   LINE      ---      ---       #143
      01001650H   LINE      ---      ---       #144
      01001650H   LINE      ---      ---       #146
      01001650H   LINE      ---      ---       #148
      01001657H   LINE      ---      ---       #149
      01001657H   LINE      ---      ---       #150
      01001659H   LINE      ---      ---       #151
      0100165BH   LINE      ---      ---       #152
      0100165BH   LINE      ---      ---       #153
      01001662H   LINE      ---      ---       #154
      01001662H   LINE      ---      ---       #155
      01001665H   LINE      ---      ---       #156
      0100166DH   LINE      ---      ---       #157
      0100166DH   LINE      ---      ---       #158
      01001672H   LINE      ---      ---       #159
      01001674H   LINE      ---      ---       #160
      01001674H   LINE      ---      ---       #161
      01001674H   LINE      ---      ---       #162
      0100167BH   LINE      ---      ---       #163
      0100167BH   LINE      ---      ---       #164
      01001680H   LINE      ---      ---       #165
      01001680H   LINE      ---      ---       #167
      01001684H   LINE      ---      ---       #168
      01001684H   LINE      ---      ---       #169
      01001684H   LINE      ---      ---       #170
      ---         BLOCKEND  ---      ---       LVL=0

      010012BBH   BLOCK     CODE     ---       LVL=0
      010012BBH   LINE      ---      ---       #178
      010012BBH   LINE      ---      ---       #179
      010012BBH   LINE      ---      ---       #181
      010012C1H   LINE      ---      ---       #182
      010012C1H   LINE      ---      ---       #183
      010012C5H   LINE      ---      ---       #184
      010012C9H   LINE      ---      ---       #185
      010012CDH   LINE      ---      ---       #187
      010012D3H   LINE      ---      ---       #189
      010012D8H   LINE      ---      ---       #190
      010012DAH   LINE      ---      ---       #192
      010012DFH   LINE      ---      ---       #193
      010012E6H   LINE      ---      ---       #195
      010012EAH   LINE      ---      ---       #196
      010012EFH   LINE      ---      ---       #197
      010012EFH   LINE      ---      ---       #198
      ---         BLOCKEND  ---      ---       LVL=0

      010017CDH   BLOCK     CODE     ---       LVL=0
      010017CDH   LINE      ---      ---       #207
      010017CDH   LINE      ---      ---       #208
      010017CDH   BLOCK     CODE     NEAR LAB  LVL=1
      010017CDH   LINE      ---      ---       #211
      010017D2H   LINE      ---      ---       #212
      010017DBH   LINE      ---      ---       #213
      010017DEH   LINE      ---      ---       #214
      010017E3H   LINE      ---      ---       #215
      010017EAH   LINE      ---      ---       #216
      010017EFH   LINE      ---      ---       #217
      010017F4H   LINE      ---      ---       #219
      00000006H   SYMBOL    DATA     VOID      R_AD_BUF
      ---         BLOCKEND  CODE     ---       LVL=1
      ---         BLOCKEND  CODE     ---       LVL=0

      0100321DH   BLOCK     CODE     ---       LVL=0
      0100321DH   LINE      ---      ---       #225
      01003222H   LINE      ---      ---       #226
      01003222H   BLOCK     CODE     NEAR LAB  LVL=1
      01003222H   LINE      ---      ---       #230
      0100322AH   LINE      ---      ---       #231
      01003238H   LINE      ---      ---       #232
      01003238H   LINE      ---      ---       #233
      01003244H   LINE      ---      ---       #234
      0100324AH   LINE      ---      ---       #236
      0100324CH   LINE      ---      ---       #238
      0100324CH   LINE      ---      ---       #239
      01003261H   LINE      ---      ---       #240
      01003266H   LINE      ---      ---       #241
      01003266H   LINE      ---      ---       #244
      0100326DH   LINE      ---      ---       #245
      0100326DH   LINE      ---      ---       #246
      01003275H   LINE      ---      ---       #247
      01003275H   LINE      ---      ---       #248
      0100327DH   LINE      ---      ---       #249
      02004C80H   SYMBOL    XDATA    VOID      B_Weight_Pos
      02004E44H   SYMBOL    XDATA    VOID      ad_temp
      00000006H   SYMBOL    DATA     VOID      R_AD_Zero
      ---         BLOCKEND  CODE     ---       LVL=1
      ---         BLOCKEND  CODE     ---       LVL=0

      0100327EH   BLOCK     CODE     ---       LVL=0
      0100327EH   LINE      ---      ---       #254
      0100328BH   LINE      ---      ---       #255
      0100328BH   BLOCK     CODE     NEAR LAB  LVL=1
      0100328BH   LINE      ---      ---       #268
      0100328EH   LINE      ---      ---       #269
      0100328EH   LINE      ---      ---       #270
      01003297H   LINE      ---      ---       #271
      01003297H   LINE      ---      ---       #274
      010032ADH   LINE      ---      ---       #275
      010032C4H   LINE      ---      ---       #277
      010032E2H   LINE      ---      ---       #279
      010032F1H   LINE      ---      ---       #281
      01003312H   LINE      ---      ---       #282
      01003312H   LINE      ---      ---       #283
      01003319H   LINE      ---      ---       #284
      0100331FH   LINE      ---      ---       #285
      01003323H   LINE      ---      ---       #286
      01003327H   LINE      ---      ---       #287
      0100332BH   LINE      ---      ---       #288
      0100332FH   LINE      ---      ---       #289
      01003333H   LINE      ---      ---       #290
      01003337H   LINE      ---      ---       #291
      0100333BH   LINE      ---      ---       #292
      0100333DH   LINE      ---      ---       #294
      0100333DH   LINE      ---      ---       #295
      0100334CH   LINE      ---      ---       #296
      01003358H   LINE      ---      ---       #298
      01003368H   LINE      ---      ---       #299
      01003377H   LINE      ---      ---       #300
      01003380H   LINE      ---      ---       #301
      0100338FH   LINE      ---      ---       #302
      0100339EH   LINE      ---      ---       #303
      010033ADH   LINE      ---      ---       #304
      010033BDH   LINE      ---      ---       #305
      010033CCH   LINE      ---      ---       #306
      010033D5H   LINE      ---      ---       #307
      010033E4H   LINE      ---      ---       #308
      010033F3H   LINE      ---      ---       #309
      01003402H   LINE      ---      ---       #310
      01003412H   LINE      ---      ---       #311
      01003421H   LINE      ---      ---       #312
      0100342AH   LINE      ---      ---       #313
      01003439H   LINE      ---      ---       #314
      01003448H   LINE      ---      ---       #315
      01003448H   LINE      ---      ---       #316
      01003457H   LINE      ---      ---       #317
      01003466H   LINE      ---      ---       #318
      01003475H   LINE      ---      ---       #319
      01003484H   LINE      ---      ---       #320
      01003493H   LINE      ---      ---       #321
      010034A2H   LINE      ---      ---       #322
      010034B1H   LINE      ---      ---       #323
      010034C0H   LINE      ---      ---       #324
      010034C0H   LINE      ---      ---       #326
      010034D1H   LINE      ---      ---       #327
      010034FCH   LINE      ---      ---       #328
      01003527H   LINE      ---      ---       #329
      01003552H   LINE      ---      ---       #330
      0100357DH   LINE      ---      ---       #331
      010035A8H   LINE      ---      ---       #332
      010035D3H   LINE      ---      ---       #333
      010035FEH   LINE      ---      ---       #335
      0100361DH   LINE      ---      ---       #336
      01003625H   LINE      ---      ---       #337
      01003625H   LINE      ---      ---       #338
      0100362DH   LINE      ---      ---       #339
      02004E0EH   SYMBOL    XDATA    VOID      ad_temp
      02004C81H   SYMBOL    XDATA    VOID      R_AD_FilTimes
      02004C83H   SYMBOL    XDATA    VOID      R_AD_BUF_OLD
      02004C85H   SYMBOL    XDATA    VOID      R_AD_F1
      02004C87H   SYMBOL    XDATA    VOID      R_AD_F2
      02004C89H   SYMBOL    XDATA    VOID      R_AD_F3
      02004C8BH   SYMBOL    XDATA    VOID      R_AD_F4
      02004C8DH   SYMBOL    XDATA    VOID      R_AD_F5
      02004C8FH   SYMBOL    XDATA    VOID      R_AD_F6
      02004C91H   SYMBOL    XDATA    VOID      R_AD_F7
      02004C93H   SYMBOL    XDATA    VOID      R_AD_F8
      ---         BLOCKEND  CODE     ---       LVL=1
      ---         BLOCKEND  CODE     ---       LVL=0

      0100362EH   BLOCK     CODE     ---       LVL=0
      0100362EH   LINE      ---      ---       #344
      01003636H   LINE      ---      ---       #345
      01003636H   BLOCK     CODE     NEAR LAB  LVL=1
      01003636H   LINE      ---      ---       #350
      01003643H   LINE      ---      ---       #351
      01003650H   LINE      ---      ---       #352
      0100365DH   LINE      ---      ---       #354
      01003673H   LINE      ---      ---       #355
      01003673H   LINE      ---      ---       #356
      0100367EH   LINE      ---      ---       #357
      010036A6H   LINE      ---      ---       #359
      010036A6H   LINE      ---      ---       #360
      010036C2H   LINE      ---      ---       #362
      010036CFH   LINE      ---      ---       #363
      010036CFH   LINE      ---      ---       #364
      010036E4H   LINE      ---      ---       #365
      01003712H   LINE      ---      ---       #367
      01003712H   LINE      ---      ---       #369
      0100373CH   LINE      ---      ---       #370
      01003751H   LINE      ---      ---       #371
      0100377EH   LINE      ---      ---       #374
      02004DA1H   SYMBOL    XDATA    VOID      ad_temp
      02004DA5H   SYMBOL    XDATA    VOID      ad_cal
      02004DA7H   SYMBOL    XDATA    VOID      CaliDot1
      02004DA9H   SYMBOL    XDATA    VOID      CaliDot2
      02004DABH   SYMBOL    XDATA    VOID      CaliDot3
      ---         BLOCKEND  CODE     ---       LVL=1
      ---         BLOCKEND  CODE     ---       LVL=0

      01000F53H   BLOCK     CODE     ---       LVL=0
      01000F53H   LINE      ---      ---       #377
      01000F53H   LINE      ---      ---       #378
      01000F53H   LINE      ---      ---       #379
      01000F5EH   LINE      ---      ---       #380
      01000F5EH   LINE      ---      ---       #389
      01000F5EH   LINE      ---      ---       #390
      01000F64H   LINE      ---      ---       #391
      01000F65H   LINE      ---      ---       #392
      01000F65H   LINE      ---      ---       #393
      01000F6BH   LINE      ---      ---       #394
      01000F6CH   LINE      ---      ---       #395
      01000F6CH   LINE      ---      ---       #396
      01000F72H   LINE      ---      ---       #397
      01000F72H   LINE      ---      ---       #398
      01000F72H   LINE      ---      ---       #399
      ---         BLOCKEND  ---      ---       LVL=0

      010012F0H   BLOCK     CODE     ---       LVL=0
      010012F0H   LINE      ---      ---       #403
      010012F5H   LINE      ---      ---       #404
      010012F5H   BLOCK     CODE     NEAR LAB  LVL=1
      010012F5H   LINE      ---      ---       #421
      010012F8H   LINE      ---      ---       #422
      010012F8H   LINE      ---      ---       #423
      010012FDH   LINE      ---      ---       #424
      01001300H   LINE      ---      ---       #425
      01001300H   LINE      ---      ---       #426
      01001308H   LINE      ---      ---       #427
      01001308H   LINE      ---      ---       #428
      01001310H   LINE      ---      ---       #429
      01001314H   LINE      ---      ---       #430
      01001314H   LINE      ---      ---       #431
      01001318H   LINE      ---      ---       #432
      01001318H   LINE      ---      ---       #433
      01001322H   LINE      ---      ---       #434
      01001326H   LINE      ---      ---       #435
      01001326H   LINE      ---      ---       #436
      0100132EH   LINE      ---      ---       #437
      0100132EH   LINE      ---      ---       #438
      01001333H   LINE      ---      ---       #439
      01001336H   LINE      ---      ---       #440
      01001336H   LINE      ---      ---       #442
      0100133BH   LINE      ---      ---       #443
      0100133BH   LINE      ---      ---       #446
      01001344H   LINE      ---      ---       #447
      01001344H   LINE      ---      ---       #448
      01001347H   LINE      ---      ---       #450
      01001359H   LINE      ---      ---       #451
      01001368H   LINE      ---      ---       #452
      0100136DH   LINE      ---      ---       #454
      01001376H   LINE      ---      ---       #455
      01001376H   LINE      ---      ---       #456
      01001386H   LINE      ---      ---       #457
      0100138EH   LINE      ---      ---       #458
      01001394H   LINE      ---      ---       #459
      01001394H   LINE      ---      ---       #460
      01001396H   LINE      ---      ---       #462
      01001396H   LINE      ---      ---       #463
      010013A0H   LINE      ---      ---       #464
      010013AAH   LINE      ---      ---       #465
      010013B0H   LINE      ---      ---       #466
      010013B0H   LINE      ---      ---       #468
      010013B0H   LINE      ---      ---       #470
      010013BAH   LINE      ---      ---       #471
      010013BAH   LINE      ---      ---       #472
      010013BEH   LINE      ---      ---       #474
      010013C8H   LINE      ---      ---       #475
      010013D5H   LINE      ---      ---       #480
      010013EBH   LINE      ---      ---       #481
      010013F1H   LINE      ---      ---       #483
      01001402H   LINE      ---      ---       #484
      01001402H   LINE      ---      ---       #485
      0100140FH   LINE      ---      ---       #486
      0100140FH   LINE      ---      ---       #488
      01001414H   LINE      ---      ---       #491
      0100141CH   LINE      ---      ---       #492
      0100141CH   LINE      ---      ---       #493
      01001432H   LINE      ---      ---       #494
      01001432H   LINE      ---      ---       #495
      0100143FH   LINE      ---      ---       #496
      0100144EH   LINE      ---      ---       #497
      0100145DH   LINE      ---      ---       #498
      0100145FH   LINE      ---      ---       #500
      0100146EH   LINE      ---      ---       #501
      01001470H   LINE      ---      ---       #504
      01001470H   LINE      ---      ---       #510
      01001476H   LINE      ---      ---       #511
      01001476H   LINE      ---      ---       #512
      0100148CH   LINE      ---      ---       #513
      0100149AH   LINE      ---      ---       #515
      010014B5H   LINE      ---      ---       #522
      010014C4H   LINE      ---      ---       #523
      010014D3H   LINE      ---      ---       #524
      010014D3H   LINE      ---      ---       #526
      010014D9H   LINE      ---      ---       #527
      010014DFH   LINE      ---      ---       #528
      010014E4H   LINE      ---      ---       #530
      010014E4H   LINE      ---      ---       #531
      010014EAH   LINE      ---      ---       #532
      010014EAH   LINE      ---      ---       #534
      010014EAH   LINE      ---      ---       #536
      010014EAH   LINE      ---      ---       #537
      010014EAH   LINE      ---      ---       #539
      010014F1H   LINE      ---      ---       #540
      010014F1H   LINE      ---      ---       #541
      010014FCH   LINE      ---      ---       #542
      010014FCH   LINE      ---      ---       #543
      01001501H   LINE      ---      ---       #544
      01001505H   LINE      ---      ---       #545
      0100150AH   LINE      ---      ---       #546
      0100150AH   LINE      ---      ---       #547
      0100150AH   LINE      ---      ---       #548
      0100150EH   LINE      ---      ---       #549
      0100150EH   LINE      ---      ---       #551
      01001515H   LINE      ---      ---       #552
      0100151EH   LINE      ---      ---       #553
      01001522H   LINE      ---      ---       #554
      0100152AH   LINE      ---      ---       #555
      01001532H   LINE      ---      ---       #556
      0100153BH   LINE      ---      ---       #557
      0100153FH   LINE      ---      ---       #558
      01001547H   LINE      ---      ---       #559
      0100154EH   LINE      ---      ---       #560
      01001556H   LINE      ---      ---       #562
      01001559H   LINE      ---      ---       #563
      02004C95H   SYMBOL    XDATA    VOID      R_Weight_GetZeroTimeOut
      02004C96H   SYMBOL    XDATA    VOID      R_AD_PowerOnZero
      02004C98H   SYMBOL    XDATA    VOID      R_AD_Zero
      02004C9AH   SYMBOL    XDATA    VOID      B_Weight_Zero
      02004C9BH   SYMBOL    XDATA    VOID      B_Weight_ZeroOk
      02004C9CH   SYMBOL    XDATA    VOID      B_LockDownCheck
      02004C9DH   SYMBOL    XDATA    VOID      B_WeightZeroErr
      00000006H   SYMBOL    DATA     VOID      R_AdFilTimes
      02004DEDH   SYMBOL    XDATA    VOID      R_AD_BUF
      02004DEFH   SYMBOL    XDATA    VOID      weight_temp
      02004DF1H   SYMBOL    XDATA    VOID      R_Open_Weight
      02004DF3H   SYMBOL    XDATA    VOID      B_Weight_Pos
      ---         BLOCKEND  CODE     ---       LVL=1
      ---         BLOCKEND  CODE     ---       LVL=0

      010018D3H   BLOCK     CODE     ---       LVL=0
      010018D3H   LINE      ---      ---       #574
      010018D3H   LINE      ---      ---       #575
      010018D3H   BLOCK     CODE     NEAR LAB  LVL=1
      010018D3H   LINE      ---      ---       #578
      010018D7H   LINE      ---      ---       #579
      010018D7H   LINE      ---      ---       #580
      010018DDH   LINE      ---      ---       #581
      010018E0H   LINE      ---      ---       #582
      010018E0H   LINE      ---      ---       #584
      010018E4H   LINE      ---      ---       #585
      010018E4H   LINE      ---      ---       #586
      010018EAH   LINE      ---      ---       #587
      010018EAH   LINE      ---      ---       #588
      010018EEH   LINE      ---      ---       #589
      010018EEH   LINE      ---      ---       #590
      010018F3H   LINE      ---      ---       #591
      010018F5H   LINE      ---      ---       #592
      010018F5H   LINE      ---      ---       #594
      01001903H   LINE      ---      ---       #595
      01001903H   LINE      ---      ---       #596
      0100190AH   LINE      ---      ---       #598
      0100190DH   LINE      ---      ---       #599
      0100191CH   LINE      ---      ---       #600
      0100191EH   LINE      ---      ---       #602
      0100191EH   LINE      ---      ---       #603
      01001926H   LINE      ---      ---       #604
      01001937H   LINE      ---      ---       #606
      0100193EH   LINE      ---      ---       #607
      0100193EH   LINE      ---      ---       #609
      01001940H   LINE      ---      ---       #610
      02004C9EH   SYMBOL    XDATA    VOID      B_Weight_Downing_Lock
      ---         BLOCKEND  CODE     ---       LVL=1
      ---         BLOCKEND  CODE     ---       LVL=0

      010017A6H   BLOCK     CODE     ---       LVL=0
      010017A6H   LINE      ---      ---       #653
      010017A6H   LINE      ---      ---       #654
      010017A6H   BLOCK     CODE     NEAR LAB  LVL=1
      010017A6H   LINE      ---      ---       #657
      010017ADH   LINE      ---      ---       #658
      010017ADH   LINE      ---      ---       #659
      010017B3H   LINE      ---      ---       #660
      010017B9H   LINE      ---      ---       #661
      010017BBH   LINE      ---      ---       #663
      010017C0H   LINE      ---      ---       #665
      010017C4H   LINE      ---      ---       #666
      010017CAH   LINE      ---      ---       #668
      010017CCH   LINE      ---      ---       #669
      02004C9FH   SYMBOL    XDATA    VOID      B_Weight_LowBat
      ---         BLOCKEND  CODE     ---       LVL=1
      ---         BLOCKEND  CODE     ---       LVL=0

      0100377FH   BLOCK     CODE     ---       LVL=0
      0100377FH   LINE      ---      ---       #672
      0100377FH   LINE      ---      ---       #673
      0100377FH   BLOCK     CODE     NEAR LAB  LVL=1
      0100377FH   LINE      ---      ---       #677
      01003783H   LINE      ---      ---       #678
      01003783H   LINE      ---      ---       #679
      01003788H   LINE      ---      ---       #680
      0100378AH   LINE      ---      ---       #681
      0100378CH   LINE      ---      ---       #682
      0100378CH   LINE      ---      ---       #684
      0100379BH   LINE      ---      ---       #685
      010037A1H   LINE      ---      ---       #686
      010037AAH   LINE      ---      ---       #687
      010037AAH   LINE      ---      ---       #688
      010037ADH   LINE      ---      ---       #689
      010037B0H   LINE      ---      ---       #690
      010037B6H   LINE      ---      ---       #691
      010037B8H   LINE      ---      ---       #693
      010037BDH   LINE      ---      ---       #695
      010037C1H   LINE      ---      ---       #696
      010037C7H   LINE      ---      ---       #698
      010037C9H   LINE      ---      ---       #699
      02004CA0H   SYMBOL    XDATA    VOID      R_Weight_OverLoadTimes
      02004CA1H   SYMBOL    XDATA    VOID      B_Weight_OverLoad
      ---         BLOCKEND  CODE     ---       LVL=1
      ---         BLOCKEND  CODE     ---       LVL=0

      01001941H   BLOCK     CODE     ---       LVL=0
      01001941H   LINE      ---      ---       #703
      01001941H   LINE      ---      ---       #704
      01001941H   BLOCK     CODE     NEAR LAB  LVL=1
      01001941H   LINE      ---      ---       #709
      01001945H   LINE      ---      ---       #710
      01001945H   LINE      ---      ---       #711
      0100194AH   LINE      ---      ---       #712
      0100194CH   LINE      ---      ---       #713
      0100194CH   LINE      ---      ---       #715
      01001950H   LINE      ---      ---       #716
      01001956H   LINE      ---      ---       #719
      0100196CH   LINE      ---      ---       #720
      0100197AH   LINE      ---      ---       #722
      0100198FH   LINE      ---      ---       #724
      01001998H   LINE      ---      ---       #725
      01001998H   LINE      ---      ---       #726
      010019A1H   LINE      ---      ---       #727
      010019A4H   LINE      ---      ---       #728
      010019A6H   LINE      ---      ---       #730
      010019ABH   LINE      ---      ---       #732
      010019BAH   LINE      ---      ---       #734
      010019BCH   LINE      ---      ---       #735
      00000004H   SYMBOL    DATA     VOID      weight_temp
      02004CA2H   SYMBOL    XDATA    VOID      R_Weight_kg_old
      02004CA4H   SYMBOL    XDATA    VOID      R_Weight_SameTimes
      ---         BLOCKEND  CODE     ---       LVL=1
      ---         BLOCKEND  CODE     ---       LVL=0

      010017F6H   BLOCK     CODE     ---       LVL=0
      010017F6H   LINE      ---      ---       #740
      010017F6H   LINE      ---      ---       #741
      010017F6H   BLOCK     CODE     NEAR LAB  LVL=1
      010017F6H   LINE      ---      ---       #747
      010017FAH   LINE      ---      ---       #748
      010017FAH   LINE      ---      ---       #749
      010017FFH   LINE      ---      ---       #750
      01001801H   LINE      ---      ---       #751
      01001801H   LINE      ---      ---       #753
      01001805H   LINE      ---      ---       #754
      0100180BH   LINE      ---      ---       #756
      01001814H   LINE      ---      ---       #757
      01001814H   LINE      ---      ---       #759
      01001818H   LINE      ---      ---       #760
      01001829H   LINE      ---      ---       #761
      01001829H   LINE      ---      ---       #762
      01001835H   LINE      ---      ---       #763
      01001835H   LINE      ---      ---       #764
      0100183BH   LINE      ---      ---       #766
      01001851H   LINE      ---      ---       #767
      0100185FH   LINE      ---      ---       #769
      0100187AH   LINE      ---      ---       #772
      01001889H   LINE      ---      ---       #773
      01001889H   LINE      ---      ---       #774
      01001897H   LINE      ---      ---       #775
      010018A6H   LINE      ---      ---       #776
      010018A6H   LINE      ---      ---       #778
      010018B6H   LINE      ---      ---       #779
      010018BEH   LINE      ---      ---       #781
      010018C2H   LINE      ---      ---       #782
      010018C7H   LINE      ---      ---       #783
      010018CBH   LINE      ---      ---       #784
      010018D0H   LINE      ---      ---       #785
      010018D0H   LINE      ---      ---       #786
      010018D0H   LINE      ---      ---       #787
      010018D0H   LINE      ---      ---       #788
      010018D2H   LINE      ---      ---       #789
      02004E52H   SYMBOL    XDATA    VOID      R_Weight_Temp
      02004CA5H   SYMBOL    XDATA    VOID      B_Weight_HeavySteady
      ---         BLOCKEND  CODE     ---       LVL=1
      ---         BLOCKEND  CODE     ---       LVL=0

      010019BDH   BLOCK     CODE     ---       LVL=0
      010019BDH   LINE      ---      ---       #798
      010019BDH   LINE      ---      ---       #799
      010019BDH   BLOCK     CODE     NEAR LAB  LVL=1
      010019BDH   LINE      ---      ---       #806
      010019C0H   LINE      ---      ---       #807
      010019C0H   LINE      ---      ---       #808
      010019C5H   LINE      ---      ---       #810
      010019C5H   LINE      ---      ---       #813
      010019CDH   LINE      ---      ---       #814
      010019CDH   LINE      ---      ---       #816
      010019D2H   LINE      ---      ---       #818
      010019DAH   LINE      ---      ---       #819
      010019DFH   LINE      ---      ---       #820
      010019E0H   LINE      ---      ---       #822
      010019E0H   LINE      ---      ---       #831
      010019E6H   LINE      ---      ---       #832
      010019E6H   LINE      ---      ---       #834
      010019EAH   LINE      ---      ---       #835
      010019EAH   LINE      ---      ---       #836
      010019ECH   LINE      ---      ---       #837
      010019F0H   LINE      ---      ---       #838
      010019F0H   LINE      ---      ---       #840
      010019F7H   LINE      ---      ---       #841
      010019F7H   LINE      ---      ---       #844
      010019FBH   LINE      ---      ---       #846
      01001A03H   LINE      ---      ---       #847
      01001A0BH   LINE      ---      ---       #848
      01001A13H   LINE      ---      ---       #849
      01001A1BH   LINE      ---      ---       #850
      01001A30H   LINE      ---      ---       #851
      01001A39H   LINE      ---      ---       #852
      01001A3FH   LINE      ---      ---       #854
      01001A43H   LINE      ---      ---       #858
      01001A43H   LINE      ---      ---       #860
      01001A43H   LINE      ---      ---       #862
      01001A43H   LINE      ---      ---       #863
      01001A48H   LINE      ---      ---       #864
      01001A51H   LINE      ---      ---       #865
      01001A54H   LINE      ---      ---       #866
      01001A57H   LINE      ---      ---       #868
      01001A66H   LINE      ---      ---       #869
      01001A66H   LINE      ---      ---       #870
      01001A66H   LINE      ---      ---       #889
      00000006H   SYMBOL    DATA     VOID      R_AD_BUF
      02004CA6H   SYMBOL    XDATA    VOID      B_Debug_Send
      02004CA7H   SYMBOL    XDATA    VOID      ReadUTC
      02004E12H   SYMBOL    XDATA    VOID      SendData
      ---         BLOCKEND  CODE     ---       LVL=1
      ---         BLOCKEND  CODE     ---       LVL=0

      010037CAH   BLOCK     CODE     ---       LVL=0
      010037CAH   LINE      ---      ---       #893
      010037CAH   LINE      ---      ---       #894
      010037CAH   BLOCK     CODE     NEAR LAB  LVL=1
      010037CAH   LINE      ---      ---       #897
      010037E0H   LINE      ---      ---       #898
      010037E0H   LINE      ---      ---       #899
      010037EDH   LINE      ---      ---       #900
      010037F5H   LINE      ---      ---       #901
      010037F5H   LINE      ---      ---       #902
      010037FBH   LINE      ---      ---       #903
      01003800H   LINE      ---      ---       #904
      01003800H   LINE      ---      ---       #905
      01003800H   LINE      ---      ---       #907
      01003800H   LINE      ---      ---       #908
      0100381CH   LINE      ---      ---       #909
      01003824H   LINE      ---      ---       #910
      01003824H   LINE      ---      ---       #912
      0100382AH   LINE      ---      ---       #913
      0100382EH   LINE      ---      ---       #914
      01003833H   LINE      ---      ---       #916
      01003833H   LINE      ---      ---       #917
      01003833H   LINE      ---      ---       #919
      02004E54H   SYMBOL    XDATA    VOID      weight_temp
      ---         BLOCKEND  CODE     ---       LVL=1
      ---         BLOCKEND  CODE     ---       LVL=0

      01003834H   BLOCK     CODE     ---       LVL=0
      01003834H   LINE      ---      ---       #925
      01003834H   LINE      ---      ---       #926
      01003834H   BLOCK     CODE     NEAR LAB  LVL=1
      01003834H   LINE      ---      ---       #930
      01003838H   LINE      ---      ---       #931
      01003838H   LINE      ---      ---       #932
      0100383DH   LINE      ---      ---       #933
      0100383FH   LINE      ---      ---       #934
      0100383FH   LINE      ---      ---       #936
      01003843H   LINE      ---      ---       #937
      01003843H   LINE      ---      ---       #938
      0100384CH   LINE      ---      ---       #939
      0100384FH   LINE      ---      ---       #940
      0100384FH   LINE      ---      ---       #942
      01003855H   LINE      ---      ---       #943
      01003855H   LINE      ---      ---       #944
      0100385EH   LINE      ---      ---       #945
      0100385EH   LINE      ---      ---       #946
      01003862H   LINE      ---      ---       #947
      01003869H   LINE      ---      ---       #948
      01003869H   LINE      ---      ---       #949
      01003869H   LINE      ---      ---       #950
      02004CA8H   SYMBOL    XDATA    VOID      timecount
      02004CA9H   SYMBOL    XDATA    VOID      B_Timeout
      ---         BLOCKEND  CODE     ---       LVL=1
      ---         BLOCKEND  CODE     ---       LVL=0

      01000A38H   BLOCK     CODE     ---       LVL=0
      01000A38H   LINE      ---      ---       #966
      01000A3AH   LINE      ---      ---       #967
      01000A3AH   BLOCK     CODE     NEAR LAB  LVL=1
      01000A3AH   LINE      ---      ---       #979
      01000A3EH   LINE      ---      ---       #980
      01000A3EH   LINE      ---      ---       #981
      01000A43H   LINE      ---      ---       #982
      01000A46H   LINE      ---      ---       #983
      01000A46H   LINE      ---      ---       #984
      01000A4DH   LINE      ---      ---       #985
      01000A4DH   LINE      ---      ---       #1014
      01000A5AH   LINE      ---      ---       #1015
      01000A6CH   LINE      ---      ---       #1016
      01000A79H   LINE      ---      ---       #1017
      01000A8BH   LINE      ---      ---       #1018
      01000A98H   LINE      ---      ---       #1019
      01000AAAH   LINE      ---      ---       #1023
      01000AC3H   LINE      ---      ---       #1024
      01000ADCH   LINE      ---      ---       #1025
      01000AF5H   LINE      ---      ---       #1026
      01000AF5H   LINE      ---      ---       #1027
      01000AFFH   LINE      ---      ---       #1028
      01000B07H   LINE      ---      ---       #1029
      01000B0FH   LINE      ---      ---       #1030
      01000B0FH   LINE      ---      ---       #1033
      01000B26H   LINE      ---      ---       #1034
      01000B2AH   LINE      ---      ---       #1035
      01000B2AH   LINE      ---      ---       #1036
      01000B2EH   LINE      ---      ---       #1037
      01000B2EH   LINE      ---      ---       #1038
      01000B45H   LINE      ---      ---       #1039
      01000B49H   LINE      ---      ---       #1040
      01000B49H   LINE      ---      ---       #1042
      01000B4DH   LINE      ---      ---       #1043
      01000B56H   LINE      ---      ---       #1044
      01000B5AH   LINE      ---      ---       #1045
      01000B63H   LINE      ---      ---       #1046
      01000B67H   LINE      ---      ---       #1047
      01000B70H   LINE      ---      ---       #1048
      01000B74H   LINE      ---      ---       #1049
      01000B7DH   LINE      ---      ---       #1051
      01000B8FH   LINE      ---      ---       #1052
      01000B9EH   LINE      ---      ---       #1053
      01000BABH   LINE      ---      ---       #1059
      01000BB1H   LINE      ---      ---       #1060
      01000BB1H   LINE      ---      ---       #1062
      01000BC1H   LINE      ---      ---       #1063
      01000BD0H   LINE      ---      ---       #1064
      01000BD0H   LINE      ---      ---       #1065
      01000BD5H   LINE      ---      ---       #1066
      01000BE2H   LINE      ---      ---       #1067
      01000BE6H   LINE      ---      ---       #1068
      01000BECH   LINE      ---      ---       #1069
      01000BECH   LINE      ---      ---       #1070
      01000BF9H   LINE      ---      ---       #1071
      01000BF9H   LINE      ---      ---       #1073
      01000C00H   LINE      ---      ---       #1074
      01000C00H   LINE      ---      ---       #1075
      01000C0AH   LINE      ---      ---       #1076
      01000C10H   LINE      ---      ---       #1077
      01000C18H   LINE      ---      ---       #1078
      01000C18H   LINE      ---      ---       #1080
      01000C22H   LINE      ---      ---       #1081
      01000C22H   LINE      ---      ---       #1082
      01000C30H   LINE      ---      ---       #1083
      01000C44H   LINE      ---      ---       #1085
      01000C66H   LINE      ---      ---       #1086
      01000C66H   LINE      ---      ---       #1087
      01000C75H   LINE      ---      ---       #1088
      01000C75H   LINE      ---      ---       #1089
      01000C82H   LINE      ---      ---       #1090
      01000C8FH   LINE      ---      ---       #1091
      01000C8FH   LINE      ---      ---       #1092
      01000C96H   LINE      ---      ---       #1093
      01000C98H   LINE      ---      ---       #1095
      01000C98H   LINE      ---      ---       #1096
      01000CB5H   LINE      ---      ---       #1097
      01000CB5H   LINE      ---      ---       #1098
      01000CB9H   LINE      ---      ---       #1099
      01000CC6H   LINE      ---      ---       #1100
      01000CCCH   LINE      ---      ---       #1101
      01000CCCH   LINE      ---      ---       #1102
      01000CCCH   LINE      ---      ---       #1103
      01000CD9H   LINE      ---      ---       #1105
      01000CD9H   LINE      ---      ---       #1107
      01000CE0H   LINE      ---      ---       #1108
      01000CE0H   LINE      ---      ---       #1109
      01000CEAH   LINE      ---      ---       #1110
      01000CF0H   LINE      ---      ---       #1111
      01000CF8H   LINE      ---      ---       #1112
      01000CF8H   LINE      ---      ---       #1114
      01000D02H   LINE      ---      ---       #1115
      01000D02H   LINE      ---      ---       #1116
      01000D10H   LINE      ---      ---       #1117
      01000D24H   LINE      ---      ---       #1119
      01000D47H   LINE      ---      ---       #1120
      01000D47H   LINE      ---      ---       #1121
      01000D4EH   LINE      ---      ---       #1122
      01000D50H   LINE      ---      ---       #1124
      01000D50H   LINE      ---      ---       #1125
      01000D64H   LINE      ---      ---       #1127
      01000D7AH   LINE      ---      ---       #1128
      01000D7AH   LINE      ---      ---       #1129
      01000D87H   LINE      ---      ---       #1130
      01000D8BH   LINE      ---      ---       #1131
      01000D91H   LINE      ---      ---       #1132
      01000D91H   LINE      ---      ---       #1133
      01000D91H   LINE      ---      ---       #1134
      01000D9EH   LINE      ---      ---       #1135
      01000D9EH   LINE      ---      ---       #1137
      01000DA5H   LINE      ---      ---       #1138
      01000DA5H   LINE      ---      ---       #1139
      01000DAFH   LINE      ---      ---       #1140
      01000DB5H   LINE      ---      ---       #1141
      01000DBDH   LINE      ---      ---       #1142
      01000DBDH   LINE      ---      ---       #1144
      01000DC7H   LINE      ---      ---       #1145
      01000DC7H   LINE      ---      ---       #1146
      01000DD5H   LINE      ---      ---       #1147
      01000DE9H   LINE      ---      ---       #1149
      01000E0CH   LINE      ---      ---       #1150
      01000E0CH   LINE      ---      ---       #1151
      01000E13H   LINE      ---      ---       #1152
      01000E15H   LINE      ---      ---       #1154
      01000E15H   LINE      ---      ---       #1155
      01000E26H   LINE      ---      ---       #1157
      01000E34H   LINE      ---      ---       #1158
      01000E34H   LINE      ---      ---       #1159
      01000E39H   LINE      ---      ---       #1161
      01000E3BH   LINE      ---      ---       #1163
      01000E3BH   LINE      ---      ---       #1164
      01000E4FH   LINE      ---      ---       #1166
      01000E65H   LINE      ---      ---       #1167
      01000E65H   LINE      ---      ---       #1168
      01000E69H   LINE      ---      ---       #1169
      01000E6FH   LINE      ---      ---       #1170
      01000E6FH   LINE      ---      ---       #1171
      01000E6FH   LINE      ---      ---       #1172
      01000E6FH   LINE      ---      ---       #1173
      01000E7CH   LINE      ---      ---       #1174
      01000E7CH   LINE      ---      ---       #1176
      01000E83H   LINE      ---      ---       #1177
      01000E83H   LINE      ---      ---       #1178
      01000E8DH   LINE      ---      ---       #1179
      01000E93H   LINE      ---      ---       #1180
      01000E9BH   LINE      ---      ---       #1181
      01000E9BH   LINE      ---      ---       #1183
      01000EA3H   LINE      ---      ---       #1184
      01000EA3H   LINE      ---      ---       #1186
      01000EB1H   LINE      ---      ---       #1187
      01000EBEH   LINE      ---      ---       #1188
      01000EC4H   LINE      ---      ---       #1189
      01000EDDH   LINE      ---      ---       #1197
      01000EE2H   LINE      ---      ---       #1198
      01000EECH   LINE      ---      ---       #1199
      01000EF9H   LINE      ---      ---       #1200
      01000EFCH   LINE      ---      ---       #1201
      01000F09H   LINE      ---      ---       #1202
      01000F0CH   LINE      ---      ---       #1203
      01000F11H   LINE      ---      ---       #1207
      01000F11H   LINE      ---      ---       #1208
      01000F14H   LINE      ---      ---       #1210
      02004CAAH   SYMBOL    XDATA    VOID      R_AD_CaliDot1
      02004CACH   SYMBOL    XDATA    VOID      R_AD_CaliDot2
      02004CAEH   SYMBOL    XDATA    VOID      R_AD_CaliDot3
      02004CB0H   SYMBOL    XDATA    VOID      R_CaliState
      02004CB1H   SYMBOL    XDATA    VOID      R_OpenWeight_Ad
      02004DF4H   SYMBOL    XDATA    VOID      R_AdFilTimes
      02004DF6H   SYMBOL    XDATA    VOID      weight_temp
      02004DF8H   SYMBOL    XDATA    VOID      R_AD_BUF
      02004DFAH   SYMBOL    XDATA    VOID      R_AD_PowerOnZero
      ---         BLOCKEND  CODE     ---       LVL=1
      ---         BLOCKEND  CODE     ---       LVL=0

      01001B5BH   BLOCK     CODE     ---       LVL=0
      01001B5BH   LINE      ---      ---       #1222
      01001B5BH   LINE      ---      ---       #1223
      01001B5BH   BLOCK     CODE     NEAR LAB  LVL=1
      01001B5BH   LINE      ---      ---       #1227
      01001B5FH   LINE      ---      ---       #1228
      01001B5FH   LINE      ---      ---       #1229
      01001B64H   LINE      ---      ---       #1230
      01001B69H   LINE      ---      ---       #1232
      01001B69H   LINE      ---      ---       #1234
      01001B6DH   LINE      ---      ---       #1235
      01001B6DH   LINE      ---      ---       #1236
      01001B73H   LINE      ---      ---       #1237
      01001B79H   LINE      ---      ---       #1239
      01001B79H   LINE      ---      ---       #1241
      01001B83H   LINE      ---      ---       #1242
      01001B83H   LINE      ---      ---       #1243
      01001B83H   LINE      ---      ---       #1244
      01001B89H   LINE      ---      ---       #1245
      01001B89H   LINE      ---      ---       #1246
      01001B8BH   LINE      ---      ---       #1248
      01001B8FH   LINE      ---      ---       #1250
      01001B8FH   LINE      ---      ---       #1251
      01001B96H   LINE      ---      ---       #1252
      01001B96H   LINE      ---      ---       #1253
      01001B9AH   LINE      ---      ---       #1254
      01001B9DH   LINE      ---      ---       #1256
      01001BA1H   LINE      ---      ---       #1257
      01001BA5H   LINE      ---      ---       #1258
      01001BADH   LINE      ---      ---       #1266
      01001BB3H   LINE      ---      ---       #1268
      01001BB3H   LINE      ---      ---       #1269
      01001BB4H   LINE      ---      ---       #1270
      01001BB4H   LINE      ---      ---       #1271
      01001BBAH   LINE      ---      ---       #1272
      01001BBAH   LINE      ---      ---       #1273
      01001BBCH   LINE      ---      ---       #1274
      01001BC0H   LINE      ---      ---       #1275
      01001BC0H   LINE      ---      ---       #1276
      01001BC5H   LINE      ---      ---       #1277
      01001BC5H   LINE      ---      ---       #1278
      01001BCAH   LINE      ---      ---       #1279
      01001BCCH   LINE      ---      ---       #1280
      01001BD2H   LINE      ---      ---       #1290
      01001BD6H   LINE      ---      ---       #1291
      01001BDBH   LINE      ---      ---       #1292
      01001BE0H   LINE      ---      ---       #1294
      01001BE5H   LINE      ---      ---       #1296
      01001BE9H   LINE      ---      ---       #1298
      01001BE9H   LINE      ---      ---       #1299
      01001BE9H   LINE      ---      ---       #1300
      01001BE9H   LINE      ---      ---       #1301
      01001BEEH   LINE      ---      ---       #1302
      01001BEEH   LINE      ---      ---       #1303
      01001BEEH   LINE      ---      ---       #1307
      02004CB3H   SYMBOL    XDATA    VOID      comm_doing
      02004CB4H   SYMBOL    XDATA    VOID      StandbyState
      ---         BLOCKEND  CODE     ---       LVL=1
      ---         BLOCKEND  CODE     ---       LVL=0

      01001A72H   BLOCK     CODE     ---       LVL=0
      01001A72H   LINE      ---      ---       #1321
      01001A72H   LINE      ---      ---       #1322
      01001A72H   BLOCK     CODE     NEAR LAB  LVL=1
      01001A72H   LINE      ---      ---       #1327
      01001A75H   LINE      ---      ---       #1328
      01001A75H   LINE      ---      ---       #1329
      01001A7AH   LINE      ---      ---       #1330
      01001A7FH   LINE      ---      ---       #1332
      01001A7FH   LINE      ---      ---       #1335
      01001A85H   LINE      ---      ---       #1336
      01001A85H   LINE      ---      ---       #1337
      01001A8BH   LINE      ---      ---       #1338
      01001A8BH   LINE      ---      ---       #1339
      01001A8DH   LINE      ---      ---       #1340
      01001A91H   LINE      ---      ---       #1341
      01001A93H   LINE      ---      ---       #1343
      01001A93H   LINE      ---      ---       #1344
      01001A98H   LINE      ---      ---       #1345
      01001A9BH   LINE      ---      ---       #1346
      01001A9BH   LINE      ---      ---       #1347
      01001A9BH   LINE      ---      ---       #1349
      01001AA2H   LINE      ---      ---       #1350
      01001AA2H   LINE      ---      ---       #1351
      01001AA8H   LINE      ---      ---       #1352
      01001AA8H   LINE      ---      ---       #1353
      01001AAAH   LINE      ---      ---       #1354
      01001AAEH   LINE      ---      ---       #1356
      01001AAEH   LINE      ---      ---       #1357
      01001AB3H   LINE      ---      ---       #1358
      01001AB3H   LINE      ---      ---       #1359
      01001AB8H   LINE      ---      ---       #1360
      01001ABCH   LINE      ---      ---       #1361
      01001ABCH   LINE      ---      ---       #1362
      01001ABCH   LINE      ---      ---       #1364
      01001AC3H   LINE      ---      ---       #1365
      01001AC3H   LINE      ---      ---       #1366
      01001AC6H   LINE      ---      ---       #1367
      01001AC6H   LINE      ---      ---       #1369
      01001ACDH   LINE      ---      ---       #1370
      01001ACDH   LINE      ---      ---       #1371
      01001AD3H   LINE      ---      ---       #1372
      01001AD3H   LINE      ---      ---       #1373
      01001AD5H   LINE      ---      ---       #1374
      01001AD9H   LINE      ---      ---       #1375
      01001AD9H   LINE      ---      ---       #1376
      01001ADEH   LINE      ---      ---       #1377
      01001ADEH   LINE      ---      ---       #1378
      01001AE3H   LINE      ---      ---       #1379
      01001AE7H   LINE      ---      ---       #1380
      01001AE7H   LINE      ---      ---       #1381
      01001AE7H   LINE      ---      ---       #1383
      01001AEEH   LINE      ---      ---       #1384
      01001AEEH   LINE      ---      ---       #1385
      01001AF4H   LINE      ---      ---       #1386
      01001AF4H   LINE      ---      ---       #1387
      01001AF6H   LINE      ---      ---       #1388
      01001AFAH   LINE      ---      ---       #1389
      01001AFAH   LINE      ---      ---       #1390
      01001AFFH   LINE      ---      ---       #1391
      01001AFFH   LINE      ---      ---       #1392
      01001B04H   LINE      ---      ---       #1393
      01001B08H   LINE      ---      ---       #1394
      01001B08H   LINE      ---      ---       #1395
      01001B08H   LINE      ---      ---       #1397
      01001B10H   LINE      ---      ---       #1398
      01001B10H   LINE      ---      ---       #1399
      01001B16H   LINE      ---      ---       #1400
      01001B16H   LINE      ---      ---       #1401
      01001B18H   LINE      ---      ---       #1402
      01001B21H   LINE      ---      ---       #1403
      01001B25H   LINE      ---      ---       #1404
      01001B25H   LINE      ---      ---       #1405
      01001B2AH   LINE      ---      ---       #1406
      01001B2AH   LINE      ---      ---       #1407
      01001B2FH   LINE      ---      ---       #1408
      01001B33H   LINE      ---      ---       #1409
      01001B38H   LINE      ---      ---       #1410
      01001B38H   LINE      ---      ---       #1411
      01001B38H   LINE      ---      ---       #1413
      01001B3FH   LINE      ---      ---       #1414
      01001B3FH   LINE      ---      ---       #1415
      01001B4AH   LINE      ---      ---       #1416
      01001B4AH   LINE      ---      ---       #1417
      01001B50H   LINE      ---      ---       #1418
      01001B54H   LINE      ---      ---       #1419
      01001B54H   LINE      ---      ---       #1420
      01001B54H   LINE      ---      ---       #1422
      02004CB5H   SYMBOL    XDATA    VOID      comm_doing
      02004CB6H   SYMBOL    XDATA    VOID      PowerOnState
      ---         BLOCKEND  CODE     ---       LVL=1
      ---         BLOCKEND  CODE     ---       LVL=0

      01000F15H   BLOCK     CODE     ---       LVL=0
      01000F15H   LINE      ---      ---       #1427
      01000F15H   LINE      ---      ---       #1428
      01000F15H   BLOCK     CODE     NEAR LAB  LVL=1
      01000F15H   LINE      ---      ---       #1432
      01000F19H   LINE      ---      ---       #1433
      01000F19H   LINE      ---      ---       #1434
      01000F1EH   LINE      ---      ---       #1435
      01000F20H   LINE      ---      ---       #1436
      01000F20H   LINE      ---      ---       #1438
      01000F24H   LINE      ---      ---       #1439
      01000F2AH   LINE      ---      ---       #1441
      01000F2DH   LINE      ---      ---       #1442
      01000F2DH   LINE      ---      ---       #1443
      01000F36H   LINE      ---      ---       #1444
      01000F39H   LINE      ---      ---       #1445
      01000F39H   LINE      ---      ---       #1448
      01000F42H   LINE      ---      ---       #1449
      01000F46H   LINE      ---      ---       #1451
      01000F4AH   LINE      ---      ---       #1452
      01000F50H   LINE      ---      ---       #1454
      01000F52H   LINE      ---      ---       #1456
      02004CB7H   SYMBOL    XDATA    VOID      timecount
      02004CB8H   SYMBOL    XDATA    VOID      B_Timeout
      ---         BLOCKEND  CODE     ---       LVL=1
      ---         BLOCKEND  CODE     ---       LVL=0

      01001685H   BLOCK     CODE     ---       LVL=0
      01001685H   LINE      ---      ---       #1474
      01001685H   LINE      ---      ---       #1475
      01001685H   BLOCK     CODE     NEAR LAB  LVL=1
      01001685H   LINE      ---      ---       #1479
      01001689H   LINE      ---      ---       #1480
      01001689H   LINE      ---      ---       #1481
      01001690H   LINE      ---      ---       #1483
      01001690H   LINE      ---      ---       #1485
      01001693H   LINE      ---      ---       #1486
      01001693H   LINE      ---      ---       #1487
      01001696H   LINE      ---      ---       #1488
      0100169BH   LINE      ---      ---       #1489
      0100169FH   LINE      ---      ---       #1490
      010016A4H   LINE      ---      ---       #1491
      010016A8H   LINE      ---      ---       #1492
      010016ADH   LINE      ---      ---       #1493
      010016B1H   LINE      ---      ---       #1494
      010016B6H   LINE      ---      ---       #1495
      010016BAH   LINE      ---      ---       #1496
      010016BFH   LINE      ---      ---       #1497
      010016C6H   LINE      ---      ---       #1498
      010016C6H   LINE      ---      ---       #1499
      010016CAH   LINE      ---      ---       #1500
      010016CCH   LINE      ---      ---       #1501
      010016CEH   LINE      ---      ---       #1502
      010016D0H   LINE      ---      ---       #1503
      010016D2H   LINE      ---      ---       #1504
      010016D3H   LINE      ---      ---       #1506
      010016D3H   LINE      ---      ---       #1508
      010016DDH   LINE      ---      ---       #1509
      010016DDH   LINE      ---      ---       #1510
      010016DEH   LINE      ---      ---       #1514
      010016E5H   LINE      ---      ---       #1515
      010016E5H   LINE      ---      ---       #1516
      010016EBH   LINE      ---      ---       #1518
      010016F3H   LINE      ---      ---       #1519
      010016F3H   LINE      ---      ---       #1520
      010016F9H   LINE      ---      ---       #1521
      010016FEH   LINE      ---      ---       #1522
      01001703H   LINE      ---      ---       #1523
      01001704H   LINE      ---      ---       #1525
      01001704H   LINE      ---      ---       #1528
      0100170CH   LINE      ---      ---       #1529
      0100170CH   LINE      ---      ---       #1530
      01001712H   LINE      ---      ---       #1532
      0100171AH   LINE      ---      ---       #1533
      0100171AH   LINE      ---      ---       #1534
      01001720H   LINE      ---      ---       #1535
      01001725H   LINE      ---      ---       #1536
      0100172AH   LINE      ---      ---       #1537
      0100172BH   LINE      ---      ---       #1540
      0100172BH   LINE      ---      ---       #1544
      01001733H   LINE      ---      ---       #1545
      01001733H   LINE      ---      ---       #1547
      0100173FH   LINE      ---      ---       #1548
      0100173FH   LINE      ---      ---       #1549
      01001743H   LINE      ---      ---       #1550
      01001749H   LINE      ---      ---       #1551
      0100174BH   LINE      ---      ---       #1553
      0100174BH   LINE      ---      ---       #1554
      01001750H   LINE      ---      ---       #1555
      01001756H   LINE      ---      ---       #1556
      01001756H   LINE      ---      ---       #1558
      01001768H   LINE      ---      ---       #1559
      01001768H   LINE      ---      ---       #1564
      0100176EH   LINE      ---      ---       #1565
      01001773H   LINE      ---      ---       #1566
      01001778H   LINE      ---      ---       #1567
      0100177CH   LINE      ---      ---       #1568
      0100177DH   LINE      ---      ---       #1571
      0100177DH   LINE      ---      ---       #1575
      01001784H   LINE      ---      ---       #1576
      01001784H   LINE      ---      ---       #1577
      01001789H   LINE      ---      ---       #1578
      0100178FH   LINE      ---      ---       #1580
      01001795H   LINE      ---      ---       #1581
      01001795H   LINE      ---      ---       #1583
      0100179BH   LINE      ---      ---       #1584
      010017A0H   LINE      ---      ---       #1585
      010017A5H   LINE      ---      ---       #1586
      010017A5H   LINE      ---      ---       #1588
      010017A5H   LINE      ---      ---       #1591
      010017A5H   LINE      ---      ---       #1593
      02004CB9H   SYMBOL    XDATA    VOID      R_TimeOut
      02004CBEH   SYMBOL    XDATA    VOID      B_TimeBase_1s
      ---         BLOCKEND  CODE     ---       LVL=1
      ---         BLOCKEND  CODE     ---       LVL=0

      ---         MODULE    ---      ---       CS_COMMTO1186
      02004D67H   PUBLIC    XDATA    BYTE      uartTimeoutCnt
      02004D57H   PUBLIC    XDATA    ---       uartTxBuf
      02004D54H   PUBLIC    XDATA    ---       R_Weight_Com_Coo
      02004D44H   PUBLIC    XDATA    ---       uartRcvBuf
      01002AD1H   PUBLIC    CODE     ---       _CS_CommTo1186_SendCmd
      01002DD5H   PUBLIC    CODE     ---       _CS_CommTo1186_Xor
      01000701H   PUBLIC    CODE     ---       CS_1186Com_Reset_Proc
      0100393FH   PUBLIC    CODE     ---       CS_1186Com_ReadAdZero_Proc
      0100071BH   PUBLIC    CODE     ---       CS_1186Com_SetOpenWeight_Proc
      0100066DH   PUBLIC    CODE     ---       CS_1186Com_SetSleepMode_Proc
      010005E2H   PUBLIC    CODE     ---       CS_1186Com_ReadTime_Proc
      0100052DH   PUBLIC    CODE     ---       CS_1186Com_SetLcd_Proc
      0100386AH   PUBLIC    CODE     ---       CS_1186Com_ReadAdc_Proc
      010026FEH   PUBLIC    CODE     ---       CS_1186Com_ReadMacAdress_Proc
      010004E5H   PUBLIC    CODE     ---       CS_Scale_1186Com
      01001B55H   PUBLIC    CODE     ---       CS_If1186ComSucess
      01001A67H   PUBLIC    CODE     ---       _CS_Scale_1186ComSend

      01001A67H   BLOCK     CODE     ---       LVL=0
      01001A67H   LINE      ---      ---       #18
      01001A67H   LINE      ---      ---       #19
      01001A67H   LINE      ---      ---       #20
      01001A6CH   LINE      ---      ---       #21
      01001A71H   LINE      ---      ---       #22
      ---         BLOCKEND  ---      ---       LVL=0

      01001B55H   BLOCK     CODE     ---       LVL=0
      01001B55H   LINE      ---      ---       #25
      01001B55H   LINE      ---      ---       #26
      01001B55H   LINE      ---      ---       #27
      01001B5AH   LINE      ---      ---       #28
      ---         BLOCKEND  ---      ---       LVL=0

      010004E5H   BLOCK     CODE     ---       LVL=0
      010004E5H   LINE      ---      ---       #31
      010004E5H   LINE      ---      ---       #32
      010004E5H   LINE      ---      ---       #34
      010004EEH   LINE      ---      ---       #35
      010004EEH   LINE      ---      ---       #37
      010004FFH   LINE      ---      ---       #38
      010004FFH   LINE      ---      ---       #39
      010004FFH   LINE      ---      ---       #40
      01000501H   LINE      ---      ---       #41
      01000504H   LINE      ---      ---       #42
      01000506H   LINE      ---      ---       #43
      01000508H   LINE      ---      ---       #44
      0100050AH   LINE      ---      ---       #45
      0100050AH   LINE      ---      ---       #46
      0100050AH   LINE      ---      ---       #47
      0100050CH   LINE      ---      ---       #48
      0100050FH   LINE      ---      ---       #49
      01000511H   LINE      ---      ---       #50
      01000511H   LINE      ---      ---       #51
      01000511H   LINE      ---      ---       #52
      01000511H   LINE      ---      ---       #53
      01000511H   LINE      ---      ---       #54
      01000513H   LINE      ---      ---       #55
      01000516H   LINE      ---      ---       #56
      01000518H   LINE      ---      ---       #69
      01000518H   LINE      ---      ---       #70
      01000518H   LINE      ---      ---       #71
      01000518H   LINE      ---      ---       #72
      01000518H   LINE      ---      ---       #73
      01000519H   LINE      ---      ---       #75
      01000519H   LINE      ---      ---       #76
      0100051BH   LINE      ---      ---       #77
      01000520H   LINE      ---      ---       #78
      01000526H   LINE      ---      ---       #79
      0100052CH   LINE      ---      ---       #80
      0100052CH   LINE      ---      ---       #82
      ---         BLOCKEND  ---      ---       LVL=0

      010026FEH   BLOCK     CODE     ---       LVL=0
      010026FEH   LINE      ---      ---       #86
      010026FEH   LINE      ---      ---       #87
      010026FEH   BLOCK     CODE     NEAR LAB  LVL=1
      010026FEH   LINE      ---      ---       #91
      01002703H   LINE      ---      ---       #92
      0100270BH   LINE      ---      ---       #94
      01002712H   LINE      ---      ---       #95
      01002712H   LINE      ---      ---       #96
      01002718H   LINE      ---      ---       #97
      0100271CH   LINE      ---      ---       #98
      01002720H   LINE      ---      ---       #99
      0100272BH   LINE      ---      ---       #100
      01002731H   LINE      ---      ---       #101
      01002737H   LINE      ---      ---       #102
      0100273CH   LINE      ---      ---       #103
      0100273FH   LINE      ---      ---       #104
      0100273FH   LINE      ---      ---       #105
      01002747H   LINE      ---      ---       #106
      01002747H   LINE      ---      ---       #107
      01002759H   LINE      ---      ---       #108
      01002759H   LINE      ---      ---       #109
      01002777H   LINE      ---      ---       #112
      01002777H   LINE      ---      ---       #117
      0100277FH   LINE      ---      ---       #118
      01002785H   LINE      ---      ---       #119
      0100278DH   LINE      ---      ---       #120
      01002793H   LINE      ---      ---       #121
      01002799H   LINE      ---      ---       #122
      0100279FH   LINE      ---      ---       #135
      010027A4H   LINE      ---      ---       #136
      010027A9H   LINE      ---      ---       #137
      010027AAH   LINE      ---      ---       #139
      010027B0H   LINE      ---      ---       #140
      010027B0H   LINE      ---      ---       #141
      010027B0H   LINE      ---      ---       #142
      02004E46H   SYMBOL    XDATA    VOID      i
      02004E47H   SYMBOL    XDATA    VOID      ptr
      ---         BLOCKEND  CODE     ---       LVL=1
      ---         BLOCKEND  CODE     ---       LVL=0

      0100386AH   BLOCK     CODE     ---       LVL=0
      0100386AH   LINE      ---      ---       #145
      0100386AH   LINE      ---      ---       #146
      0100386AH   BLOCK     CODE     NEAR LAB  LVL=1
      0100386AH   LINE      ---      ---       #149
      01003871H   LINE      ---      ---       #150
      01003871H   LINE      ---      ---       #151
      0100387CH   LINE      ---      ---       #152
      01003882H   LINE      ---      ---       #153
      01003888H   LINE      ---      ---       #154
      0100388DH   LINE      ---      ---       #155
      01003890H   LINE      ---      ---       #156
      01003890H   LINE      ---      ---       #157
      0100389AH   LINE      ---      ---       #158
      0100389AH   LINE      ---      ---       #159
      010038AEH   LINE      ---      ---       #160
      010038AEH   LINE      ---      ---       #161
      010038B8H   LINE      ---      ---       #162
      010038B8H   LINE      ---      ---       #165
      010038C0H   LINE      ---      ---       #167
      010038C3H   LINE      ---      ---       #168
      010038C3H   LINE      ---      ---       #169
      010038C9H   LINE      ---      ---       #170
      010038D2H   LINE      ---      ---       #171
      010038F2H   LINE      ---      ---       #172
      01003912H   LINE      ---      ---       #173
      0100391FH   LINE      ---      ---       #174
      0100391FH   LINE      ---      ---       #176
      01003925H   LINE      ---      ---       #177
      0100392BH   LINE      ---      ---       #179
      01003931H   LINE      ---      ---       #180
      01003937H   LINE      ---      ---       #182
      01003938H   LINE      ---      ---       #184
      0100393EH   LINE      ---      ---       #185
      0100393EH   LINE      ---      ---       #186
      0100393EH   LINE      ---      ---       #187
      00000004H   SYMBOL    DATA     VOID      data_rec
      ---         BLOCKEND  CODE     ---       LVL=1
      ---         BLOCKEND  CODE     ---       LVL=0

      0100052DH   BLOCK     CODE     ---       LVL=0
      0100052DH   LINE      ---      ---       #191
      0100052DH   LINE      ---      ---       #192
      0100052DH   LINE      ---      ---       #194
      01000534H   LINE      ---      ---       #195
      01000534H   LINE      ---      ---       #196
      0100053FH   LINE      ---      ---       #197
      01000545H   LINE      ---      ---       #198
      0100054BH   LINE      ---      ---       #199
      01000550H   LINE      ---      ---       #200
      01000552H   LINE      ---      ---       #201
      01000552H   LINE      ---      ---       #202
      0100055AH   LINE      ---      ---       #203
      0100055AH   LINE      ---      ---       #204
      0100056BH   LINE      ---      ---       #205
      0100056BH   LINE      ---      ---       #206
      01000572H   LINE      ---      ---       #207
      01000572H   LINE      ---      ---       #208
      01000578H   LINE      ---      ---       #209
      0100057EH   LINE      ---      ---       #211
      01000584H   LINE      ---      ---       #212
      0100058AH   LINE      ---      ---       #213
      0100058BH   LINE      ---      ---       #215
      01000591H   LINE      ---      ---       #216
      01000591H   LINE      ---      ---       #217
      01000591H   LINE      ---      ---       #218
      ---         BLOCKEND  ---      ---       LVL=0

      010005E2H   BLOCK     CODE     ---       LVL=0
      010005E2H   LINE      ---      ---       #222
      010005E2H   LINE      ---      ---       #223
      010005E2H   LINE      ---      ---       #225
      010005E9H   LINE      ---      ---       #226
      010005E9H   LINE      ---      ---       #227
      010005F4H   LINE      ---      ---       #228
      010005FAH   LINE      ---      ---       #229
      01000600H   LINE      ---      ---       #230
      01000605H   LINE      ---      ---       #231
      01000607H   LINE      ---      ---       #232
      01000607H   LINE      ---      ---       #233
      0100060FH   LINE      ---      ---       #234
      0100060FH   LINE      ---      ---       #235
      01000620H   LINE      ---      ---       #236
      01000620H   LINE      ---      ---       #237
      01000627H   LINE      ---      ---       #238
      01000627H   LINE      ---      ---       #240
      0100062DH   LINE      ---      ---       #241
      01000635H   LINE      ---      ---       #242
      0100063DH   LINE      ---      ---       #243
      01000645H   LINE      ---      ---       #266
      0100064AH   LINE      ---      ---       #267
      0100064FH   LINE      ---      ---       #268
      01000653H   LINE      ---      ---       #270
      01000654H   LINE      ---      ---       #272
      0100065AH   LINE      ---      ---       #273
      0100065AH   LINE      ---      ---       #274
      0100065AH   LINE      ---      ---       #275
      ---         BLOCKEND  ---      ---       LVL=0

      0100066DH   BLOCK     CODE     ---       LVL=0
      0100066DH   LINE      ---      ---       #279
      0100066DH   LINE      ---      ---       #280
      0100066DH   BLOCK     CODE     NEAR LAB  LVL=1
      0100066DH   LINE      ---      ---       #283
      01000679H   LINE      ---      ---       #285
      01000681H   LINE      ---      ---       #286
      01000681H   LINE      ---      ---       #288
      01000687H   LINE      ---      ---       #289
      01000695H   LINE      ---      ---       #290
      010006A5H   LINE      ---      ---       #291
      010006ACH   LINE      ---      ---       #292
      010006AFH   LINE      ---      ---       #293
      010006BAH   LINE      ---      ---       #295
      010006BCH   LINE      ---      ---       #297
      010006C2H   LINE      ---      ---       #298
      010006C8H   LINE      ---      ---       #299
      010006CDH   LINE      ---      ---       #300
      010006CFH   LINE      ---      ---       #301
      010006CFH   LINE      ---      ---       #302
      010006D6H   LINE      ---      ---       #303
      010006D6H   LINE      ---      ---       #304
      010006E8H   LINE      ---      ---       #305
      010006E8H   LINE      ---      ---       #306
      010006EFH   LINE      ---      ---       #307
      010006EFH   LINE      ---      ---       #308
      010006F4H   LINE      ---      ---       #309
      010006F9H   LINE      ---      ---       #310
      010006FAH   LINE      ---      ---       #312
      01000700H   LINE      ---      ---       #313
      01000700H   LINE      ---      ---       #314
      01000700H   LINE      ---      ---       #315
      00000004H   SYMBOL    DATA     VOID      R_AD_Zero
      ---         BLOCKEND  CODE     ---       LVL=1
      ---         BLOCKEND  CODE     ---       LVL=0

      0100071BH   BLOCK     CODE     ---       LVL=0
      0100071BH   LINE      ---      ---       #320
      0100071BH   LINE      ---      ---       #321
      0100071BH   BLOCK     CODE     NEAR LAB  LVL=1
      0100071BH   LINE      ---      ---       #323
      01000724H   LINE      ---      ---       #324
      0100072CH   LINE      ---      ---       #325
      0100072CH   LINE      ---      ---       #326
      01000732H   LINE      ---      ---       #327
      01000741H   LINE      ---      ---       #328
      01000752H   LINE      ---      ---       #329
      01000755H   LINE      ---      ---       #330
      01000758H   LINE      ---      ---       #331
      01000763H   LINE      ---      ---       #332
      01000769H   LINE      ---      ---       #333
      0100076FH   LINE      ---      ---       #334
      01000774H   LINE      ---      ---       #335
      01000776H   LINE      ---      ---       #336
      01000776H   LINE      ---      ---       #337
      0100077DH   LINE      ---      ---       #338
      0100077DH   LINE      ---      ---       #339
      0100078FH   LINE      ---      ---       #340
      0100078FH   LINE      ---      ---       #341
      01000796H   LINE      ---      ---       #342
      01000796H   LINE      ---      ---       #346
      0100079BH   LINE      ---      ---       #347
      010007A0H   LINE      ---      ---       #350
      010007A1H   LINE      ---      ---       #352
      010007A7H   LINE      ---      ---       #353
      010007A7H   LINE      ---      ---       #354
      010007A7H   LINE      ---      ---       #355
      00000004H   SYMBOL    DATA     VOID      R_Open_Weight
      ---         BLOCKEND  CODE     ---       LVL=1
      ---         BLOCKEND  CODE     ---       LVL=0

      0100393FH   BLOCK     CODE     ---       LVL=0
      0100393FH   LINE      ---      ---       #359
      0100393FH   LINE      ---      ---       #360
      0100393FH   BLOCK     CODE     NEAR LAB  LVL=1
      0100393FH   LINE      ---      ---       #364
      01003946H   LINE      ---      ---       #365
      01003946H   LINE      ---      ---       #366
      01003951H   LINE      ---      ---       #367
      01003957H   LINE      ---      ---       #368
      0100395DH   LINE      ---      ---       #369
      01003962H   LINE      ---      ---       #370
      01003965H   LINE      ---      ---       #371
      01003965H   LINE      ---      ---       #372
      0100396FH   LINE      ---      ---       #373
      0100396FH   LINE      ---      ---       #374
      01003981H   LINE      ---      ---       #375
      01003981H   LINE      ---      ---       #376
      01003989H   LINE      ---      ---       #377
      01003989H   LINE      ---      ---       #378
      01003990H   LINE      ---      ---       #379
      010039B0H   LINE      ---      ---       #380
      010039D0H   LINE      ---      ---       #381
      010039D5H   LINE      ---      ---       #382
      010039DEH   LINE      ---      ---       #384
      010039E3H   LINE      ---      ---       #385
      010039E8H   LINE      ---      ---       #387
      010039E9H   LINE      ---      ---       #389
      010039EFH   LINE      ---      ---       #390
      010039EFH   LINE      ---      ---       #391
      010039EFH   LINE      ---      ---       #392
      00000004H   SYMBOL    DATA     VOID      data_rec
      00000006H   SYMBOL    DATA     VOID      R_AD_Zero
      ---         BLOCKEND  CODE     ---       LVL=1
      ---         BLOCKEND  CODE     ---       LVL=0

      01000701H   BLOCK     CODE     ---       LVL=0
      01000701H   LINE      ---      ---       #396
      01000701H   LINE      ---      ---       #397
      01000701H   LINE      ---      ---       #399
      01000708H   LINE      ---      ---       #400
      01000708H   LINE      ---      ---       #401
      01000713H   LINE      ---      ---       #402
      01000715H   LINE      ---      ---       #403
      0100071AH   LINE      ---      ---       #405
      0100071AH   LINE      ---      ---       #407
      ---         BLOCKEND  ---      ---       LVL=0

      01002DD5H   BLOCK     CODE     ---       LVL=0
      01002DD5H   LINE      ---      ---       #411
      01002DE0H   LINE      ---      ---       #412
      01002DE0H   BLOCK     CODE     NEAR LAB  LVL=1
      01002DE0H   LINE      ---      ---       #414
      01002DE7H   LINE      ---      ---       #415
      01002DE7H   LINE      ---      ---       #416
      01002E19H   LINE      ---      ---       #417
      01002E1CH   LINE      ---      ---       #418
      01002E2EH   LINE      ---      ---       #419
      00000007H   SYMBOL    DATA     VOID      i
      ---         BLOCKEND  CODE     ---       LVL=1
      ---         BLOCKEND  CODE     ---       LVL=0

      01002AD1H   BLOCK     CODE     ---       LVL=0
      01002AD1H   LINE      ---      ---       #421
      01002ADFH   LINE      ---      ---       #422
      01002ADFH   BLOCK     CODE     NEAR LAB  LVL=1
      01002ADFH   LINE      ---      ---       #423
      01002AF2H   LINE      ---      ---       #426
      01002AF8H   LINE      ---      ---       #427
      01002B27H   LINE      ---      ---       #428
      01002B27H   LINE      ---      ---       #429
      01002B27H   LINE      ---      ---       #430
      01002B2CH   LINE      ---      ---       #431
      01002B2EH   LINE      ---      ---       #432
      01002B30H   LINE      ---      ---       #433
      01002B36H   LINE      ---      ---       #434
      01002B38H   LINE      ---      ---       #435
      01002B38H   LINE      ---      ---       #436
      01002B3EH   LINE      ---      ---       #437
      01002B42H   LINE      ---      ---       #438
      01002B46H   LINE      ---      ---       #439
      01002B4CH   LINE      ---      ---       #440
      01002B4EH   LINE      ---      ---       #441
      01002B4EH   LINE      ---      ---       #442
      01002B54H   LINE      ---      ---       #443
      01002B58H   LINE      ---      ---       #444
      01002B5CH   LINE      ---      ---       #445
      01002B62H   LINE      ---      ---       #446
      01002B64H   LINE      ---      ---       #447
      01002B64H   LINE      ---      ---       #448
      01002B6AH   LINE      ---      ---       #449
      01002B6EH   LINE      ---      ---       #450
      01002B72H   LINE      ---      ---       #451
      01002B78H   LINE      ---      ---       #452
      01002B7AH   LINE      ---      ---       #453
      01002B7AH   LINE      ---      ---       #454
      01002B80H   LINE      ---      ---       #455
      01002B84H   LINE      ---      ---       #456
      01002B99H   LINE      ---      ---       #457
      01002BA0H   LINE      ---      ---       #458
      01002BAFH   LINE      ---      ---       #459
      01002BB5H   LINE      ---      ---       #460
      01002BB7H   LINE      ---      ---       #461
      01002BB7H   LINE      ---      ---       #462
      01002BBDH   LINE      ---      ---       #463
      01002BC1H   LINE      ---      ---       #464
      01002BD6H   LINE      ---      ---       #465
      01002BE0H   LINE      ---      ---       #466
      01002BE7H   LINE      ---      ---       #467
      01002BF6H   LINE      ---      ---       #468
      01002BFCH   LINE      ---      ---       #469
      01002BFEH   LINE      ---      ---       #470
      01002BFEH   LINE      ---      ---       #471
      01002C04H   LINE      ---      ---       #472
      01002C08H   LINE      ---      ---       #473
      01002C0CH   LINE      ---      ---       #474
      01002C12H   LINE      ---      ---       #475
      01002C14H   LINE      ---      ---       #476
      01002C14H   LINE      ---      ---       #477
      01002C1AH   LINE      ---      ---       #478
      01002C1EH   LINE      ---      ---       #479
      01002C33H   LINE      ---      ---       #480
      01002C3DH   LINE      ---      ---       #481
      01002C47H   LINE      ---      ---       #482
      01002C4EH   LINE      ---      ---       #483
      01002C5DH   LINE      ---      ---       #484
      01002C63H   LINE      ---      ---       #485
      01002C65H   LINE      ---      ---       #486
      01002C65H   LINE      ---      ---       #487
      01002C6BH   LINE      ---      ---       #488
      01002C6FH   LINE      ---      ---       #489
      01002C84H   LINE      ---      ---       #490
      01002C8EH   LINE      ---      ---       #491
      01002C98H   LINE      ---      ---       #492
      01002CA2H   LINE      ---      ---       #493
      01002CA9H   LINE      ---      ---       #494
      01002CB8H   LINE      ---      ---       #495
      01002CBEH   LINE      ---      ---       #496
      01002CC0H   LINE      ---      ---       #497
      01002CC0H   LINE      ---      ---       #498
      01002CC6H   LINE      ---      ---       #499
      01002CCAH   LINE      ---      ---       #500
      01002CDFH   LINE      ---      ---       #501
      01002CE9H   LINE      ---      ---       #502
      01002CF3H   LINE      ---      ---       #503
      01002CFAH   LINE      ---      ---       #504
      01002D09H   LINE      ---      ---       #505
      01002D0FH   LINE      ---      ---       #506
      01002D11H   LINE      ---      ---       #507
      01002D11H   LINE      ---      ---       #508
      01002D17H   LINE      ---      ---       #509
      01002D1BH   LINE      ---      ---       #510
      01002D30H   LINE      ---      ---       #511
      01002D3AH   LINE      ---      ---       #512
      01002D41H   LINE      ---      ---       #513
      01002D50H   LINE      ---      ---       #514
      01002D56H   LINE      ---      ---       #515
      01002D58H   LINE      ---      ---       #516
      01002D58H   LINE      ---      ---       #517
      01002D5EH   LINE      ---      ---       #518
      01002D62H   LINE      ---      ---       #519
      01002D77H   LINE      ---      ---       #520
      01002D81H   LINE      ---      ---       #521
      01002D8BH   LINE      ---      ---       #522
      01002D95H   LINE      ---      ---       #523
      01002D9FH   LINE      ---      ---       #524
      01002DA6H   LINE      ---      ---       #525
      01002DB5H   LINE      ---      ---       #526
      01002DB9H   LINE      ---      ---       #527
      01002DBBH   LINE      ---      ---       #528
      01002DBBH   LINE      ---      ---       #529
      01002DC0H   LINE      ---      ---       #530
      01002DC6H   LINE      ---      ---       #531
      01002DC6H   LINE      ---      ---       #532
      01002DC6H   LINE      ---      ---       #533
      02004D85H   SYMBOL    XDATA    VOID      buf
      02004D8FH   SYMBOL    XDATA    VOID      len
      ---         BLOCKEND  CODE     ---       LVL=1
      ---         BLOCKEND  CODE     ---       LVL=0

      ---         MODULE    ---      ---       CS_SCALEDISPLAY
      02004D2DH   PUBLIC    XDATA    ---       CS_Lcd_Table
      02004D27H   PUBLIC    XDATA    ---       CS_Lcd_Send_Data
      02004D22H   PUBLIC    XDATA    ---       CS_lcd_showbuf
      02004D1CH   PUBLIC    XDATA    ---       CS_Lcd_Send_Data_BAK
      01000F73H   PUBLIC    CODE     ---       CS_ScaleDisplay_SteadyFlash
      01000FC3H   PUBLIC    CODE     ---       CS_ScaleDisplay_LcdRestore
      01003BE4H   PUBLIC    CODE     ---       CS_ScaleDisplay_LcdBackup
      01003BD5H   PUBLIC    CODE     ---       CS_ScaleDisplay_LcdShowAll
      01000FA8H   PUBLIC    CODE     ---       CS_ScaleDisplay_LcdShowNoDigit
      01003BC7H   PUBLIC    CODE     ---       CS_ScaleDisplay_LcdShowNull
      01002E7BH   PUBLIC    CODE     ---       _CS_ScaleDisplay_LookUpTable
      01002EC2H   PUBLIC    CODE     ---       _CS_ScaleDisplay_HexToBcd
      01002F2DH   PUBLIC    CODE     ---       CS_ScaleDisplay_LcdBuf_rShift4
      010039F0H   PUBLIC    CODE     ---       _CS_ScaleDisplay_FreshBuf
      01002E2FH   PUBLIC    CODE     ---       CS_ScaleDisplay_Debug
      0100155AH   PUBLIC    CODE     ---       CS_ScaleDisplay

      0100155AH   BLOCK     CODE     ---       LVL=0
      0100155AH   LINE      ---      ---       #14
      0100155AH   LINE      ---      ---       #15
      0100155AH   BLOCK     CODE     NEAR LAB  LVL=1
      0100155AH   LINE      ---      ---       #18
      01001562H   LINE      ---      ---       #19
      01001562H   LINE      ---      ---       #20
      0100156AH   LINE      ---      ---       #21
      01001572H   LINE      ---      ---       #22
      01001579H   LINE      ---      ---       #23
      01001581H   LINE      ---      ---       #24
      01001590H   LINE      ---      ---       #25
      01001597H   LINE      ---      ---       #27
      01001597H   LINE      ---      ---       #28
      0100159DH   LINE      ---      ---       #29
      0100159DH   LINE      ---      ---       #30
      010015ADH   LINE      ---      ---       #31
      010015B2H   LINE      ---      ---       #32
      010015B2H   LINE      ---      ---       #33
      010015B9H   LINE      ---      ---       #34
      010015B9H   LINE      ---      ---       #35
      010015C9H   LINE      ---      ---       #36
      010015CEH   LINE      ---      ---       #37
      010015CEH   LINE      ---      ---       #38
      010015D5H   LINE      ---      ---       #39
      010015D5H   LINE      ---      ---       #40
      010015EBH   LINE      ---      ---       #41
      010015F0H   LINE      ---      ---       #42
      010015F0H   LINE      ---      ---       #43
      010015F7H   LINE      ---      ---       #44
      010015F7H   LINE      ---      ---       #45
      01001606H   LINE      ---      ---       #46
      0100161AH   LINE      ---      ---       #47
      0100161FH   LINE      ---      ---       #48
      0100161FH   LINE      ---      ---       #49
      00000004H   SYMBOL    DATA     VOID      weight_temp
      ---         BLOCKEND  CODE     ---       LVL=1
      ---         BLOCKEND  CODE     ---       LVL=0

      01002E2FH   BLOCK     CODE     ---       LVL=0
      01002E2FH   LINE      ---      ---       #55
      01002E2FH   LINE      ---      ---       #56
      01002E2FH   BLOCK     CODE     NEAR LAB  LVL=1
      01002E2FH   LINE      ---      ---       #58
      01002E3FH   LINE      ---      ---       #60
      01002E4BH   LINE      ---      ---       #61
      01002E57H   LINE      ---      ---       #62
      01002E63H   LINE      ---      ---       #63
      01002E6FH   LINE      ---      ---       #65
      01002E71H   LINE      ---      ---       #67
      02004E29H   SYMBOL    XDATA    VOID      buf
      ---         BLOCKEND  CODE     ---       LVL=1
      ---         BLOCKEND  CODE     ---       LVL=0

      010039F0H   BLOCK     CODE     ---       LVL=0
      010039F0H   LINE      ---      ---       #73
      010039F5H   LINE      ---      ---       #74
      010039F5H   BLOCK     CODE     NEAR LAB  LVL=1
      010039F5H   LINE      ---      ---       #79
      010039F8H   LINE      ---      ---       #80
      010039F8H   LINE      ---      ---       #81
      010039FEH   LINE      ---      ---       #82
      01003A01H   LINE      ---      ---       #83
      01003A03H   LINE      ---      ---       #84
      01003A05H   LINE      ---      ---       #85
      01003A07H   LINE      ---      ---       #86
      01003A07H   LINE      ---      ---       #88
      01003A0FH   LINE      ---      ---       #89
      01003A0FH   LINE      ---      ---       #90
      01003A14H   LINE      ---      ---       #91
      01003A18H   LINE      ---      ---       #92
      01003A1CH   LINE      ---      ---       #93
      01003A1FH   LINE      ---      ---       #94
      01003A23H   LINE      ---      ---       #95
      01003A23H   LINE      ---      ---       #97
      01003A27H   LINE      ---      ---       #98
      01003A27H   LINE      ---      ---       #99
      01003A2DH   LINE      ---      ---       #100
      01003A2FH   LINE      ---      ---       #101
      01003A33H   LINE      ---      ---       #102
      01003A37H   LINE      ---      ---       #103
      01003A39H   LINE      ---      ---       #104
      01003A39H   LINE      ---      ---       #106
      01003A4DH   LINE      ---      ---       #107
      01003A4DH   LINE      ---      ---       #108
      01003A52H   LINE      ---      ---       #109
      01003A56H   LINE      ---      ---       #110
      01003A5AH   LINE      ---      ---       #111
      01003A5EH   LINE      ---      ---       #112
      01003A62H   LINE      ---      ---       #113
      01003A66H   LINE      ---      ---       #114
      01003A6DH   LINE      ---      ---       #115
      01003A73H   LINE      ---      ---       #116
      01003A7BH   LINE      ---      ---       #117
      01003A81H   LINE      ---      ---       #118
      01003A85H   LINE      ---      ---       #119
      01003A8BH   LINE      ---      ---       #120
      01003A8BH   LINE      ---      ---       #122
      01003AA8H   LINE      ---      ---       #123
      01003AA8H   LINE      ---      ---       #124
      01003AB5H   LINE      ---      ---       #126
      01003ABDH   LINE      ---      ---       #127
      01003ABDH   LINE      ---      ---       #128
      01003AC3H   LINE      ---      ---       #129
      01003AC9H   LINE      ---      ---       #130
      01003ACFH   LINE      ---      ---       #131
      01003AD5H   LINE      ---      ---       #132
      01003ADAH   LINE      ---      ---       #133
      01003ADAH   LINE      ---      ---       #135
      01003AE4H   LINE      ---      ---       #136
      01003AE7H   LINE      ---      ---       #137
      01003AF2H   LINE      ---      ---       #138
      01003AF5H   LINE      ---      ---       #140
      01003AF9H   LINE      ---      ---       #141
      01003AF9H   LINE      ---      ---       #142
      01003B04H   LINE      ---      ---       #143
      01003B07H   LINE      ---      ---       #144
      01003B07H   LINE      ---      ---       #145
      01003B07H   LINE      ---      ---       #147
      01003B14H   LINE      ---      ---       #148
      01003B21H   LINE      ---      ---       #149
      01003B2EH   LINE      ---      ---       #150
      01003B3BH   LINE      ---      ---       #152
      01003B3EH   LINE      ---      ---       #158
      01003B45H   LINE      ---      ---       #159
      01003B4CH   LINE      ---      ---       #162
      01003B54H   LINE      ---      ---       #163
      01003B54H   LINE      ---      ---       #164
      01003B5BH   LINE      ---      ---       #165
      01003B60H   LINE      ---      ---       #166
      01003B60H   LINE      ---      ---       #168
      01003B64H   LINE      ---      ---       #169
      01003B64H   LINE      ---      ---       #170
      01003B6BH   LINE      ---      ---       #171
      01003B70H   LINE      ---      ---       #172
      01003B70H   LINE      ---      ---       #173
      01003B77H   LINE      ---      ---       #174
      01003B77H   LINE      ---      ---       #175
      01003B7EH   LINE      ---      ---       #176
      01003B83H   LINE      ---      ---       #177
      01003B83H   LINE      ---      ---       #179
      01003B8BH   LINE      ---      ---       #180
      01003B8BH   LINE      ---      ---       #181
      01003B92H   LINE      ---      ---       #182
      01003B97H   LINE      ---      ---       #183
      01003B97H   LINE      ---      ---       #192
      01003B9EH   LINE      ---      ---       #193
      01003BA7H   LINE      ---      ---       #195
      01003BAEH   LINE      ---      ---       #197
      01003BB2H   LINE      ---      ---       #198
      01003BB2H   LINE      ---      ---       #199
      01003BB9H   LINE      ---      ---       #200
      01003BBFH   LINE      ---      ---       #201
      01003BC6H   LINE      ---      ---       #202
      01003BC6H   LINE      ---      ---       #204
      02004D17H   SYMBOL    XDATA    VOID      data_buf
      ---         BLOCKEND  CODE     ---       LVL=1
      ---         BLOCKEND  CODE     ---       LVL=0

      01002F2DH   BLOCK     CODE     ---       LVL=0
      01002F2DH   LINE      ---      ---       #243
      01002F2DH   LINE      ---      ---       #244
      01002F2DH   LINE      ---      ---       #245
      01002F3AH   LINE      ---      ---       #246
      01002F47H   LINE      ---      ---       #247
      01002F54H   LINE      ---      ---       #248
      01002F61H   LINE      ---      ---       #249
      01002F6AH   LINE      ---      ---       #252
      01002F71H   LINE      ---      ---       #253
      01002F76H   LINE      ---      ---       #254
      01002F7BH   LINE      ---      ---       #255
      01002F80H   LINE      ---      ---       #256
      01002F85H   LINE      ---      ---       #259
      01002F8BH   LINE      ---      ---       #260
      01002F99H   LINE      ---      ---       #261
      01002FA7H   LINE      ---      ---       #262
      01002FB5H   LINE      ---      ---       #263
      01002FC3H   LINE      ---      ---       #265
      ---         BLOCKEND  ---      ---       LVL=0

      01002EC2H   BLOCK     CODE     ---       LVL=0
      01002EC2H   LINE      ---      ---       #268
      01002ED3H   LINE      ---      ---       #269
      01002ED3H   BLOCK     CODE     NEAR LAB  LVL=1
      01002ED3H   LINE      ---      ---       #271
      01002EE0H   LINE      ---      ---       #272
      01002EE0H   LINE      ---      ---       #273
      01002F0DH   LINE      ---      ---       #274
      01002F24H   LINE      ---      ---       #275
      01002F2CH   LINE      ---      ---       #276
      02004E1DH   SYMBOL    XDATA    VOID      i
      ---         BLOCKEND  CODE     ---       LVL=1
      ---         BLOCKEND  CODE     ---       LVL=0

      01002E7BH   BLOCK     CODE     ---       LVL=0
      01002E7BH   LINE      ---      ---       #288
      01002E7BH   LINE      ---      ---       #289
      01002E7BH   BLOCK     CODE     NEAR LAB  LVL=1
      01002E7BH   LINE      ---      ---       #291
      01002E81H   LINE      ---      ---       #292
      01002E8AH   LINE      ---      ---       #293
      00000001H   SYMBOL    DATA     VOID      data_ptr
      ---         BLOCKEND  CODE     ---       LVL=1
      ---         BLOCKEND  CODE     ---       LVL=0

      01003BC7H   BLOCK     CODE     ---       LVL=0
      01003BC7H   LINE      ---      ---       #298
      01003BC7H   LINE      ---      ---       #299
      01003BC7H   LINE      ---      ---       #300
      01003BCCH   LINE      ---      ---       #301
      01003BCEH   LINE      ---      ---       #302
      01003BD0H   LINE      ---      ---       #303
      01003BD2H   LINE      ---      ---       #304
      01003BD4H   LINE      ---      ---       #305
      ---         BLOCKEND  ---      ---       LVL=0

      01000FA8H   BLOCK     CODE     ---       LVL=0
      01000FA8H   LINE      ---      ---       #307
      01000FA8H   LINE      ---      ---       #308
      01000FA8H   LINE      ---      ---       #309
      01000FAFH   LINE      ---      ---       #310
      01000FB3H   LINE      ---      ---       #311
      01000FB8H   LINE      ---      ---       #312
      01000FBDH   LINE      ---      ---       #313
      01000FC2H   LINE      ---      ---       #314
      ---         BLOCKEND  ---      ---       LVL=0

      01003BD5H   BLOCK     CODE     ---       LVL=0
      01003BD5H   LINE      ---      ---       #316
      01003BD5H   LINE      ---      ---       #317
      01003BD5H   LINE      ---      ---       #318
      01003BDBH   LINE      ---      ---       #319
      01003BDDH   LINE      ---      ---       #320
      01003BDFH   LINE      ---      ---       #321
      01003BE1H   LINE      ---      ---       #322
      01003BE3H   LINE      ---      ---       #323
      ---         BLOCKEND  ---      ---       LVL=0

      01003BE4H   BLOCK     CODE     ---       LVL=0
      01003BE4H   LINE      ---      ---       #326
      01003BE4H   LINE      ---      ---       #327
      01003BE4H   LINE      ---      ---       #328
      01003BECH   LINE      ---      ---       #329
      01003BF4H   LINE      ---      ---       #330
      01003BFCH   LINE      ---      ---       #331
      01003C04H   LINE      ---      ---       #332
      01003C0CH   LINE      ---      ---       #333
      ---         BLOCKEND  ---      ---       LVL=0

      01000FC3H   BLOCK     CODE     ---       LVL=0
      01000FC3H   LINE      ---      ---       #336
      01000FC3H   LINE      ---      ---       #337
      01000FC3H   LINE      ---      ---       #338
      01000FCBH   LINE      ---      ---       #339
      01000FD3H   LINE      ---      ---       #340
      01000FDBH   LINE      ---      ---       #341
      01000FE3H   LINE      ---      ---       #342
      01000FEBH   LINE      ---      ---       #343
      ---         BLOCKEND  ---      ---       LVL=0

      01000F73H   BLOCK     CODE     ---       LVL=0
      01000F73H   LINE      ---      ---       #346
      01000F73H   LINE      ---      ---       #347
      01000F73H   BLOCK     CODE     NEAR LAB  LVL=1
      01000F73H   LINE      ---      ---       #352
      01000F7AH   LINE      ---      ---       #353
      01000F7AH   LINE      ---      ---       #354
      01000F7EH   LINE      ---      ---       #355
      01000F84H   LINE      ---      ---       #356
      01000F87H   LINE      ---      ---       #357
      01000F8DH   LINE      ---      ---       #358
      01000F8FH   LINE      ---      ---       #359
      01000F95H   LINE      ---      ---       #360
      01000F97H   LINE      ---      ---       #361
      01000F9DH   LINE      ---      ---       #362
      01000F9FH   LINE      ---      ---       #363
      01000FA5H   LINE      ---      ---       #364
      01000FA7H   LINE      ---      ---       #365
      01000FA7H   LINE      ---      ---       #366
      00000007H   SYMBOL    DATA     VOID      R_Weight_FlashTime
      ---         BLOCKEND  CODE     ---       LVL=1
      ---         BLOCKEND  CODE     ---       LVL=0

      ---         MODULE    ---      ---       CS_SCALEKEY
      01000937H   PUBLIC    CODE     ---       CS_KeyScan

      01000937H   BLOCK     CODE     ---       LVL=0
      01000937H   LINE      ---      ---       #17
      01000937H   LINE      ---      ---       #18
      01000937H   BLOCK     CODE     NEAR LAB  LVL=1
      01000937H   LINE      ---      ---       #30
      0100093FH   LINE      ---      ---       #32
      01000946H   LINE      ---      ---       #33
      0100094CH   LINE      ---      ---       #35
      01000955H   LINE      ---      ---       #36
      01000958H   LINE      ---      ---       #38
      0100095DH   LINE      ---      ---       #39
      0100095DH   LINE      ---      ---       #40
      01000962H   LINE      ---      ---       #41
      01000965H   LINE      ---      ---       #43
      0100096CH   LINE      ---      ---       #44
      01000971H   LINE      ---      ---       #46
      01000976H   LINE      ---      ---       #47
      01000978H   LINE      ---      ---       #49
      01000984H   LINE      ---      ---       #50
      01000984H   LINE      ---      ---       #51
      01000986H   LINE      ---      ---       #52
      0100098CH   LINE      ---      ---       #53
      0100098EH   LINE      ---      ---       #54
      0100098EH   LINE      ---      ---       #56
      01000995H   LINE      ---      ---       #57
      01000995H   LINE      ---      ---       #58
      01000997H   LINE      ---      ---       #61
      010009A0H   LINE      ---      ---       #62
      010009A6H   LINE      ---      ---       #64
      010009A6H   LINE      ---      ---       #65
      010009ABH   LINE      ---      ---       #66
      010009ACH   LINE      ---      ---       #67
      010009B2H   LINE      ---      ---       #68
      010009B4H   LINE      ---      ---       #69
      010009B4H   LINE      ---      ---       #70
      010009B9H   LINE      ---      ---       #71
      010009B9H   LINE      ---      ---       #73
      010009C1H   LINE      ---      ---       #74
      010009C2H   LINE      ---      ---       #75
      010009C3H   LINE      ---      ---       #77
      010009C3H   LINE      ---      ---       #78
      010009C9H   LINE      ---      ---       #79
      010009C9H   LINE      ---      ---       #80
      010009D0H   LINE      ---      ---       #81
      010009D3H   LINE      ---      ---       #82
      010009DDH   LINE      ---      ---       #83
      010009DDH   LINE      ---      ---       #84
      010009E3H   LINE      ---      ---       #85
      010009E9H   LINE      ---      ---       #86
      010009E9H   LINE      ---      ---       #87
      010009EBH   LINE      ---      ---       #89
      010009F4H   LINE      ---      ---       #90
      010009F7H   LINE      ---      ---       #91
      010009FCH   LINE      ---      ---       #92
      010009FCH   LINE      ---      ---       #93
      010009FCH   LINE      ---      ---       #94
      01000A02H   LINE      ---      ---       #95
      01000A02H   LINE      ---      ---       #96
      01000A08H   LINE      ---      ---       #97
      01000A08H   LINE      ---      ---       #99
      01000A0AH   LINE      ---      ---       #100
      01000A11H   LINE      ---      ---       #101
      01000A11H   LINE      ---      ---       #102
      01000A17H   LINE      ---      ---       #103
      01000A1BH   LINE      ---      ---       #104
      01000A20H   LINE      ---      ---       #105
      01000A24H   LINE      ---      ---       #106
      01000A24H   LINE      ---      ---       #107
      01000A29H   LINE      ---      ---       #108
      01000A2DH   LINE      ---      ---       #109
      01000A2DH   LINE      ---      ---       #110
      01000A2DH   LINE      ---      ---       #111
      01000A2EH   LINE      ---      ---       #113
      01000A2EH   LINE      ---      ---       #114
      01000A33H   LINE      ---      ---       #115
      01000A37H   LINE      ---      ---       #116
      01000A37H   LINE      ---      ---       #117
      01000A37H   LINE      ---      ---       #118
      00000007H   SYMBOL    DATA     VOID      keyState
      02004DFCH   SYMBOL    XDATA    VOID      keyState_prev
      02004DFDH   SYMBOL    XDATA    VOID      keyStateCnt
      02004DFEH   SYMBOL    XDATA    VOID      KeyPressDeal
      02004DFFH   SYMBOL    XDATA    VOID      KeyLongPressDeal
      02004E00H   SYMBOL    XDATA    VOID      ShortPressCount
      02004E01H   SYMBOL    XDATA    VOID      PressTimesCount
      02004E02H   SYMBOL    XDATA    VOID      Press
      02004E03H   SYMBOL    XDATA    VOID      stanby
      ---         BLOCKEND  CODE     ---       LVL=1
      ---         BLOCKEND  CODE     ---       LVL=0

      ---         MODULE    ---      ---       RETATION_VARIABLE
      02004E59H   PUBLIC    XDATA    BYTE      sys_state
      02004C62H   PUBLIC    XDATA    BYTE      R_Test
      02004C5BH   PUBLIC    XDATA    BYTE      bleConnStatus
      02004C5DH   PUBLIC    XDATA    BYTE      handleIndicationConfirm
      02004A02H   PUBLIC    XDATA    WORD      BT_CmdWptr
      02004A00H   PUBLIC    XDATA    WORD      BT_CmdRptr
      02004C5AH   PUBLIC    XDATA    BYTE      notifyValueUUIDA625
      02004C10H   PUBLIC    XDATA    ---       historyUserData
      02004C59H   PUBLIC    XDATA    BYTE      notifyValueUUIDA621
      02004A06H   PUBLIC    XDATA    WORD      BT_EventWptr
      02004A04H   PUBLIC    XDATA    WORD      BT_EventRptr
      02004C5CH   PUBLIC    XDATA    BYTE      lxOptStatus
      02004C00H   PUBLIC    XDATA    ---       sensor_data
      02004C63H   PUBLIC    XDATA    ---       btCmdBuf
      02004C06H   PUBLIC    XDATA    ---       deviceInfo
      02004C5EH   PUBLIC    XDATA    LONG      UTCTime

      ---         MODULE    ---      ---       LXPROTOCOL
      01002676H   PUBLIC    CODE     ---       _QueuePush
      01003F1BH   PUBLIC    CODE     ---       QueueInit
      01001FDFH   PUBLIC    CODE     ---       _SpiFlashOperator
      01003C0DH   PUBLIC    CODE     ---       lxOptProcess
      01001F68H   PUBLIC    CODE     ---       _changeLxOptStatus
      01001E26H   PUBLIC    CODE     ---       _lxRecvDataFromApp

      01001D6BH   BLOCK     CODE     ---       LVL=0
      01001D6BH   LINE      ---      ---       #17
      01001D7CH   LINE      ---      ---       #18
      01001D7CH   BLOCK     CODE     NEAR LAB  LVL=1
      01001D7CH   LINE      ---      ---       #22
      01001D89H   LINE      ---      ---       #23
      01001DA8H   LINE      ---      ---       #24
      01001DA8H   LINE      ---      ---       #25
      01001DC5H   LINE      ---      ---       #26
      01001DF0H   LINE      ---      ---       #27
      01001E15H   LINE      ---      ---       #28
      01001E25H   LINE      ---      ---       #29
      02004DBCH   SYMBOL    XDATA    VOID      i
      02004DBEH   SYMBOL    XDATA    VOID      size
      02004DC0H   SYMBOL    XDATA    VOID      temp
      ---         BLOCKEND  CODE     ---       LVL=1
      ---         BLOCKEND  CODE     ---       LVL=0

      01001F71H   BLOCK     CODE     ---       LVL=0
      01001F71H   LINE      ---      ---       #31
      01001F75H   LINE      ---      ---       #32
      01001F75H   LINE      ---      ---       #33
      01001F7DH   LINE      ---      ---       #34
      01001F7DH   LINE      ---      ---       #36
      01001F7DH   LINE      ---      ---       #38
      01001F83H   LINE      ---      ---       #39
      01001F87H   LINE      ---      ---       #40
      01001F8AH   LINE      ---      ---       #41
      01001F8DH   LINE      ---      ---       #42
      01001F90H   LINE      ---      ---       #43
      01001F93H   LINE      ---      ---       #44
      01001F96H   LINE      ---      ---       #46
      01001F9EH   LINE      ---      ---       #47
      01001FA2H   LINE      ---      ---       #48
      ---         BLOCKEND  ---      ---       LVL=0

      01001E26H   BLOCK     CODE     ---       LVL=0
      01001E26H   LINE      ---      ---       #50
      01001E31H   LINE      ---      ---       #51
      01001E31H   BLOCK     CODE     NEAR LAB  LVL=1
      01001E31H   LINE      ---      ---       #54
      01001E46H   LINE      ---      ---       #57
      01001E6AH   LINE      ---      ---       #58
      01001E8EH   LINE      ---      ---       #61
      01001E98H   LINE      ---      ---       #62
      01001E98H   LINE      ---      ---       #64
      01001E9FH   LINE      ---      ---       #67
      01001ED0H   LINE      ---      ---       #69
      01001F00H   LINE      ---      ---       #70
      01001F00H   LINE      ---      ---       #71
      01001F00H   LINE      ---      ---       #72
      01001F04H   LINE      ---      ---       #73
      01001F04H   LINE      ---      ---       #74
      01001F04H   LINE      ---      ---       #75
      01001F08H   LINE      ---      ---       #76
      01001F08H   LINE      ---      ---       #77
      01001F08H   LINE      ---      ---       #78
      01001F0CH   LINE      ---      ---       #79
      01001F0CH   LINE      ---      ---       #80
      01001F0CH   LINE      ---      ---       #81
      01001F10H   LINE      ---      ---       #82
      01001F10H   LINE      ---      ---       #84
      01001F10H   LINE      ---      ---       #85
      01001F14H   LINE      ---      ---       #86
      01001F14H   LINE      ---      ---       #87
      01001F14H   LINE      ---      ---       #88
      01001F18H   LINE      ---      ---       #89
      01001F18H   LINE      ---      ---       #90
      01001F18H   LINE      ---      ---       #91
      01001F1CH   LINE      ---      ---       #92
      01001F1CH   LINE      ---      ---       #94
      01001F1CH   LINE      ---      ---       #95
      01001F20H   LINE      ---      ---       #96
      01001F20H   LINE      ---      ---       #97
      01001F20H   LINE      ---      ---       #99
      01001F21H   LINE      ---      ---       #101
      01001F27H   LINE      ---      ---       #102
      01001F27H   LINE      ---      ---       #103
      01001F3BH   LINE      ---      ---       #104
      01001F3BH   LINE      ---      ---       #105
      01001F42H   LINE      ---      ---       #106
      01001F42H   LINE      ---      ---       #107
      01001F46H   LINE      ---      ---       #108
      01001F46H   LINE      ---      ---       #110
      01001F4BH   LINE      ---      ---       #111
      01001F4CH   LINE      ---      ---       #113
      01001F4CH   LINE      ---      ---       #114
      01001F53H   LINE      ---      ---       #115
      01001F53H   LINE      ---      ---       #116
      01001F5DH   LINE      ---      ---       #118
      01001F62H   LINE      ---      ---       #119
      01001F62H   LINE      ---      ---       #120
      01001F67H   LINE      ---      ---       #121
      01001F67H   LINE      ---      ---       #122
      01001F67H   LINE      ---      ---       #123
      02004E21H   SYMBOL    XDATA    VOID      frameControl
      02004E22H   SYMBOL    XDATA    VOID      cmd
      ---         BLOCKEND  CODE     ---       LVL=1
      ---         BLOCKEND  CODE     ---       LVL=0

      01001F68H   BLOCK     CODE     ---       LVL=0
      01001F68H   LINE      ---      ---       #125
      01001F68H   LINE      ---      ---       #126
      01001F68H   LINE      ---      ---       #127
      01001F6EH   LINE      ---      ---       #128
      01001F6EH   LINE      ---      ---       #129
      01001F70H   LINE      ---      ---       #130
      01001F70H   LINE      ---      ---       #131
      ---         BLOCKEND  ---      ---       LVL=0

      01003C0DH   BLOCK     CODE     ---       LVL=0
      01003C0DH   LINE      ---      ---       #133
      01003C0DH   LINE      ---      ---       #134
      01003C0DH   BLOCK     CODE     NEAR LAB  LVL=1
      01003C0DH   LINE      ---      ---       #137
      01003C13H   LINE      ---      ---       #138
      01003C17H   LINE      ---      ---       #139
      01003C1AH   LINE      ---      ---       #140
      01003C46H   LINE      ---      ---       #141
      01003C46H   LINE      ---      ---       #143
      01003C46H   LINE      ---      ---       #145
      01003C52H   LINE      ---      ---       #146
      01003C52H   LINE      ---      ---       #148
      01003C67H   LINE      ---      ---       #150
      01003C6DH   LINE      ---      ---       #152
      01003C71H   LINE      ---      ---       #153
      01003C73H   LINE      ---      ---       #155
      01003C73H   LINE      ---      ---       #156
      01003C78H   LINE      ---      ---       #157
      01003C78H   LINE      ---      ---       #159
      01003C7EH   LINE      ---      ---       #160
      01003C84H   LINE      ---      ---       #161
      01003C88H   LINE      ---      ---       #162
      01003C8BH   LINE      ---      ---       #163
      01003C8EH   LINE      ---      ---       #164
      01003C96H   LINE      ---      ---       #165
      01003CA3H   LINE      ---      ---       #166
      01003CACH   LINE      ---      ---       #167
      01003CB2H   LINE      ---      ---       #168
      01003CB3H   LINE      ---      ---       #170
      01003CB3H   LINE      ---      ---       #172
      01003CC7H   LINE      ---      ---       #173
      01003CC7H   LINE      ---      ---       #175
      01003CCFH   LINE      ---      ---       #177
      01003CD5H   LINE      ---      ---       #178
      01003CD7H   LINE      ---      ---       #180
      01003CD7H   LINE      ---      ---       #181
      01003CDDH   LINE      ---      ---       #182
      01003CDDH   LINE      ---      ---       #184
      01003CE3H   LINE      ---      ---       #185
      01003CE7H   LINE      ---      ---       #186
      01003CEBH   LINE      ---      ---       #187
      01003CEEH   LINE      ---      ---       #188
      01003CF2H   LINE      ---      ---       #189
      01003CF6H   LINE      ---      ---       #190
      01003CF9H   LINE      ---      ---       #191
      01003CFCH   LINE      ---      ---       #192
      01003D04H   LINE      ---      ---       #194
      01003D11H   LINE      ---      ---       #195
      01003D1AH   LINE      ---      ---       #196
      01003D20H   LINE      ---      ---       #197
      01003D21H   LINE      ---      ---       #199
      01003D21H   LINE      ---      ---       #200
      01003D27H   LINE      ---      ---       #201
      01003D2CH   LINE      ---      ---       #202
      01003D30H   LINE      ---      ---       #203
      01003D34H   LINE      ---      ---       #204
      01003D37H   LINE      ---      ---       #206
      01003D45H   LINE      ---      ---       #207
      01003D45H   LINE      ---      ---       #208
      01003D6BH   LINE      ---      ---       #209
      01003D73H   LINE      ---      ---       #212
      01003D7BH   LINE      ---      ---       #214
      01003D83H   LINE      ---      ---       #215
      01003D8BH   LINE      ---      ---       #217
      01003D91H   LINE      ---      ---       #219
      01003D9EH   LINE      ---      ---       #220
      01003DA7H   LINE      ---      ---       #221
      01003DACH   LINE      ---      ---       #222
      01003DB2H   LINE      ---      ---       #223
      01003DB3H   LINE      ---      ---       #224
      01003DB3H   LINE      ---      ---       #225
      01003DBBH   LINE      ---      ---       #226
      01003DC0H   LINE      ---      ---       #227
      01003DC0H   LINE      ---      ---       #229
      01003DC4H   LINE      ---      ---       #230
      01003DC4H   LINE      ---      ---       #231
      01003DF9H   LINE      ---      ---       #232
      01003DF9H   LINE      ---      ---       #234
      01003DFFH   LINE      ---      ---       #238
      01003DFFH   LINE      ---      ---       #239
      01003E09H   LINE      ---      ---       #241
      01003E0FH   LINE      ---      ---       #242
      01003E10H   LINE      ---      ---       #244
      01003E10H   LINE      ---      ---       #245
      01003E15H   LINE      ---      ---       #247
      01003E1AH   LINE      ---      ---       #248
      01003E1EH   LINE      ---      ---       #249
      01003E27H   LINE      ---      ---       #251
      01003E27H   LINE      ---      ---       #252
      01003E27H   LINE      ---      ---       #254
      01003E27H   LINE      ---      ---       #255
      01003E2DH   LINE      ---      ---       #256
      01003E31H   LINE      ---      ---       #257
      01003E35H   LINE      ---      ---       #258
      01003E38H   LINE      ---      ---       #259
      01003E3CH   LINE      ---      ---       #260
      01003E40H   LINE      ---      ---       #261
      01003E44H   LINE      ---      ---       #262
      01003E47H   LINE      ---      ---       #263
      01003E4BH   LINE      ---      ---       #265
      01003E58H   LINE      ---      ---       #266
      01003E61H   LINE      ---      ---       #267
      01003E67H   LINE      ---      ---       #268
      01003E68H   LINE      ---      ---       #269
      01003E68H   LINE      ---      ---       #270
      01003E6FH   LINE      ---      ---       #271
      01003E6FH   LINE      ---      ---       #273
      01003E87H   LINE      ---      ---       #274
      01003E87H   LINE      ---      ---       #275
      01003E8CH   LINE      ---      ---       #276
      01003E8DH   LINE      ---      ---       #278
      01003E8DH   LINE      ---      ---       #279
      01003E94H   LINE      ---      ---       #280
      01003E94H   LINE      ---      ---       #281
      01003EACH   LINE      ---      ---       #282
      01003EACH   LINE      ---      ---       #289
      01003EB5H   LINE      ---      ---       #290
      01003EBBH   LINE      ---      ---       #291
      01003EBCH   LINE      ---      ---       #293
      01003EBCH   LINE      ---      ---       #295
      01003EC5H   LINE      ---      ---       #296
      01003EC5H   LINE      ---      ---       #297
      01003ECAH   LINE      ---      ---       #298
      01003ED3H   LINE      ---      ---       #299
      01003ED5H   LINE      ---      ---       #301
      01003ED5H   LINE      ---      ---       #302
      01003EDEH   LINE      ---      ---       #303
      01003EDEH   LINE      ---      ---       #304
      01003EE4H   LINE      ---      ---       #305
      01003EE5H   LINE      ---      ---       #307
      01003EE5H   LINE      ---      ---       #308
      01003EECH   LINE      ---      ---       #309
      01003EECH   LINE      ---      ---       #310
      01003EEFH   LINE      ---      ---       #311
      01003EEFH   LINE      ---      ---       #312
      01003EEFH   LINE      ---      ---       #313
      01003EEFH   LINE      ---      ---       #314
      01003EEFH   LINE      ---      ---       #315
      01003EEFH   LINE      ---      ---       #316
      01003EEFH   LINE      ---      ---       #317
      01003EEFH   LINE      ---      ---       #318
      01003EEFH   LINE      ---      ---       #319
      01003EEFH   LINE      ---      ---       #320
      01003EEFH   LINE      ---      ---       #322
      01003EF8H   LINE      ---      ---       #323
      01003EFEH   LINE      ---      ---       #324
      01003EFFH   LINE      ---      ---       #326
      01003EFFH   LINE      ---      ---       #328
      01003F05H   LINE      ---      ---       #329
      01003F05H   LINE      ---      ---       #330
      01003F09H   LINE      ---      ---       #331
      01003F0AH   LINE      ---      ---       #333
      01003F0AH   LINE      ---      ---       #334
      01003F10H   LINE      ---      ---       #335
      01003F10H   LINE      ---      ---       #336
      01003F11H   LINE      ---      ---       #337
      01003F11H   LINE      ---      ---       #339
      01003F14H   LINE      ---      ---       #340
      01003F1AH   LINE      ---      ---       #341
      01003F1AH   LINE      ---      ---       #348
      01003F1AH   LINE      ---      ---       #349
      02004E5AH   SYMBOL    XDATA    VOID      i
      ---         BLOCKEND  CODE     ---       LVL=1
      ---         BLOCKEND  CODE     ---       LVL=0

      01001D10H   BLOCK     CODE     ---       LVL=0
      01001D10H   LINE      ---      ---       #351
      01001D14H   LINE      ---      ---       #352
      01001D14H   LINE      ---      ---       #353
      01001D1AH   LINE      ---      ---       #354
      01001D1EH   LINE      ---      ---       #355
      01001D22H   LINE      ---      ---       #356
      01001D25H   LINE      ---      ---       #357
      01001D29H   LINE      ---      ---       #358
      01001D2DH   LINE      ---      ---       #359
      01001D30H   LINE      ---      ---       #360
      01001D34H   LINE      ---      ---       #361
      01001D37H   LINE      ---      ---       #362
      01001D3AH   LINE      ---      ---       #363
      01001D3DH   LINE      ---      ---       #365
      01001D49H   LINE      ---      ---       #366
      01001D51H   LINE      ---      ---       #367
      ---         BLOCKEND  ---      ---       LVL=0

      01001FC1H   BLOCK     CODE     ---       LVL=0
      01001FC1H   LINE      ---      ---       #370
      01001FC1H   LINE      ---      ---       #371
      01001FC1H   LINE      ---      ---       #374
      01001FCBH   LINE      ---      ---       #375
      01001FCEH   LINE      ---      ---       #376
      01001FD3H   LINE      ---      ---       #377
      01001FDDH   LINE      ---      ---       #378
      ---         BLOCKEND  ---      ---       LVL=0

      01002393H   BLOCK     CODE     ---       LVL=0
      01002393H   LINE      ---      ---       #383
      01002393H   LINE      ---      ---       #384
      01002393H   BLOCK     CODE     NEAR LAB  LVL=1
      01002393H   LINE      ---      ---       #386
      0100239CH   LINE      ---      ---       #388
      010023A0H   LINE      ---      ---       #402
      010023A8H   LINE      ---      ---       #403
      010023E7H   LINE      ---      ---       #404
      010023F2H   LINE      ---      ---       #406
      010023F8H   LINE      ---      ---       #407
      010023FCH   LINE      ---      ---       #408
      010023FFH   LINE      ---      ---       #410
      01002405H   LINE      ---      ---       #411
      01002409H   LINE      ---      ---       #412
      01002413H   LINE      ---      ---       #413
      01002416H   LINE      ---      ---       #414
      0100241AH   LINE      ---      ---       #415
      0100241DH   LINE      ---      ---       #416
      0100241FH   LINE      ---      ---       #417
      01002421H   LINE      ---      ---       #418
      01002429H   LINE      ---      ---       #419
      01002429H   LINE      ---      ---       #420
      0100243BH   LINE      ---      ---       #421
      0100243BH   LINE      ---      ---       #422
      01002448H   LINE      ---      ---       #423
      01002479H   LINE      ---      ---       #424
      01002481H   LINE      ---      ---       #425
      010024ABH   LINE      ---      ---       #426
      010024D0H   LINE      ---      ---       #427
      010024E0H   LINE      ---      ---       #429
      010024F5H   LINE      ---      ---       #430
      010024F5H   LINE      ---      ---       #431
      01002502H   LINE      ---      ---       #432
      01002507H   LINE      ---      ---       #433
      01002507H   LINE      ---      ---       #434
      0100250FH   LINE      ---      ---       #435
      01002511H   LINE      ---      ---       #437
      01002511H   LINE      ---      ---       #438
      01002517H   LINE      ---      ---       #439
      0100251EH   LINE      ---      ---       #441
      0100251EH   LINE      ---      ---       #442
      0100252CH   LINE      ---      ---       #443
      01002536H   LINE      ---      ---       #444
      01002559H   LINE      ---      ---       #445
      01002562H   LINE      ---      ---       #446
      01002567H   LINE      ---      ---       #447
      0100256FH   LINE      ---      ---       #448
      0100256FH   LINE      ---      ---       #450
      0100256FH   LINE      ---      ---       #451
      01002575H   LINE      ---      ---       #452
      0100257BH   LINE      ---      ---       #453
      0100257FH   LINE      ---      ---       #454
      0100258CH   LINE      ---      ---       #455
      0100258FH   LINE      ---      ---       #456
      0100258FH   LINE      ---      ---       #457
      010025AAH   LINE      ---      ---       #458
      010025ACH   LINE      ---      ---       #460
      010025ACH   LINE      ---      ---       #461
      010025B7H   LINE      ---      ---       #462
      010025B7H   LINE      ---      ---       #463
      010025CEH   LINE      ---      ---       #464
      010025DEH   LINE      ---      ---       #465
      010025E7H   LINE      ---      ---       #466
      010025E7H   LINE      ---      ---       #467
      02004E5BH   SYMBOL    XDATA    VOID      total_len
      02004DC1H   SYMBOL    XDATA    VOID      temp
      02004DC4H   SYMBOL    XDATA    VOID      crc32
      02004DC8H   SYMBOL    XDATA    VOID      i
      02004DC9H   SYMBOL    XDATA    VOID      pkgCnt
      02004DCAH   SYMBOL    XDATA    VOID      size
      ---         BLOCKEND  CODE     ---       LVL=1
      ---         BLOCKEND  CODE     ---       LVL=0

      01001FDFH   BLOCK     CODE     ---       LVL=0
      01001FDFH   LINE      ---      ---       #469
      01001FE4H   LINE      ---      ---       #470
      01001FE4H   LINE      ---      ---       #472
      01001FE7H   LINE      ---      ---       #473
      01001FE7H   LINE      ---      ---       #474
      01001FFEH   LINE      ---      ---       #475
      01001FFEH   LINE      ---      ---       #476
      01002005H   LINE      ---      ---       #477
      01002005H   LINE      ---      ---       #478
      0100200FH   LINE      ---      ---       #479
      01002025H   LINE      ---      ---       #480
      01002025H   LINE      ---      ---       #487
      ---         BLOCKEND  ---      ---       LVL=0

      01003F1BH   BLOCK     CODE     ---       LVL=0
      01003F1BH   LINE      ---      ---       #496
      01003F1BH   LINE      ---      ---       #497
      01003F1BH   LINE      ---      ---       #498
      01003F20H   LINE      ---      ---       #499
      01003F22H   LINE      ---      ---       #500
      01003F24H   LINE      ---      ---       #501
      ---         BLOCKEND  ---      ---       LVL=0

      0100261CH   BLOCK     CODE     ---       LVL=0
      0100261CH   LINE      ---      ---       #503
      0100261CH   LINE      ---      ---       #504
      0100261CH   BLOCK     CODE     NEAR LAB  LVL=1
      0100261CH   LINE      ---      ---       #505
      01002625H   LINE      ---      ---       #507
      0100262EH   LINE      ---      ---       #508
      01002635H   LINE      ---      ---       #510
      01002651H   LINE      ---      ---       #511
      01002664H   LINE      ---      ---       #512
      0100266AH   LINE      ---      ---       #514
      01002675H   LINE      ---      ---       #515
      02004E4CH   SYMBOL    XDATA    VOID      temp
      ---         BLOCKEND  CODE     ---       LVL=1
      ---         BLOCKEND  CODE     ---       LVL=0

      01002676H   BLOCK     CODE     ---       LVL=0
      01002676H   LINE      ---      ---       #517
      01002681H   LINE      ---      ---       #518
      01002681H   LINE      ---      ---       #519
      0100268AH   LINE      ---      ---       #520
      0100268CH   LINE      ---      ---       #522
      010026BBH   LINE      ---      ---       #523
      010026CEH   LINE      ---      ---       #524
      010026D2H   LINE      ---      ---       #525
      ---         BLOCKEND  ---      ---       LVL=0

      ---         MODULE    ---      ---       CRC32
      02004D90H   PUBLIC    XDATA    BYTE      ?_cal_crc32_multiple?BYTE
      01002298H   PUBLIC    CODE     ---       _cal_crc32_multiple

      01002298H   BLOCK     CODE     ---       LVL=0
      01002298H   LINE      ---      ---       #80
      010022A9H   LINE      ---      ---       #81
      010022A9H   BLOCK     CODE     NEAR LAB  LVL=1
      010022A9H   LINE      ---      ---       #83
      010022D5H   LINE      ---      ---       #84
      010022D5H   LINE      ---      ---       #85
      01002332H   LINE      ---      ---       #86
      01002363H   LINE      ---      ---       #87
      01002384H   LINE      ---      ---       #89
      01002392H   LINE      ---      ---       #90
      02004D9BH   SYMBOL    XDATA    VOID      i
      ---         BLOCKEND  CODE     ---       LVL=1
      ---         BLOCKEND  CODE     ---       LVL=0

      ---         MODULE    ---      ---       ?C_STARTUP
      01000000H   PUBLIC    CODE     ---       ?C_STARTUP

      ---         MODULE    ---      ---       ?C?COPY
      010000D3H   PUBLIC    CODE     ---       ?C?COPY

      ---         MODULE    ---      ---       ?C?CLDPTR
      010000F9H   PUBLIC    CODE     ---       ?C?CLDPTR

      ---         MODULE    ---      ---       ?C?CLDOPTR
      01000112H   PUBLIC    CODE     ---       ?C?CLDOPTR

      ---         MODULE    ---      ---       ?C?CSTPTR
      0100013FH   PUBLIC    CODE     ---       ?C?CSTPTR

      ---         MODULE    ---      ---       ?C?CSTOPTR
      01000151H   PUBLIC    CODE     ---       ?C?CSTOPTR

      ---         MODULE    ---      ---       ?C?UIDIV
      01000173H   PUBLIC    CODE     ---       ?C?UIDIV

      ---         MODULE    ---      ---       ?C?ILDIX
      010001C8H   PUBLIC    CODE     ---       ?C?ILDIX

      ---         MODULE    ---      ---       ?C?LMUL
      010001DEH   PUBLIC    CODE     ---       ?C?LMUL

      ---         MODULE    ---      ---       ?C?ULDIV
      01000269H   PUBLIC    CODE     ---       ?C?ULDIV

      ---         MODULE    ---      ---       ?C?ULCMP
      010002FBH   PUBLIC    CODE     ---       ?C?ULCMP

      ---         MODULE    ---      ---       ?C?ULSHR
      0100030CH   PUBLIC    CODE     ---       ?C?ULSHR

      ---         MODULE    ---      ---       ?C?LSHL
      0100031FH   PUBLIC    CODE     ---       ?C?LSHL

      ---         MODULE    ---      ---       ?C?LSTXDATA
      01000332H   PUBLIC    CODE     ---       ?C?LSTXDATA

      ---         MODULE    ---      ---       ?C?LSTKXDATA
      0100033EH   PUBLIC    CODE     ---       ?C?LSTKXDATA

      ---         MODULE    ---      ---       ?C?CCASE
      0100036FH   PUBLIC    CODE     ---       ?C?CCASE

      ---         MODULE    ---      ---       ?C?ICASE
      01000395H   PUBLIC    CODE     ---       ?C?ICASE

      ---         MODULE    ---      ---       ?C?ICALL
      010003C2H   PUBLIC    CODE     ---       ?C?ICALL
      010003C6H   PUBLIC    CODE     ---       ?C?ICALL2

      ---         MODULE    ---      ---       ?C?LIMUL
      010003C8H   PUBLIC    CODE     ---       ?C?LIMUL

      ---         MODULE    ---      ---       ?C_INIT
      0100043CH   PUBLIC    CODE     ---       ?C_START

Program Size: data=31.2 xdata=599 const=10 code=16155
LX51 RUN COMPLETE.  0 WARNING(S),  0 ERROR(S)
